ARM GAS  C:\Users\mark6\AppData\Local\Temp\ccV4BkxF.s 			page 1


   1              		.syntax unified
   2              		.cpu cortex-m3
   3              		.fpu softvfp
   4              		.eabi_attribute 20, 1
   5              		.eabi_attribute 21, 1
   6              		.eabi_attribute 23, 3
   7              		.eabi_attribute 24, 1
   8              		.eabi_attribute 25, 1
   9              		.eabi_attribute 26, 1
  10              		.eabi_attribute 30, 6
  11              		.eabi_attribute 34, 1
  12              		.eabi_attribute 18, 4
  13              		.thumb
  14              		.file	"CapSense_CSD_SMS_Wrapper.c"
  15              		.text
  16              	.Ltext0:
  17              		.cfi_sections	.debug_frame
  18              		.global	SMS_LIB_noiseThreshold
  19              		.data
  20              		.align	2
  21              		.type	SMS_LIB_noiseThreshold, %object
  22              		.size	SMS_LIB_noiseThreshold, 4
  23              	SMS_LIB_noiseThreshold:
  24 0000 00000000 		.word	CapSense_CSD_noiseThreshold
  25              		.global	SMS_LIB_hysteresis
  26              		.align	2
  27              		.type	SMS_LIB_hysteresis, %object
  28              		.size	SMS_LIB_hysteresis, 4
  29              	SMS_LIB_hysteresis:
  30 0004 00000000 		.word	CapSense_CSD_hysteresis
  31              		.global	SMS_LIB_widgetResolution
  32              		.align	2
  33              		.type	SMS_LIB_widgetResolution, %object
  34              		.size	SMS_LIB_widgetResolution, 4
  35              	SMS_LIB_widgetResolution:
  36 0008 00000000 		.word	CapSense_CSD_widgetResolution
  37              		.global	SMS_LIB_widgetNumber
  38              		.align	2
  39              		.type	SMS_LIB_widgetNumber, %object
  40              		.size	SMS_LIB_widgetNumber, 4
  41              	SMS_LIB_widgetNumber:
  42 000c 00000000 		.word	CapSense_CSD_widgetNumber
  43              		.global	SMS_LIB_numberOfSensors
  44              		.align	2
  45              		.type	SMS_LIB_numberOfSensors, %object
  46              		.size	SMS_LIB_numberOfSensors, 4
  47              	SMS_LIB_numberOfSensors:
  48 0010 00000000 		.word	CapSense_CSD_numberOfSensors
  49              		.global	SMS_LIB_rawDataIndex
  50              		.align	2
  51              		.type	SMS_LIB_rawDataIndex, %object
  52              		.size	SMS_LIB_rawDataIndex, 4
  53              	SMS_LIB_rawDataIndex:
  54 0014 00000000 		.word	CapSense_CSD_rawDataIndex
  55              		.global	SMS_LIB_fingerThreshold
  56              		.align	2
  57              		.type	SMS_LIB_fingerThreshold, %object
ARM GAS  C:\Users\mark6\AppData\Local\Temp\ccV4BkxF.s 			page 2


  58              		.size	SMS_LIB_fingerThreshold, 4
  59              	SMS_LIB_fingerThreshold:
  60 0018 00000000 		.word	CapSense_CSD_fingerThreshold
  61              		.global	SMS_LIB_idacSettings
  62              		.align	2
  63              		.type	SMS_LIB_idacSettings, %object
  64              		.size	SMS_LIB_idacSettings, 4
  65              	SMS_LIB_idacSettings:
  66 001c 00000000 		.word	CapSense_CSD_idacSettings
  67              		.global	SMS_LIB_prescaler
  68              		.align	2
  69              		.type	SMS_LIB_prescaler, %object
  70              		.size	SMS_LIB_prescaler, 4
  71              	SMS_LIB_prescaler:
  72 0020 00000000 		.word	CapSense_CSD_analogSwitchDivider
  73              		.global	SMS_LIB_SensorRaw
  74              		.align	2
  75              		.type	SMS_LIB_SensorRaw, %object
  76              		.size	SMS_LIB_SensorRaw, 4
  77              	SMS_LIB_SensorRaw:
  78 0024 00000000 		.word	CapSense_CSD_sensorRaw
  79              		.global	SMS_LIB_SensorBaseline
  80              		.align	2
  81              		.type	SMS_LIB_SensorBaseline, %object
  82              		.size	SMS_LIB_SensorBaseline, 4
  83              	SMS_LIB_SensorBaseline:
  84 0028 00000000 		.word	CapSense_CSD_sensorBaseline
  85              		.global	SMS_LIB_SensorSensitivity
  86              		.section	.rodata
  87              		.align	2
  88              		.type	SMS_LIB_SensorSensitivity, %object
  89              		.size	SMS_LIB_SensorSensitivity, 1
  90              	SMS_LIB_SensorSensitivity:
  91 0000 02       		.byte	2
  92              		.global	SMS_LIB_PrescalerTbl
  93 0001 000000   		.align	2
  94              		.type	SMS_LIB_PrescalerTbl, %object
  95              		.size	SMS_LIB_PrescalerTbl, 32
  96              	SMS_LIB_PrescalerTbl:
  97 0004 01       		.byte	1
  98 0005 01       		.byte	1
  99 0006 01       		.byte	1
 100 0007 01       		.byte	1
 101 0008 01       		.byte	1
 102 0009 01       		.byte	1
 103 000a 02       		.byte	2
 104 000b 02       		.byte	2
 105 000c 02       		.byte	2
 106 000d 02       		.byte	2
 107 000e 02       		.byte	2
 108 000f 03       		.byte	3
 109 0010 03       		.byte	3
 110 0011 03       		.byte	3
 111 0012 03       		.byte	3
 112 0013 03       		.byte	3
 113 0014 03       		.byte	3
 114 0015 04       		.byte	4
ARM GAS  C:\Users\mark6\AppData\Local\Temp\ccV4BkxF.s 			page 3


 115 0016 04       		.byte	4
 116 0017 04       		.byte	4
 117 0018 04       		.byte	4
 118 0019 04       		.byte	4
 119 001a 04       		.byte	4
 120 001b 05       		.byte	5
 121 001c 05       		.byte	5
 122 001d 05       		.byte	5
 123 001e 05       		.byte	5
 124 001f 05       		.byte	5
 125 0020 05       		.byte	5
 126 0021 06       		.byte	6
 127 0022 06       		.byte	6
 128 0023 06       		.byte	6
 129              		.comm	SMS_LIB_Table2,1,4
 130              		.comm	SMS_LIB_Table3,1,4
 131              		.comm	SMS_LIB_Table4,2,4
 132              		.comm	SMS_LIB_Table5,2,4
 133              		.comm	SMS_LIB_Table6,1,4
 134              		.comm	SMS_LIB_Table7,1,4
 135              		.comm	SMS_LIB_Table8,1,4
 136              		.comm	SMS_LIB_Table9,1,4
 137              		.global	SMS_LIB_Var1
 138              		.data
 139              		.type	SMS_LIB_Var1, %object
 140              		.size	SMS_LIB_Var1, 1
 141              	SMS_LIB_Var1:
 142 002c 05       		.byte	5
 143              		.global	SMS_LIB_Var2
 144 002d 00       		.align	1
 145              		.type	SMS_LIB_Var2, %object
 146              		.size	SMS_LIB_Var2, 2
 147              	SMS_LIB_Var2:
 148 002e F229     		.short	10738
 149              		.global	SMS_LIB_TotalSnsCnt
 150              		.type	SMS_LIB_TotalSnsCnt, %object
 151              		.size	SMS_LIB_TotalSnsCnt, 1
 152              	SMS_LIB_TotalSnsCnt:
 153 0030 01       		.byte	1
 154              		.global	SMS_LIB_TotalScanSlCnt
 155              		.type	SMS_LIB_TotalScanSlCnt, %object
 156              		.size	SMS_LIB_TotalScanSlCnt, 1
 157              	SMS_LIB_TotalScanSlCnt:
 158 0031 01       		.byte	1
 159              		.global	SMS_LIB_EndOfWidgInd
 160              		.type	SMS_LIB_EndOfWidgInd, %object
 161              		.size	SMS_LIB_EndOfWidgInd, 1
 162              	SMS_LIB_EndOfWidgInd:
 163 0032 01       		.byte	1
 164              		.global	SMS_LIB_TotalSnsCnt_CH0
 165 0033 00       		.bss
 166              		.type	SMS_LIB_TotalSnsCnt_CH0, %object
 167              		.size	SMS_LIB_TotalSnsCnt_CH0, 1
 168              	SMS_LIB_TotalSnsCnt_CH0:
 169 0000 00       		.space	1
 170              		.global	SMS_LIB_TotalSnsCnt_CH1
 171              		.type	SMS_LIB_TotalSnsCnt_CH1, %object
ARM GAS  C:\Users\mark6\AppData\Local\Temp\ccV4BkxF.s 			page 4


 172              		.size	SMS_LIB_TotalSnsCnt_CH1, 1
 173              	SMS_LIB_TotalSnsCnt_CH1:
 174 0001 00       		.space	1
 175              		.section	.text.SMS_LIB_ScanSensor,"ax",%progbits
 176              		.align	2
 177              		.global	SMS_LIB_ScanSensor
 178              		.thumb
 179              		.thumb_func
 180              		.type	SMS_LIB_ScanSensor, %function
 181              	SMS_LIB_ScanSensor:
 182              	.LFB0:
 183              		.file 1 ".\\Generated_Source\\PSoC5\\CapSense_CSD_SMS_Wrapper.c"
   1:.\Generated_Source\PSoC5/CapSense_CSD_SMS_Wrapper.c **** /*******************************************************************************
   2:.\Generated_Source\PSoC5/CapSense_CSD_SMS_Wrapper.c **** * File Name: CapSense_CSD_SMS_Wrapper.c
   3:.\Generated_Source\PSoC5/CapSense_CSD_SMS_Wrapper.c **** * Version 3.50
   4:.\Generated_Source\PSoC5/CapSense_CSD_SMS_Wrapper.c **** *
   5:.\Generated_Source\PSoC5/CapSense_CSD_SMS_Wrapper.c **** * Description:
   6:.\Generated_Source\PSoC5/CapSense_CSD_SMS_Wrapper.c **** *  This file provides the source code of wrapper between CapSense CSD component 
   7:.\Generated_Source\PSoC5/CapSense_CSD_SMS_Wrapper.c **** *  and Auto Tuning library.
   8:.\Generated_Source\PSoC5/CapSense_CSD_SMS_Wrapper.c **** *
   9:.\Generated_Source\PSoC5/CapSense_CSD_SMS_Wrapper.c **** * Note:
  10:.\Generated_Source\PSoC5/CapSense_CSD_SMS_Wrapper.c **** *
  11:.\Generated_Source\PSoC5/CapSense_CSD_SMS_Wrapper.c **** ********************************************************************************
  12:.\Generated_Source\PSoC5/CapSense_CSD_SMS_Wrapper.c **** * Copyright 2008-2012, Cypress Semiconductor Corporation.  All rights reserved.
  13:.\Generated_Source\PSoC5/CapSense_CSD_SMS_Wrapper.c **** * You may use this file only in accordance with the license, terms, conditions,
  14:.\Generated_Source\PSoC5/CapSense_CSD_SMS_Wrapper.c **** * disclaimers, and limitations in the end user license agreement accompanying
  15:.\Generated_Source\PSoC5/CapSense_CSD_SMS_Wrapper.c **** * the software package with which this file was provided.
  16:.\Generated_Source\PSoC5/CapSense_CSD_SMS_Wrapper.c **** *******************************************************************************/
  17:.\Generated_Source\PSoC5/CapSense_CSD_SMS_Wrapper.c **** 
  18:.\Generated_Source\PSoC5/CapSense_CSD_SMS_Wrapper.c **** #include "CapSense_CSD.h"
  19:.\Generated_Source\PSoC5/CapSense_CSD_SMS_Wrapper.c **** #include "CapSense_CSD_CSHL.h"
  20:.\Generated_Source\PSoC5/CapSense_CSD_SMS_Wrapper.c **** 
  21:.\Generated_Source\PSoC5/CapSense_CSD_SMS_Wrapper.c **** #if (CapSense_CSD_TUNING_METHOD == CapSense_CSD_AUTO_TUNING)
  22:.\Generated_Source\PSoC5/CapSense_CSD_SMS_Wrapper.c **** 
  23:.\Generated_Source\PSoC5/CapSense_CSD_SMS_Wrapper.c **** extern uint8 CapSense_CSD_noiseThreshold[CapSense_CSD_WIDGET_CSHL_PARAMETERS_COUNT];
  24:.\Generated_Source\PSoC5/CapSense_CSD_SMS_Wrapper.c **** extern uint8 CapSense_CSD_hysteresis[CapSense_CSD_WIDGET_CSHL_PARAMETERS_COUNT];
  25:.\Generated_Source\PSoC5/CapSense_CSD_SMS_Wrapper.c **** extern uint8 CapSense_CSD_widgetResolution[CapSense_CSD_WIDGET_RESOLUTION_PARAMETERS_COUNT];
  26:.\Generated_Source\PSoC5/CapSense_CSD_SMS_Wrapper.c **** extern const uint8 CYCODE CapSense_CSD_numberOfSensors[CapSense_CSD_SENSORS_TBL_SIZE];
  27:.\Generated_Source\PSoC5/CapSense_CSD_SMS_Wrapper.c **** extern const uint8 CYCODE CapSense_CSD_rawDataIndex[CapSense_CSD_SENSORS_TBL_SIZE];
  28:.\Generated_Source\PSoC5/CapSense_CSD_SMS_Wrapper.c **** 
  29:.\Generated_Source\PSoC5/CapSense_CSD_SMS_Wrapper.c **** extern uint8 CapSense_CSD_fingerThreshold[CapSense_CSD_WIDGET_CSHL_PARAMETERS_COUNT];
  30:.\Generated_Source\PSoC5/CapSense_CSD_SMS_Wrapper.c **** extern uint8 CapSense_CSD_idacSettings[CapSense_CSD_TOTAL_SENSOR_COUNT];
  31:.\Generated_Source\PSoC5/CapSense_CSD_SMS_Wrapper.c **** extern uint8 CapSense_CSD_analogSwitchDivider[CapSense_CSD_TOTAL_SCANSLOT_COUNT];
  32:.\Generated_Source\PSoC5/CapSense_CSD_SMS_Wrapper.c **** 
  33:.\Generated_Source\PSoC5/CapSense_CSD_SMS_Wrapper.c **** extern void SMS_LIB_V3_50_CalculateThresholds(uint8 SensorNumber);
  34:.\Generated_Source\PSoC5/CapSense_CSD_SMS_Wrapper.c **** extern void SMS_LIB_V3_50_AutoTune1Ch(void);
  35:.\Generated_Source\PSoC5/CapSense_CSD_SMS_Wrapper.c **** extern void SMS_LIB_V3_50_AutoTune2Ch(void);
  36:.\Generated_Source\PSoC5/CapSense_CSD_SMS_Wrapper.c **** 
  37:.\Generated_Source\PSoC5/CapSense_CSD_SMS_Wrapper.c **** uint8  * SMS_LIB_noiseThreshold = CapSense_CSD_noiseThreshold;
  38:.\Generated_Source\PSoC5/CapSense_CSD_SMS_Wrapper.c **** uint8 * SMS_LIB_hysteresis = CapSense_CSD_hysteresis;
  39:.\Generated_Source\PSoC5/CapSense_CSD_SMS_Wrapper.c **** 
  40:.\Generated_Source\PSoC5/CapSense_CSD_SMS_Wrapper.c **** uint8 * SMS_LIB_widgetResolution = CapSense_CSD_widgetResolution;
  41:.\Generated_Source\PSoC5/CapSense_CSD_SMS_Wrapper.c **** 
  42:.\Generated_Source\PSoC5/CapSense_CSD_SMS_Wrapper.c **** const uint8 CYCODE * SMS_LIB_widgetNumber = CapSense_CSD_widgetNumber;
  43:.\Generated_Source\PSoC5/CapSense_CSD_SMS_Wrapper.c **** const uint8 CYCODE * SMS_LIB_numberOfSensors = CapSense_CSD_numberOfSensors;
  44:.\Generated_Source\PSoC5/CapSense_CSD_SMS_Wrapper.c **** const uint8 CYCODE * SMS_LIB_rawDataIndex = CapSense_CSD_rawDataIndex;
  45:.\Generated_Source\PSoC5/CapSense_CSD_SMS_Wrapper.c **** 
ARM GAS  C:\Users\mark6\AppData\Local\Temp\ccV4BkxF.s 			page 5


  46:.\Generated_Source\PSoC5/CapSense_CSD_SMS_Wrapper.c **** uint8 * SMS_LIB_fingerThreshold = CapSense_CSD_fingerThreshold;
  47:.\Generated_Source\PSoC5/CapSense_CSD_SMS_Wrapper.c **** uint8 * SMS_LIB_idacSettings = CapSense_CSD_idacSettings;
  48:.\Generated_Source\PSoC5/CapSense_CSD_SMS_Wrapper.c **** uint8 * SMS_LIB_prescaler = CapSense_CSD_analogSwitchDivider;
  49:.\Generated_Source\PSoC5/CapSense_CSD_SMS_Wrapper.c **** 
  50:.\Generated_Source\PSoC5/CapSense_CSD_SMS_Wrapper.c **** uint16 * SMS_LIB_SensorRaw = CapSense_CSD_sensorRaw;
  51:.\Generated_Source\PSoC5/CapSense_CSD_SMS_Wrapper.c **** uint16 * SMS_LIB_SensorBaseline = CapSense_CSD_sensorBaseline;
  52:.\Generated_Source\PSoC5/CapSense_CSD_SMS_Wrapper.c **** 
  53:.\Generated_Source\PSoC5/CapSense_CSD_SMS_Wrapper.c **** const uint8 CYCODE SMS_LIB_SensorSensitivity[] = {
  54:.\Generated_Source\PSoC5/CapSense_CSD_SMS_Wrapper.c ****     2, 
  55:.\Generated_Source\PSoC5/CapSense_CSD_SMS_Wrapper.c **** };
  56:.\Generated_Source\PSoC5/CapSense_CSD_SMS_Wrapper.c **** 
  57:.\Generated_Source\PSoC5/CapSense_CSD_SMS_Wrapper.c **** 
  58:.\Generated_Source\PSoC5/CapSense_CSD_SMS_Wrapper.c **** const uint8 CYCODE SMS_LIB_PrescalerTbl[] = {
  59:.\Generated_Source\PSoC5/CapSense_CSD_SMS_Wrapper.c ****     1u, 1u, 1u, 1u, 1u, 1u, 2u, 2u, 2u, 2u, 2u, 3u, 3u, 3u, 3u, 3u, 3u, 4u, 4u, 4u, 4u, 4u, 4u, 5u,
  60:.\Generated_Source\PSoC5/CapSense_CSD_SMS_Wrapper.c **** };
  61:.\Generated_Source\PSoC5/CapSense_CSD_SMS_Wrapper.c **** 
  62:.\Generated_Source\PSoC5/CapSense_CSD_SMS_Wrapper.c **** 
  63:.\Generated_Source\PSoC5/CapSense_CSD_SMS_Wrapper.c **** 
  64:.\Generated_Source\PSoC5/CapSense_CSD_SMS_Wrapper.c **** uint8 SMS_LIB_Table2[CapSense_CSD_TOTAL_SENSOR_COUNT];
  65:.\Generated_Source\PSoC5/CapSense_CSD_SMS_Wrapper.c **** uint8 SMS_LIB_Table3[CapSense_CSD_TOTAL_SENSOR_COUNT];
  66:.\Generated_Source\PSoC5/CapSense_CSD_SMS_Wrapper.c **** uint16 SMS_LIB_Table4[CapSense_CSD_TOTAL_SENSOR_COUNT];
  67:.\Generated_Source\PSoC5/CapSense_CSD_SMS_Wrapper.c **** uint16 SMS_LIB_Table5[CapSense_CSD_TOTAL_SENSOR_COUNT];
  68:.\Generated_Source\PSoC5/CapSense_CSD_SMS_Wrapper.c **** uint8 SMS_LIB_Table6[CapSense_CSD_TOTAL_SENSOR_COUNT];
  69:.\Generated_Source\PSoC5/CapSense_CSD_SMS_Wrapper.c **** uint8 SMS_LIB_Table7[CapSense_CSD_TOTAL_SENSOR_COUNT];
  70:.\Generated_Source\PSoC5/CapSense_CSD_SMS_Wrapper.c **** 
  71:.\Generated_Source\PSoC5/CapSense_CSD_SMS_Wrapper.c **** uint8 SMS_LIB_Table8[CapSense_CSD_END_OF_WIDGETS_INDEX];
  72:.\Generated_Source\PSoC5/CapSense_CSD_SMS_Wrapper.c **** uint8 SMS_LIB_Table9[CapSense_CSD_END_OF_WIDGETS_INDEX];
  73:.\Generated_Source\PSoC5/CapSense_CSD_SMS_Wrapper.c **** 
  74:.\Generated_Source\PSoC5/CapSense_CSD_SMS_Wrapper.c **** uint8 SMS_LIB_Var1 = (5u);
  75:.\Generated_Source\PSoC5/CapSense_CSD_SMS_Wrapper.c **** uint16 SMS_LIB_Var2 = (10738u);
  76:.\Generated_Source\PSoC5/CapSense_CSD_SMS_Wrapper.c **** 
  77:.\Generated_Source\PSoC5/CapSense_CSD_SMS_Wrapper.c **** uint8 SMS_LIB_TotalSnsCnt = CapSense_CSD_TOTAL_SENSOR_COUNT;
  78:.\Generated_Source\PSoC5/CapSense_CSD_SMS_Wrapper.c **** uint8 SMS_LIB_TotalScanSlCnt = CapSense_CSD_TOTAL_SCANSLOT_COUNT;
  79:.\Generated_Source\PSoC5/CapSense_CSD_SMS_Wrapper.c **** uint8 SMS_LIB_EndOfWidgInd = CapSense_CSD_END_OF_WIDGETS_INDEX;
  80:.\Generated_Source\PSoC5/CapSense_CSD_SMS_Wrapper.c **** 
  81:.\Generated_Source\PSoC5/CapSense_CSD_SMS_Wrapper.c **** #if (CapSense_CSD_DESIGN_TYPE == CapSense_CSD_TWO_CHANNELS_DESIGN)
  82:.\Generated_Source\PSoC5/CapSense_CSD_SMS_Wrapper.c ****     uint8 SMS_LIB_TotalSnsCnt_CH0 = CapSense_CSD_TOTAL_SENSOR_COUNT__CH0;
  83:.\Generated_Source\PSoC5/CapSense_CSD_SMS_Wrapper.c ****     uint8 SMS_LIB_TotalSnsCnt_CH1 = CapSense_CSD_TOTAL_SENSOR_COUNT__CH1;
  84:.\Generated_Source\PSoC5/CapSense_CSD_SMS_Wrapper.c **** #else
  85:.\Generated_Source\PSoC5/CapSense_CSD_SMS_Wrapper.c ****     uint8 SMS_LIB_TotalSnsCnt_CH0 = 0u;
  86:.\Generated_Source\PSoC5/CapSense_CSD_SMS_Wrapper.c ****     uint8 SMS_LIB_TotalSnsCnt_CH1 = 0u;
  87:.\Generated_Source\PSoC5/CapSense_CSD_SMS_Wrapper.c **** #endif  /* (CapSense_CSD_DESIGN_TYPE == CapSense_CSD_TWO_CHANNELS_DESIGN) */
  88:.\Generated_Source\PSoC5/CapSense_CSD_SMS_Wrapper.c **** 
  89:.\Generated_Source\PSoC5/CapSense_CSD_SMS_Wrapper.c **** /*******************************************************************************
  90:.\Generated_Source\PSoC5/CapSense_CSD_SMS_Wrapper.c **** * Function Name: SMS_LIB_ScanSensor
  91:.\Generated_Source\PSoC5/CapSense_CSD_SMS_Wrapper.c **** ********************************************************************************
  92:.\Generated_Source\PSoC5/CapSense_CSD_SMS_Wrapper.c **** *
  93:.\Generated_Source\PSoC5/CapSense_CSD_SMS_Wrapper.c **** * Summary:
  94:.\Generated_Source\PSoC5/CapSense_CSD_SMS_Wrapper.c **** *  Wrapper to CapSense_CSD_ScanSensor function.
  95:.\Generated_Source\PSoC5/CapSense_CSD_SMS_Wrapper.c **** *
  96:.\Generated_Source\PSoC5/CapSense_CSD_SMS_Wrapper.c **** * Parameters:
  97:.\Generated_Source\PSoC5/CapSense_CSD_SMS_Wrapper.c **** *  SensorNumber:  Sensor number.
  98:.\Generated_Source\PSoC5/CapSense_CSD_SMS_Wrapper.c **** *
  99:.\Generated_Source\PSoC5/CapSense_CSD_SMS_Wrapper.c **** * Return:
 100:.\Generated_Source\PSoC5/CapSense_CSD_SMS_Wrapper.c **** *  None
 101:.\Generated_Source\PSoC5/CapSense_CSD_SMS_Wrapper.c **** *
 102:.\Generated_Source\PSoC5/CapSense_CSD_SMS_Wrapper.c **** * Reentrant:
ARM GAS  C:\Users\mark6\AppData\Local\Temp\ccV4BkxF.s 			page 6


 103:.\Generated_Source\PSoC5/CapSense_CSD_SMS_Wrapper.c **** *  No
 104:.\Generated_Source\PSoC5/CapSense_CSD_SMS_Wrapper.c **** *
 105:.\Generated_Source\PSoC5/CapSense_CSD_SMS_Wrapper.c **** *******************************************************************************/
 106:.\Generated_Source\PSoC5/CapSense_CSD_SMS_Wrapper.c **** void SMS_LIB_ScanSensor(uint8 SensorNumber) 
 107:.\Generated_Source\PSoC5/CapSense_CSD_SMS_Wrapper.c **** {
 184              		.loc 1 107 0
 185              		.cfi_startproc
 186              		@ args = 0, pretend = 0, frame = 8
 187              		@ frame_needed = 1, uses_anonymous_args = 0
 188 0000 80B5     		push	{r7, lr}
 189              		.cfi_def_cfa_offset 8
 190              		.cfi_offset 7, -8
 191              		.cfi_offset 14, -4
 192 0002 82B0     		sub	sp, sp, #8
 193              		.cfi_def_cfa_offset 16
 194 0004 00AF     		add	r7, sp, #0
 195              		.cfi_def_cfa_register 7
 196 0006 0346     		mov	r3, r0
 197 0008 FB71     		strb	r3, [r7, #7]
 108:.\Generated_Source\PSoC5/CapSense_CSD_SMS_Wrapper.c ****     CapSense_CSD_ScanSensor(SensorNumber);
 198              		.loc 1 108 0
 199 000a FB79     		ldrb	r3, [r7, #7]	@ zero_extendqisi2
 200 000c 1846     		mov	r0, r3
 201 000e FFF7FEFF 		bl	CapSense_CSD_ScanSensor
 109:.\Generated_Source\PSoC5/CapSense_CSD_SMS_Wrapper.c **** }
 202              		.loc 1 109 0
 203 0012 0837     		adds	r7, r7, #8
 204              		.cfi_def_cfa_offset 8
 205 0014 BD46     		mov	sp, r7
 206              		.cfi_def_cfa_register 13
 207              		@ sp needed
 208 0016 80BD     		pop	{r7, pc}
 209              		.cfi_endproc
 210              	.LFE0:
 211              		.size	SMS_LIB_ScanSensor, .-SMS_LIB_ScanSensor
 212              		.section	.text.SMS_LIB_IsBusy,"ax",%progbits
 213              		.align	2
 214              		.global	SMS_LIB_IsBusy
 215              		.thumb
 216              		.thumb_func
 217              		.type	SMS_LIB_IsBusy, %function
 218              	SMS_LIB_IsBusy:
 219              	.LFB1:
 110:.\Generated_Source\PSoC5/CapSense_CSD_SMS_Wrapper.c **** 
 111:.\Generated_Source\PSoC5/CapSense_CSD_SMS_Wrapper.c **** /*******************************************************************************
 112:.\Generated_Source\PSoC5/CapSense_CSD_SMS_Wrapper.c **** * Function Name: SMS_LIB_IsBusy
 113:.\Generated_Source\PSoC5/CapSense_CSD_SMS_Wrapper.c **** ********************************************************************************
 114:.\Generated_Source\PSoC5/CapSense_CSD_SMS_Wrapper.c **** *
 115:.\Generated_Source\PSoC5/CapSense_CSD_SMS_Wrapper.c **** * Summary:
 116:.\Generated_Source\PSoC5/CapSense_CSD_SMS_Wrapper.c **** *  Wrapper to CapSense_CSD_IsBusy function.
 117:.\Generated_Source\PSoC5/CapSense_CSD_SMS_Wrapper.c **** *  
 118:.\Generated_Source\PSoC5/CapSense_CSD_SMS_Wrapper.c **** * Parameters:
 119:.\Generated_Source\PSoC5/CapSense_CSD_SMS_Wrapper.c **** *  None
 120:.\Generated_Source\PSoC5/CapSense_CSD_SMS_Wrapper.c **** *
 121:.\Generated_Source\PSoC5/CapSense_CSD_SMS_Wrapper.c **** * Return:
 122:.\Generated_Source\PSoC5/CapSense_CSD_SMS_Wrapper.c **** *  None
 123:.\Generated_Source\PSoC5/CapSense_CSD_SMS_Wrapper.c **** *
ARM GAS  C:\Users\mark6\AppData\Local\Temp\ccV4BkxF.s 			page 7


 124:.\Generated_Source\PSoC5/CapSense_CSD_SMS_Wrapper.c **** *******************************************************************************/
 125:.\Generated_Source\PSoC5/CapSense_CSD_SMS_Wrapper.c **** uint8 SMS_LIB_IsBusy(void) 
 126:.\Generated_Source\PSoC5/CapSense_CSD_SMS_Wrapper.c **** {
 220              		.loc 1 126 0
 221              		.cfi_startproc
 222              		@ args = 0, pretend = 0, frame = 0
 223              		@ frame_needed = 1, uses_anonymous_args = 0
 224 0000 80B5     		push	{r7, lr}
 225              		.cfi_def_cfa_offset 8
 226              		.cfi_offset 7, -8
 227              		.cfi_offset 14, -4
 228 0002 00AF     		add	r7, sp, #0
 229              		.cfi_def_cfa_register 7
 127:.\Generated_Source\PSoC5/CapSense_CSD_SMS_Wrapper.c ****     return CapSense_CSD_IsBusy();
 230              		.loc 1 127 0
 231 0004 FFF7FEFF 		bl	CapSense_CSD_IsBusy
 232 0008 0346     		mov	r3, r0
 128:.\Generated_Source\PSoC5/CapSense_CSD_SMS_Wrapper.c **** }
 233              		.loc 1 128 0
 234 000a 1846     		mov	r0, r3
 235 000c 80BD     		pop	{r7, pc}
 236              		.cfi_endproc
 237              	.LFE1:
 238              		.size	SMS_LIB_IsBusy, .-SMS_LIB_IsBusy
 239 000e 00BF     		.section	.text.CapSense_CSD_CalculateThresholds,"ax",%progbits
 240              		.align	2
 241              		.global	CapSense_CSD_CalculateThresholds
 242              		.thumb
 243              		.thumb_func
 244              		.type	CapSense_CSD_CalculateThresholds, %function
 245              	CapSense_CSD_CalculateThresholds:
 246              	.LFB2:
 129:.\Generated_Source\PSoC5/CapSense_CSD_SMS_Wrapper.c **** 
 130:.\Generated_Source\PSoC5/CapSense_CSD_SMS_Wrapper.c **** 
 131:.\Generated_Source\PSoC5/CapSense_CSD_SMS_Wrapper.c **** /*******************************************************************************
 132:.\Generated_Source\PSoC5/CapSense_CSD_SMS_Wrapper.c **** * Function Name: CapSense_CSD_CalculateThresholds
 133:.\Generated_Source\PSoC5/CapSense_CSD_SMS_Wrapper.c **** ********************************************************************************
 134:.\Generated_Source\PSoC5/CapSense_CSD_SMS_Wrapper.c **** *
 135:.\Generated_Source\PSoC5/CapSense_CSD_SMS_Wrapper.c **** * Summary:
 136:.\Generated_Source\PSoC5/CapSense_CSD_SMS_Wrapper.c **** *  Wrapper to SMS_LIB_CalculateThresholds function.
 137:.\Generated_Source\PSoC5/CapSense_CSD_SMS_Wrapper.c **** *
 138:.\Generated_Source\PSoC5/CapSense_CSD_SMS_Wrapper.c **** * Parameters:
 139:.\Generated_Source\PSoC5/CapSense_CSD_SMS_Wrapper.c **** *  SensorNumber:  Sensor number.
 140:.\Generated_Source\PSoC5/CapSense_CSD_SMS_Wrapper.c **** *
 141:.\Generated_Source\PSoC5/CapSense_CSD_SMS_Wrapper.c **** * Return:
 142:.\Generated_Source\PSoC5/CapSense_CSD_SMS_Wrapper.c **** *  None
 143:.\Generated_Source\PSoC5/CapSense_CSD_SMS_Wrapper.c **** *
 144:.\Generated_Source\PSoC5/CapSense_CSD_SMS_Wrapper.c **** * Reentrant:
 145:.\Generated_Source\PSoC5/CapSense_CSD_SMS_Wrapper.c **** *  No
 146:.\Generated_Source\PSoC5/CapSense_CSD_SMS_Wrapper.c **** *
 147:.\Generated_Source\PSoC5/CapSense_CSD_SMS_Wrapper.c **** *******************************************************************************/
 148:.\Generated_Source\PSoC5/CapSense_CSD_SMS_Wrapper.c **** void CapSense_CSD_CalculateThresholds(uint8 SensorNumber) 
 149:.\Generated_Source\PSoC5/CapSense_CSD_SMS_Wrapper.c **** {
 247              		.loc 1 149 0
 248              		.cfi_startproc
 249              		@ args = 0, pretend = 0, frame = 8
 250              		@ frame_needed = 1, uses_anonymous_args = 0
ARM GAS  C:\Users\mark6\AppData\Local\Temp\ccV4BkxF.s 			page 8


 251 0000 80B5     		push	{r7, lr}
 252              		.cfi_def_cfa_offset 8
 253              		.cfi_offset 7, -8
 254              		.cfi_offset 14, -4
 255 0002 82B0     		sub	sp, sp, #8
 256              		.cfi_def_cfa_offset 16
 257 0004 00AF     		add	r7, sp, #0
 258              		.cfi_def_cfa_register 7
 259 0006 0346     		mov	r3, r0
 260 0008 FB71     		strb	r3, [r7, #7]
 150:.\Generated_Source\PSoC5/CapSense_CSD_SMS_Wrapper.c ****     SMS_LIB_V3_50_CalculateThresholds(SensorNumber);
 261              		.loc 1 150 0
 262 000a FB79     		ldrb	r3, [r7, #7]	@ zero_extendqisi2
 263 000c 1846     		mov	r0, r3
 264 000e FFF7FEFF 		bl	SMS_LIB_V3_50_CalculateThresholds
 151:.\Generated_Source\PSoC5/CapSense_CSD_SMS_Wrapper.c **** }
 265              		.loc 1 151 0
 266 0012 0837     		adds	r7, r7, #8
 267              		.cfi_def_cfa_offset 8
 268 0014 BD46     		mov	sp, r7
 269              		.cfi_def_cfa_register 13
 270              		@ sp needed
 271 0016 80BD     		pop	{r7, pc}
 272              		.cfi_endproc
 273              	.LFE2:
 274              		.size	CapSense_CSD_CalculateThresholds, .-CapSense_CSD_CalculateThresholds
 275              		.section	.text.CapSense_CSD_AutoTune,"ax",%progbits
 276              		.align	2
 277              		.global	CapSense_CSD_AutoTune
 278              		.thumb
 279              		.thumb_func
 280              		.type	CapSense_CSD_AutoTune, %function
 281              	CapSense_CSD_AutoTune:
 282              	.LFB3:
 152:.\Generated_Source\PSoC5/CapSense_CSD_SMS_Wrapper.c **** 
 153:.\Generated_Source\PSoC5/CapSense_CSD_SMS_Wrapper.c **** 
 154:.\Generated_Source\PSoC5/CapSense_CSD_SMS_Wrapper.c **** /*******************************************************************************
 155:.\Generated_Source\PSoC5/CapSense_CSD_SMS_Wrapper.c **** * Function Name: CapSense_CSD_AutoTune
 156:.\Generated_Source\PSoC5/CapSense_CSD_SMS_Wrapper.c **** ********************************************************************************
 157:.\Generated_Source\PSoC5/CapSense_CSD_SMS_Wrapper.c **** *
 158:.\Generated_Source\PSoC5/CapSense_CSD_SMS_Wrapper.c **** * Summary:
 159:.\Generated_Source\PSoC5/CapSense_CSD_SMS_Wrapper.c **** *  Wrapper for SMS_LIB_AutoTune1Ch or SMS_LIB_AutoTune2Ch function.
 160:.\Generated_Source\PSoC5/CapSense_CSD_SMS_Wrapper.c **** *
 161:.\Generated_Source\PSoC5/CapSense_CSD_SMS_Wrapper.c **** * Parameters:
 162:.\Generated_Source\PSoC5/CapSense_CSD_SMS_Wrapper.c **** *  None
 163:.\Generated_Source\PSoC5/CapSense_CSD_SMS_Wrapper.c **** *
 164:.\Generated_Source\PSoC5/CapSense_CSD_SMS_Wrapper.c **** * Return:
 165:.\Generated_Source\PSoC5/CapSense_CSD_SMS_Wrapper.c **** *  None
 166:.\Generated_Source\PSoC5/CapSense_CSD_SMS_Wrapper.c **** *
 167:.\Generated_Source\PSoC5/CapSense_CSD_SMS_Wrapper.c **** * Reentrant:
 168:.\Generated_Source\PSoC5/CapSense_CSD_SMS_Wrapper.c **** *  No
 169:.\Generated_Source\PSoC5/CapSense_CSD_SMS_Wrapper.c **** *
 170:.\Generated_Source\PSoC5/CapSense_CSD_SMS_Wrapper.c **** *******************************************************************************/
 171:.\Generated_Source\PSoC5/CapSense_CSD_SMS_Wrapper.c **** void CapSense_CSD_AutoTune(void) 
 172:.\Generated_Source\PSoC5/CapSense_CSD_SMS_Wrapper.c **** {
 283              		.loc 1 172 0
 284              		.cfi_startproc
ARM GAS  C:\Users\mark6\AppData\Local\Temp\ccV4BkxF.s 			page 9


 285              		@ args = 0, pretend = 0, frame = 0
 286              		@ frame_needed = 1, uses_anonymous_args = 0
 287 0000 80B5     		push	{r7, lr}
 288              		.cfi_def_cfa_offset 8
 289              		.cfi_offset 7, -8
 290              		.cfi_offset 14, -4
 291 0002 00AF     		add	r7, sp, #0
 292              		.cfi_def_cfa_register 7
 173:.\Generated_Source\PSoC5/CapSense_CSD_SMS_Wrapper.c ****     #if (CapSense_CSD_DESIGN_TYPE == CapSense_CSD_ONE_CHANNEL_DESIGN)
 174:.\Generated_Source\PSoC5/CapSense_CSD_SMS_Wrapper.c ****         SMS_LIB_V3_50_AutoTune1Ch();
 293              		.loc 1 174 0
 294 0004 FFF7FEFF 		bl	SMS_LIB_V3_50_AutoTune1Ch
 175:.\Generated_Source\PSoC5/CapSense_CSD_SMS_Wrapper.c ****     #elif (CapSense_CSD_DESIGN_TYPE == CapSense_CSD_TWO_CHANNELS_DESIGN)
 176:.\Generated_Source\PSoC5/CapSense_CSD_SMS_Wrapper.c ****         SMS_LIB_V3_50_AutoTune2Ch();
 177:.\Generated_Source\PSoC5/CapSense_CSD_SMS_Wrapper.c ****     #endif /* (CapSense_CSD_DESIGN_TYPE == CapSense_CSD_ONE_CHANNEL_DESIGN) */
 178:.\Generated_Source\PSoC5/CapSense_CSD_SMS_Wrapper.c **** }
 295              		.loc 1 178 0
 296 0008 80BD     		pop	{r7, pc}
 297              		.cfi_endproc
 298              	.LFE3:
 299              		.size	CapSense_CSD_AutoTune, .-CapSense_CSD_AutoTune
 300 000a 00BF     		.section	.text.SMS_LIB_SetPrescaler,"ax",%progbits
 301              		.align	2
 302              		.global	SMS_LIB_SetPrescaler
 303              		.thumb
 304              		.thumb_func
 305              		.type	SMS_LIB_SetPrescaler, %function
 306              	SMS_LIB_SetPrescaler:
 307              	.LFB4:
 179:.\Generated_Source\PSoC5/CapSense_CSD_SMS_Wrapper.c **** 
 180:.\Generated_Source\PSoC5/CapSense_CSD_SMS_Wrapper.c **** /*******************************************************************************
 181:.\Generated_Source\PSoC5/CapSense_CSD_SMS_Wrapper.c **** * Function Name: SMS_LIB_SetPrescaler
 182:.\Generated_Source\PSoC5/CapSense_CSD_SMS_Wrapper.c **** ********************************************************************************
 183:.\Generated_Source\PSoC5/CapSense_CSD_SMS_Wrapper.c **** *
 184:.\Generated_Source\PSoC5/CapSense_CSD_SMS_Wrapper.c **** * Summary:
 185:.\Generated_Source\PSoC5/CapSense_CSD_SMS_Wrapper.c **** *  Empty wrapper for version compliance.
 186:.\Generated_Source\PSoC5/CapSense_CSD_SMS_Wrapper.c **** *
 187:.\Generated_Source\PSoC5/CapSense_CSD_SMS_Wrapper.c **** * Parameters:
 188:.\Generated_Source\PSoC5/CapSense_CSD_SMS_Wrapper.c **** *  prescaler:  prascaler value.
 189:.\Generated_Source\PSoC5/CapSense_CSD_SMS_Wrapper.c **** *
 190:.\Generated_Source\PSoC5/CapSense_CSD_SMS_Wrapper.c **** * Return:
 191:.\Generated_Source\PSoC5/CapSense_CSD_SMS_Wrapper.c **** *  None
 192:.\Generated_Source\PSoC5/CapSense_CSD_SMS_Wrapper.c **** *
 193:.\Generated_Source\PSoC5/CapSense_CSD_SMS_Wrapper.c **** *******************************************************************************/
 194:.\Generated_Source\PSoC5/CapSense_CSD_SMS_Wrapper.c **** void SMS_LIB_SetPrescaler(uint8 prescaler) 
 195:.\Generated_Source\PSoC5/CapSense_CSD_SMS_Wrapper.c **** {
 308              		.loc 1 195 0
 309              		.cfi_startproc
 310              		@ args = 0, pretend = 0, frame = 8
 311              		@ frame_needed = 1, uses_anonymous_args = 0
 312              		@ link register save eliminated.
 313 0000 80B4     		push	{r7}
 314              		.cfi_def_cfa_offset 4
 315              		.cfi_offset 7, -4
 316 0002 83B0     		sub	sp, sp, #12
 317              		.cfi_def_cfa_offset 16
 318 0004 00AF     		add	r7, sp, #0
ARM GAS  C:\Users\mark6\AppData\Local\Temp\ccV4BkxF.s 			page 10


 319              		.cfi_def_cfa_register 7
 320 0006 0346     		mov	r3, r0
 321 0008 FB71     		strb	r3, [r7, #7]
 196:.\Generated_Source\PSoC5/CapSense_CSD_SMS_Wrapper.c ****     prescaler = prescaler;
 197:.\Generated_Source\PSoC5/CapSense_CSD_SMS_Wrapper.c **** }
 322              		.loc 1 197 0
 323 000a 0C37     		adds	r7, r7, #12
 324              		.cfi_def_cfa_offset 4
 325 000c BD46     		mov	sp, r7
 326              		.cfi_def_cfa_register 13
 327              		@ sp needed
 328 000e 5DF8047B 		ldr	r7, [sp], #4
 329              		.cfi_restore 7
 330              		.cfi_def_cfa_offset 0
 331 0012 7047     		bx	lr
 332              		.cfi_endproc
 333              	.LFE4:
 334              		.size	SMS_LIB_SetPrescaler, .-SMS_LIB_SetPrescaler
 335              		.section	.text.SMS_LIB_V3_50_SetAnalogSwitchesSrc_PRS,"ax",%progbits
 336              		.align	2
 337              		.global	SMS_LIB_V3_50_SetAnalogSwitchesSrc_PRS
 338              		.thumb
 339              		.thumb_func
 340              		.type	SMS_LIB_V3_50_SetAnalogSwitchesSrc_PRS, %function
 341              	SMS_LIB_V3_50_SetAnalogSwitchesSrc_PRS:
 342              	.LFB5:
 198:.\Generated_Source\PSoC5/CapSense_CSD_SMS_Wrapper.c **** 
 199:.\Generated_Source\PSoC5/CapSense_CSD_SMS_Wrapper.c **** void SMS_LIB_V3_50_SetAnalogSwitchesSrc_PRS(void) 
 200:.\Generated_Source\PSoC5/CapSense_CSD_SMS_Wrapper.c **** {
 343              		.loc 1 200 0
 344              		.cfi_startproc
 345              		@ args = 0, pretend = 0, frame = 0
 346              		@ frame_needed = 1, uses_anonymous_args = 0
 347 0000 80B5     		push	{r7, lr}
 348              		.cfi_def_cfa_offset 8
 349              		.cfi_offset 7, -8
 350              		.cfi_offset 14, -4
 351 0002 00AF     		add	r7, sp, #0
 352              		.cfi_def_cfa_register 7
 201:.\Generated_Source\PSoC5/CapSense_CSD_SMS_Wrapper.c **** 	CapSense_CSD_SetAnalogSwitchesSource(CapSense_CSD_ANALOG_SWITCHES_SRC_PRS);
 353              		.loc 1 201 0
 354 0004 0220     		movs	r0, #2
 355 0006 FFF7FEFF 		bl	CapSense_CSD_SetAnalogSwitchesSource
 202:.\Generated_Source\PSoC5/CapSense_CSD_SMS_Wrapper.c **** }
 356              		.loc 1 202 0
 357 000a 80BD     		pop	{r7, pc}
 358              		.cfi_endproc
 359              	.LFE5:
 360              		.size	SMS_LIB_V3_50_SetAnalogSwitchesSrc_PRS, .-SMS_LIB_V3_50_SetAnalogSwitchesSrc_PRS
 361              		.section	.text.SMS_LIB_V3_50_SetAnalogSwitchesSrc_Prescaler,"ax",%progbits
 362              		.align	2
 363              		.global	SMS_LIB_V3_50_SetAnalogSwitchesSrc_Prescaler
 364              		.thumb
 365              		.thumb_func
 366              		.type	SMS_LIB_V3_50_SetAnalogSwitchesSrc_Prescaler, %function
 367              	SMS_LIB_V3_50_SetAnalogSwitchesSrc_Prescaler:
 368              	.LFB6:
ARM GAS  C:\Users\mark6\AppData\Local\Temp\ccV4BkxF.s 			page 11


 203:.\Generated_Source\PSoC5/CapSense_CSD_SMS_Wrapper.c **** 
 204:.\Generated_Source\PSoC5/CapSense_CSD_SMS_Wrapper.c **** void SMS_LIB_V3_50_SetAnalogSwitchesSrc_Prescaler(void) 
 205:.\Generated_Source\PSoC5/CapSense_CSD_SMS_Wrapper.c **** {
 369              		.loc 1 205 0
 370              		.cfi_startproc
 371              		@ args = 0, pretend = 0, frame = 0
 372              		@ frame_needed = 1, uses_anonymous_args = 0
 373 0000 80B5     		push	{r7, lr}
 374              		.cfi_def_cfa_offset 8
 375              		.cfi_offset 7, -8
 376              		.cfi_offset 14, -4
 377 0002 00AF     		add	r7, sp, #0
 378              		.cfi_def_cfa_register 7
 206:.\Generated_Source\PSoC5/CapSense_CSD_SMS_Wrapper.c **** 	CapSense_CSD_SetAnalogSwitchesSource(CapSense_CSD_ANALOG_SWITCHES_SRC_PRESCALER);
 379              		.loc 1 206 0
 380 0004 0120     		movs	r0, #1
 381 0006 FFF7FEFF 		bl	CapSense_CSD_SetAnalogSwitchesSource
 207:.\Generated_Source\PSoC5/CapSense_CSD_SMS_Wrapper.c **** }
 382              		.loc 1 207 0
 383 000a 80BD     		pop	{r7, pc}
 384              		.cfi_endproc
 385              	.LFE6:
 386              		.size	SMS_LIB_V3_50_SetAnalogSwitchesSrc_Prescaler, .-SMS_LIB_V3_50_SetAnalogSwitchesSrc_Prescaler
 387              		.text
 388              	.Letext0:
 389              		.file 2 ".\\Generated_Source\\PSoC5\\cytypes.h"
 390              		.file 3 ".\\Generated_Source\\PSoC5\\CapSense_CSD.h"
 391              		.file 4 ".\\Generated_Source\\PSoC5\\CapSense_CSD_CSHL.h"