ARM GAS  C:\Users\mark6\AppData\Local\Temp\ccG3DDgg.s 			page 1


   1              		.syntax unified
   2              		.cpu cortex-m3
   3              		.fpu softvfp
   4              		.eabi_attribute 20, 1
   5              		.eabi_attribute 21, 1
   6              		.eabi_attribute 23, 3
   7              		.eabi_attribute 24, 1
   8              		.eabi_attribute 25, 1
   9              		.eabi_attribute 26, 1
  10              		.eabi_attribute 30, 6
  11              		.eabi_attribute 34, 1
  12              		.eabi_attribute 18, 4
  13              		.thumb
  14              		.file	"CapSense_CSD.c"
  15              		.text
  16              	.Ltext0:
  17              		.cfi_sections	.debug_frame
  18              		.bss
  19              	CapSense_CSD_initVar:
  20 0000 00       		.space	1
  21              		.comm	CapSense_CSD_csv,1,1
  22              		.comm	CapSense_CSD_sensorIndex,1,1
  23              		.global	CapSense_CSD_lowLevelTuningDone
  24              		.data
  25              		.type	CapSense_CSD_lowLevelTuningDone, %object
  26              		.size	CapSense_CSD_lowLevelTuningDone, 1
  27              	CapSense_CSD_lowLevelTuningDone:
  28 0000 01       		.byte	1
  29              		.comm	CapSense_CSD_sensorRaw,2,4
  30              		.global	CapSense_CSD_sensorEnableMask
  31 0001 000000   		.align	2
  32              		.type	CapSense_CSD_sensorEnableMask, %object
  33              		.size	CapSense_CSD_sensorEnableMask, 1
  34              	CapSense_CSD_sensorEnableMask:
  35 0004 01       		.byte	1
  36              		.global	CapSense_CSD_pcTable
  37              		.section	.rodata
  38              		.align	2
  39              		.type	CapSense_CSD_pcTable, %object
  40              		.size	CapSense_CSD_pcTable, 4
  41              	CapSense_CSD_pcTable:
  42 0000 2D500040 		.word	1073762349
  43              		.global	CapSense_CSD_portTable
  44              		.align	2
  45              		.type	CapSense_CSD_portTable, %object
  46              		.size	CapSense_CSD_portTable, 1
  47              	CapSense_CSD_portTable:
  48 0004 05       		.byte	5
  49              		.global	CapSense_CSD_maskTable
  50 0005 000000   		.align	2
  51              		.type	CapSense_CSD_maskTable, %object
  52              		.size	CapSense_CSD_maskTable, 1
  53              	CapSense_CSD_maskTable:
  54 0008 20       		.byte	32
  55              		.global	CapSense_CSD_csTable
  56 0009 000000   		.align	2
  57              		.type	CapSense_CSD_csTable, %object
ARM GAS  C:\Users\mark6\AppData\Local\Temp\ccG3DDgg.s 			page 2


  58              		.size	CapSense_CSD_csTable, 32
  59              	CapSense_CSD_csTable:
  60 000c 06520040 		.word	1073762822
  61 0010 0E520040 		.word	1073762830
  62 0014 16520040 		.word	1073762838
  63 0018 1E520040 		.word	1073762846
  64 001c 26520040 		.word	1073762854
  65 0020 2E520040 		.word	1073762862
  66 0024 36520040 		.word	1073762870
  67 0028 7E520040 		.word	1073762942
  68              		.global	CapSense_CSD_idacSettings
  69              		.data
  70 0005 000000   		.align	2
  71              		.type	CapSense_CSD_idacSettings, %object
  72              		.size	CapSense_CSD_idacSettings, 1
  73              	CapSense_CSD_idacSettings:
  74 0008 C8       		.byte	-56
  75              		.global	CapSense_CSD_widgetResolution
  76 0009 000000   		.align	2
  77              		.type	CapSense_CSD_widgetResolution, %object
  78              		.size	CapSense_CSD_widgetResolution, 1
  79              	CapSense_CSD_widgetResolution:
  80 000c 03       		.byte	3
  81              		.comm	CapSense_CSD_analogSwitchDivider,1,4
  82              		.global	CapSense_CSD_widgetNumber
  83 000d 000000   		.section	.rodata
  84              		.align	2
  85              		.type	CapSense_CSD_widgetNumber, %object
  86              		.size	CapSense_CSD_widgetNumber, 1
  87              	CapSense_CSD_widgetNumber:
  88 002c 00       		.space	1
  89 002d 000000   		.section	.text.CapSense_CSD_Init,"ax",%progbits
  90              		.align	2
  91              		.global	CapSense_CSD_Init
  92              		.thumb
  93              		.thumb_func
  94              		.type	CapSense_CSD_Init, %function
  95              	CapSense_CSD_Init:
  96              	.LFB0:
  97              		.file 1 ".\\Generated_Source\\PSoC5\\CapSense_CSD.c"
   1:.\Generated_Source\PSoC5/CapSense_CSD.c **** /*******************************************************************************
   2:.\Generated_Source\PSoC5/CapSense_CSD.c **** * File Name: CapSense_CSD.c
   3:.\Generated_Source\PSoC5/CapSense_CSD.c **** * Version 3.50
   4:.\Generated_Source\PSoC5/CapSense_CSD.c **** *
   5:.\Generated_Source\PSoC5/CapSense_CSD.c **** * Description:
   6:.\Generated_Source\PSoC5/CapSense_CSD.c **** *  This file provides the source code of scanning APIs for the CapSense CSD 
   7:.\Generated_Source\PSoC5/CapSense_CSD.c **** *  component.
   8:.\Generated_Source\PSoC5/CapSense_CSD.c **** *
   9:.\Generated_Source\PSoC5/CapSense_CSD.c **** * Note:
  10:.\Generated_Source\PSoC5/CapSense_CSD.c **** *
  11:.\Generated_Source\PSoC5/CapSense_CSD.c **** ********************************************************************************
  12:.\Generated_Source\PSoC5/CapSense_CSD.c **** * Copyright 2008-2013, Cypress Semiconductor Corporation.  All rights reserved.
  13:.\Generated_Source\PSoC5/CapSense_CSD.c **** * You may use this file only in accordance with the license, terms, conditions,
  14:.\Generated_Source\PSoC5/CapSense_CSD.c **** * disclaimers, and limitations in the end user license agreement accompanying
  15:.\Generated_Source\PSoC5/CapSense_CSD.c **** * the software package with which this file was provided.
  16:.\Generated_Source\PSoC5/CapSense_CSD.c **** *******************************************************************************/
  17:.\Generated_Source\PSoC5/CapSense_CSD.c **** 
ARM GAS  C:\Users\mark6\AppData\Local\Temp\ccG3DDgg.s 			page 3


  18:.\Generated_Source\PSoC5/CapSense_CSD.c **** #include "CapSense_CSD.h"
  19:.\Generated_Source\PSoC5/CapSense_CSD.c **** 
  20:.\Generated_Source\PSoC5/CapSense_CSD.c **** 
  21:.\Generated_Source\PSoC5/CapSense_CSD.c **** 
  22:.\Generated_Source\PSoC5/CapSense_CSD.c **** static uint8 CapSense_CSD_initVar = 0u;
  23:.\Generated_Source\PSoC5/CapSense_CSD.c ****             
  24:.\Generated_Source\PSoC5/CapSense_CSD.c **** /* Global software variables */
  25:.\Generated_Source\PSoC5/CapSense_CSD.c **** volatile uint8 CapSense_CSD_csv;            /* CapSense CSD status, control variable */
  26:.\Generated_Source\PSoC5/CapSense_CSD.c **** volatile uint8 CapSense_CSD_sensorIndex;    /* Index of scannig sensor */
  27:.\Generated_Source\PSoC5/CapSense_CSD.c **** 
  28:.\Generated_Source\PSoC5/CapSense_CSD.c **** /* AutoTunning start */
  29:.\Generated_Source\PSoC5/CapSense_CSD.c **** #if (CapSense_CSD_TUNING_METHOD == CapSense_CSD_AUTO_TUNING)
  30:.\Generated_Source\PSoC5/CapSense_CSD.c ****     uint8 CapSense_CSD_lowLevelTuningDone = 1u;
  31:.\Generated_Source\PSoC5/CapSense_CSD.c **** #endif /* (CapSense_CSD_TUNING_METHOD == CapSense_CSD_AUTO_TUNING) */
  32:.\Generated_Source\PSoC5/CapSense_CSD.c **** 
  33:.\Generated_Source\PSoC5/CapSense_CSD.c **** #if (CapSense_CSD_CURRENT_SOURCE == CapSense_CSD_EXTERNAL_RB)
  34:.\Generated_Source\PSoC5/CapSense_CSD.c ****     uint8  CapSense_CSD_extRbCh0Cur = CapSense_CSD_RBLEED1;
  35:.\Generated_Source\PSoC5/CapSense_CSD.c ****     #if (CapSense_CSD_DESIGN_TYPE == CapSense_CSD_TWO_CHANNELS_DESIGN)
  36:.\Generated_Source\PSoC5/CapSense_CSD.c ****         uint8  CapSense_CSD_extRbCh1Cur = (CapSense_CSD_RBLEED1 + CapSense_CSD_TOTAL_RB_NUMBER__CH0
  37:.\Generated_Source\PSoC5/CapSense_CSD.c ****     #endif /* (CapSense_CSD_DESIGN_TYPE == CapSense_CSD_TWO_CHANNELS_DESIGN)*/ 
  38:.\Generated_Source\PSoC5/CapSense_CSD.c **** #endif /* (CapSense_CSD_CURRENT_SOURCE == CapSense_CSD_EXTERNAL_RB) */ 
  39:.\Generated_Source\PSoC5/CapSense_CSD.c ****         
  40:.\Generated_Source\PSoC5/CapSense_CSD.c **** /* Global array of Raw Counts */
  41:.\Generated_Source\PSoC5/CapSense_CSD.c **** uint16 CapSense_CSD_sensorRaw[CapSense_CSD_TOTAL_SENSOR_COUNT]; 
  42:.\Generated_Source\PSoC5/CapSense_CSD.c **** 
  43:.\Generated_Source\PSoC5/CapSense_CSD.c **** uint8 CapSense_CSD_sensorEnableMask[(((CapSense_CSD_TOTAL_SENSOR_COUNT - 1u) / 8u) + 1u)] = {
  44:.\Generated_Source\PSoC5/CapSense_CSD.c **** 0x1u, };
  45:.\Generated_Source\PSoC5/CapSense_CSD.c **** 
  46:.\Generated_Source\PSoC5/CapSense_CSD.c **** uint8 CYXDATA * const CYCODE CapSense_CSD_pcTable[] = {
  47:.\Generated_Source\PSoC5/CapSense_CSD.c ****     (uint8 CYXDATA *)CapSense_CSD_PortCH0__Button0__BTN__PC, 
  48:.\Generated_Source\PSoC5/CapSense_CSD.c **** };
  49:.\Generated_Source\PSoC5/CapSense_CSD.c **** 
  50:.\Generated_Source\PSoC5/CapSense_CSD.c **** const uint8 CYCODE CapSense_CSD_portTable[] = {
  51:.\Generated_Source\PSoC5/CapSense_CSD.c ****     CapSense_CSD_PortCH0__Button0__BTN__PORT, 
  52:.\Generated_Source\PSoC5/CapSense_CSD.c **** };
  53:.\Generated_Source\PSoC5/CapSense_CSD.c **** 
  54:.\Generated_Source\PSoC5/CapSense_CSD.c **** const uint8 CYCODE CapSense_CSD_maskTable[] = {
  55:.\Generated_Source\PSoC5/CapSense_CSD.c ****     CapSense_CSD_PortCH0__Button0__BTN__MASK,
  56:.\Generated_Source\PSoC5/CapSense_CSD.c **** };
  57:.\Generated_Source\PSoC5/CapSense_CSD.c **** 
  58:.\Generated_Source\PSoC5/CapSense_CSD.c **** uint8 CYXDATA * const CYCODE CapSense_CSD_csTable[] = {
  59:.\Generated_Source\PSoC5/CapSense_CSD.c ****     (uint8 CYXDATA *)CYREG_PRT0_CAPS_SEL, (uint8 CYXDATA *)CYREG_PRT1_CAPS_SEL, (uint8 CYXDATA *)CY
  60:.\Generated_Source\PSoC5/CapSense_CSD.c ****     (uint8 CYXDATA *)CYREG_PRT3_CAPS_SEL, (uint8 CYXDATA *)CYREG_PRT4_CAPS_SEL, (uint8 CYXDATA *)CY
  61:.\Generated_Source\PSoC5/CapSense_CSD.c ****     (uint8 CYXDATA *)CYREG_PRT6_CAPS_SEL, (uint8 CYXDATA *)CYREG_PRT15_CAPS_SEL,
  62:.\Generated_Source\PSoC5/CapSense_CSD.c **** };
  63:.\Generated_Source\PSoC5/CapSense_CSD.c **** 
  64:.\Generated_Source\PSoC5/CapSense_CSD.c **** uint8 CapSense_CSD_idacSettings[] = {
  65:.\Generated_Source\PSoC5/CapSense_CSD.c ****     200u,
  66:.\Generated_Source\PSoC5/CapSense_CSD.c **** };
  67:.\Generated_Source\PSoC5/CapSense_CSD.c **** 
  68:.\Generated_Source\PSoC5/CapSense_CSD.c **** uint8 CapSense_CSD_widgetResolution[] = {
  69:.\Generated_Source\PSoC5/CapSense_CSD.c ****     CapSense_CSD_PWM_RESOLUTION_10_BITS,
  70:.\Generated_Source\PSoC5/CapSense_CSD.c **** };
  71:.\Generated_Source\PSoC5/CapSense_CSD.c **** 
  72:.\Generated_Source\PSoC5/CapSense_CSD.c **** uint8 CapSense_CSD_analogSwitchDivider[CapSense_CSD_TOTAL_SCANSLOT_COUNT];
  73:.\Generated_Source\PSoC5/CapSense_CSD.c **** const uint8 CYCODE CapSense_CSD_widgetNumber[] = {
  74:.\Generated_Source\PSoC5/CapSense_CSD.c ****     0u, /* Button0__BTN */
ARM GAS  C:\Users\mark6\AppData\Local\Temp\ccG3DDgg.s 			page 4


  75:.\Generated_Source\PSoC5/CapSense_CSD.c ****     
  76:.\Generated_Source\PSoC5/CapSense_CSD.c **** };
  77:.\Generated_Source\PSoC5/CapSense_CSD.c **** 
  78:.\Generated_Source\PSoC5/CapSense_CSD.c **** 
  79:.\Generated_Source\PSoC5/CapSense_CSD.c **** 
  80:.\Generated_Source\PSoC5/CapSense_CSD.c **** 
  81:.\Generated_Source\PSoC5/CapSense_CSD.c **** /*******************************************************************************
  82:.\Generated_Source\PSoC5/CapSense_CSD.c **** * Function Name: CapSense_CSD_Init
  83:.\Generated_Source\PSoC5/CapSense_CSD.c **** ********************************************************************************
  84:.\Generated_Source\PSoC5/CapSense_CSD.c **** *
  85:.\Generated_Source\PSoC5/CapSense_CSD.c **** * Summary:
  86:.\Generated_Source\PSoC5/CapSense_CSD.c **** *  Inits default CapSense configuration provided with customizer that defines 
  87:.\Generated_Source\PSoC5/CapSense_CSD.c **** *  mode of component operations and resets all sensors to an inactive state.
  88:.\Generated_Source\PSoC5/CapSense_CSD.c **** *
  89:.\Generated_Source\PSoC5/CapSense_CSD.c **** * Parameters:
  90:.\Generated_Source\PSoC5/CapSense_CSD.c **** *  None
  91:.\Generated_Source\PSoC5/CapSense_CSD.c **** *
  92:.\Generated_Source\PSoC5/CapSense_CSD.c **** * Return:
  93:.\Generated_Source\PSoC5/CapSense_CSD.c **** *  None
  94:.\Generated_Source\PSoC5/CapSense_CSD.c **** *
  95:.\Generated_Source\PSoC5/CapSense_CSD.c **** *******************************************************************************/
  96:.\Generated_Source\PSoC5/CapSense_CSD.c **** void CapSense_CSD_Init(void) 
  97:.\Generated_Source\PSoC5/CapSense_CSD.c **** {
  98              		.loc 1 97 0
  99              		.cfi_startproc
 100              		@ args = 0, pretend = 0, frame = 8
 101              		@ frame_needed = 1, uses_anonymous_args = 0
 102 0000 80B5     		push	{r7, lr}
 103              		.cfi_def_cfa_offset 8
 104              		.cfi_offset 7, -8
 105              		.cfi_offset 14, -4
 106 0002 82B0     		sub	sp, sp, #8
 107              		.cfi_def_cfa_offset 16
 108 0004 00AF     		add	r7, sp, #0
 109              		.cfi_def_cfa_register 7
  98:.\Generated_Source\PSoC5/CapSense_CSD.c ****     #if ( (CapSense_CSD_PRS_OPTIONS) || \
  99:.\Generated_Source\PSoC5/CapSense_CSD.c ****           (CapSense_CSD_IMPLEMENTATION_CH0 == CapSense_CSD_MEASURE_IMPLEMENTATION_UDB) || \
 100:.\Generated_Source\PSoC5/CapSense_CSD.c ****           ( (CapSense_CSD_DESIGN_TYPE == CapSense_CSD_TWO_CHANNELS_DESIGN) && \
 101:.\Generated_Source\PSoC5/CapSense_CSD.c ****             (CapSense_CSD_IMPLEMENTATION_CH1 == CapSense_CSD_MEASURE_IMPLEMENTATION_UDB)) )
 102:.\Generated_Source\PSoC5/CapSense_CSD.c ****         
 103:.\Generated_Source\PSoC5/CapSense_CSD.c ****         uint8 enableInterrupts;
 104:.\Generated_Source\PSoC5/CapSense_CSD.c ****     #endif /* ( (CapSense_CSD_PRS_OPTIONS) || \
 105:.\Generated_Source\PSoC5/CapSense_CSD.c ****            * (CapSense_CSD_IMPLEMENTATION_CH0 == CapSense_CSD_MEASURE_IMPLEMENTATION_UDB) || \
 106:.\Generated_Source\PSoC5/CapSense_CSD.c ****            * ( (CapSense_CSD_DESIGN_TYPE == CapSense_CSD_TWO_CHANNELS_DESIGN) && \
 107:.\Generated_Source\PSoC5/CapSense_CSD.c ****            * (CapSense_CSD_IMPLEMENTATION_CH1 == CapSense_CSD_MEASURE_IMPLEMENTATION_UDB)) ) 
 108:.\Generated_Source\PSoC5/CapSense_CSD.c ****            */
 109:.\Generated_Source\PSoC5/CapSense_CSD.c ****     
 110:.\Generated_Source\PSoC5/CapSense_CSD.c ****     /* Clear all sensors */
 111:.\Generated_Source\PSoC5/CapSense_CSD.c ****     CapSense_CSD_ClearSensors();
 110              		.loc 1 111 0
 111 0006 FFF7FEFF 		bl	CapSense_CSD_ClearSensors
 112:.\Generated_Source\PSoC5/CapSense_CSD.c **** 
 113:.\Generated_Source\PSoC5/CapSense_CSD.c ****     /* Set Prescaler */
 114:.\Generated_Source\PSoC5/CapSense_CSD.c ****     #if (CapSense_CSD_PRESCALER_OPTIONS == CapSense_CSD_PRESCALER_UDB)
 115:.\Generated_Source\PSoC5/CapSense_CSD.c ****         /* Do nothing = config without prescaler */
 116:.\Generated_Source\PSoC5/CapSense_CSD.c ****     #elif (CapSense_CSD_PRESCALER_OPTIONS == CapSense_CSD_PRESCALER_FF)
 117:.\Generated_Source\PSoC5/CapSense_CSD.c ****         CapSense_CSD_PRESCALER_CONTROL_REG   = (CapSense_CSD_PRESCALER_CTRL_ENABLE |
ARM GAS  C:\Users\mark6\AppData\Local\Temp\ccG3DDgg.s 			page 5


 118:.\Generated_Source\PSoC5/CapSense_CSD.c ****                                                     CapSense_CSD_PRESCALER_CTRL_MODE_CMP);
 119:.\Generated_Source\PSoC5/CapSense_CSD.c ****                                                
 120:.\Generated_Source\PSoC5/CapSense_CSD.c ****         CapSense_CSD_PRESCALER_CONTROL2_REG |= CapSense_CSD_PRESCALER_CTRL_CMP_LESS_EQ;
 121:.\Generated_Source\PSoC5/CapSense_CSD.c ****     #else
 122:.\Generated_Source\PSoC5/CapSense_CSD.c ****         /* Do nothing = config without prescaler */
 123:.\Generated_Source\PSoC5/CapSense_CSD.c ****     #endif  /* (CapSense_CSD_PRESCALER_OPTIONS == CapSense_CSD_PRESCALER_UDB) */
 124:.\Generated_Source\PSoC5/CapSense_CSD.c **** 
 125:.\Generated_Source\PSoC5/CapSense_CSD.c ****     /* Set PRS */
 126:.\Generated_Source\PSoC5/CapSense_CSD.c ****     #if (CapSense_CSD_PRS_OPTIONS)
 127:.\Generated_Source\PSoC5/CapSense_CSD.c ****         CapSense_CSD_SetAnalogSwitchesSource(CapSense_CSD_ANALOG_SWITCHES_SRC_PRS);
 112              		.loc 1 127 0
 113 000a 0220     		movs	r0, #2
 114 000c FFF7FEFF 		bl	CapSense_CSD_SetAnalogSwitchesSource
 128:.\Generated_Source\PSoC5/CapSense_CSD.c ****     #endif /* (CapSense_CSD_PRS_OPTIONS) */
 129:.\Generated_Source\PSoC5/CapSense_CSD.c **** 
 130:.\Generated_Source\PSoC5/CapSense_CSD.c ****     #if (CapSense_CSD_PRS_OPTIONS == CapSense_CSD_PRS_8BITS)
 131:.\Generated_Source\PSoC5/CapSense_CSD.c ****         /* Aux control set FIFO as REG */
 132:.\Generated_Source\PSoC5/CapSense_CSD.c ****         enableInterrupts = CyEnterCriticalSection();
 133:.\Generated_Source\PSoC5/CapSense_CSD.c ****         CapSense_CSD_AUX_CONTROL_A_REG |= CapSense_CSD_AUXCTRL_FIFO_SINGLE_REG;
 134:.\Generated_Source\PSoC5/CapSense_CSD.c ****         CyExitCriticalSection(enableInterrupts);
 135:.\Generated_Source\PSoC5/CapSense_CSD.c ****         
 136:.\Generated_Source\PSoC5/CapSense_CSD.c ****         /* Write polynomial */
 137:.\Generated_Source\PSoC5/CapSense_CSD.c ****         CapSense_CSD_POLYNOM_REG   = CapSense_CSD_PRS8_DEFAULT_POLYNOM;
 138:.\Generated_Source\PSoC5/CapSense_CSD.c ****         /* Write FIFO with seed */
 139:.\Generated_Source\PSoC5/CapSense_CSD.c ****         CapSense_CSD_SEED_COPY_REG = CapSense_CSD_MEASURE_FULL_RANGE_LOW;
 140:.\Generated_Source\PSoC5/CapSense_CSD.c ****         
 141:.\Generated_Source\PSoC5/CapSense_CSD.c ****     #elif (CapSense_CSD_PRS_OPTIONS == CapSense_CSD_PRS_16BITS)
 142:.\Generated_Source\PSoC5/CapSense_CSD.c ****         /* Aux control set FIFO as REG */ 
 143:.\Generated_Source\PSoC5/CapSense_CSD.c ****         enableInterrupts = CyEnterCriticalSection();  
 115              		.loc 1 143 0
 116 0010 FFF7FEFF 		bl	CyEnterCriticalSection
 117 0014 0346     		mov	r3, r0
 118 0016 FB71     		strb	r3, [r7, #7]
 144:.\Generated_Source\PSoC5/CapSense_CSD.c ****         CapSense_CSD_AUX_CONTROL_A_REG |= CapSense_CSD_AUXCTRL_FIFO_SINGLE_REG;
 119              		.loc 1 144 0
 120 0018 3B4A     		ldr	r2, .L2
 121 001a 3B4B     		ldr	r3, .L2
 122 001c 1B78     		ldrb	r3, [r3]
 123 001e DBB2     		uxtb	r3, r3
 124 0020 43F00303 		orr	r3, r3, #3
 125 0024 DBB2     		uxtb	r3, r3
 126 0026 1370     		strb	r3, [r2]
 145:.\Generated_Source\PSoC5/CapSense_CSD.c ****         CapSense_CSD_AUX_CONTROL_B_REG |= CapSense_CSD_AUXCTRL_FIFO_SINGLE_REG;
 127              		.loc 1 145 0
 128 0028 384A     		ldr	r2, .L2+4
 129 002a 384B     		ldr	r3, .L2+4
 130 002c 1B78     		ldrb	r3, [r3]
 131 002e DBB2     		uxtb	r3, r3
 132 0030 43F00303 		orr	r3, r3, #3
 133 0034 DBB2     		uxtb	r3, r3
 134 0036 1370     		strb	r3, [r2]
 146:.\Generated_Source\PSoC5/CapSense_CSD.c ****         CyExitCriticalSection(enableInterrupts);
 135              		.loc 1 146 0
 136 0038 FB79     		ldrb	r3, [r7, #7]	@ zero_extendqisi2
 137 003a 1846     		mov	r0, r3
 138 003c FFF7FEFF 		bl	CyExitCriticalSection
 147:.\Generated_Source\PSoC5/CapSense_CSD.c ****         
ARM GAS  C:\Users\mark6\AppData\Local\Temp\ccG3DDgg.s 			page 6


 148:.\Generated_Source\PSoC5/CapSense_CSD.c ****         /* Write polynomial */
 149:.\Generated_Source\PSoC5/CapSense_CSD.c ****         CY_SET_REG16(CapSense_CSD_POLYNOM_PTR, CapSense_CSD_PRS16_DEFAULT_POLYNOM);
 139              		.loc 1 149 0
 140 0040 334B     		ldr	r3, .L2+8
 141 0042 4FF43442 		mov	r2, #46080
 142 0046 1A80     		strh	r2, [r3]	@ movhi
 150:.\Generated_Source\PSoC5/CapSense_CSD.c ****         /* Write FIFO with seed */
 151:.\Generated_Source\PSoC5/CapSense_CSD.c ****         CY_SET_REG16(CapSense_CSD_SEED_COPY_PTR, CapSense_CSD_MEASURE_FULL_RANGE);
 143              		.loc 1 151 0
 144 0048 324B     		ldr	r3, .L2+12
 145 004a 4FF6FF72 		movw	r2, #65535
 146 004e 1A80     		strh	r2, [r3]	@ movhi
 152:.\Generated_Source\PSoC5/CapSense_CSD.c ****                 
 153:.\Generated_Source\PSoC5/CapSense_CSD.c ****     #elif (CapSense_CSD_PRS_OPTIONS == CapSense_CSD_PRS_16BITS_4X)
 154:.\Generated_Source\PSoC5/CapSense_CSD.c ****         /* Aux control set FIFO as REG */
 155:.\Generated_Source\PSoC5/CapSense_CSD.c ****         enableInterrupts = CyEnterCriticalSection();
 156:.\Generated_Source\PSoC5/CapSense_CSD.c ****         CapSense_CSD_AUX_CONTROL_A_REG  |= CapSense_CSD_AUXCTRL_FIFO_SINGLE_REG;
 157:.\Generated_Source\PSoC5/CapSense_CSD.c ****         CyExitCriticalSection(enableInterrupts);
 158:.\Generated_Source\PSoC5/CapSense_CSD.c ****         
 159:.\Generated_Source\PSoC5/CapSense_CSD.c ****         /* Write polynomial */
 160:.\Generated_Source\PSoC5/CapSense_CSD.c ****         CapSense_CSD_POLYNOM_A__D1_REG   = HI8(CapSense_CSD_PRS16_DEFAULT_POLYNOM);
 161:.\Generated_Source\PSoC5/CapSense_CSD.c ****         CapSense_CSD_POLYNOM_A__D0_REG   = LO8(CapSense_CSD_PRS16_DEFAULT_POLYNOM);
 162:.\Generated_Source\PSoC5/CapSense_CSD.c ****         /* Write FIFO with seed */
 163:.\Generated_Source\PSoC5/CapSense_CSD.c ****         CapSense_CSD_SEED_COPY_A__F1_REG = CapSense_CSD_MEASURE_FULL_RANGE_LOW;
 164:.\Generated_Source\PSoC5/CapSense_CSD.c ****         CapSense_CSD_SEED_COPY_A__F0_REG = CapSense_CSD_MEASURE_FULL_RANGE_LOW; 
 165:.\Generated_Source\PSoC5/CapSense_CSD.c ****         
 166:.\Generated_Source\PSoC5/CapSense_CSD.c ****     #else
 167:.\Generated_Source\PSoC5/CapSense_CSD.c ****         /* Do nothing = config without PRS */
 168:.\Generated_Source\PSoC5/CapSense_CSD.c ****     #endif  /* (CapSense_CSD_PRS_OPTIONS == CapSense_CSD_PRS_8BITS) */ 
 169:.\Generated_Source\PSoC5/CapSense_CSD.c ****     
 170:.\Generated_Source\PSoC5/CapSense_CSD.c ****     /* Set ScanSpeed */
 171:.\Generated_Source\PSoC5/CapSense_CSD.c ****     CapSense_CSD_SCANSPEED_PERIOD_REG = CapSense_CSD_SCANSPEED_VALUE;
 147              		.loc 1 171 0
 148 0050 314B     		ldr	r3, .L2+16
 149 0052 0722     		movs	r2, #7
 150 0054 1A70     		strb	r2, [r3]
 172:.\Generated_Source\PSoC5/CapSense_CSD.c ****     
 173:.\Generated_Source\PSoC5/CapSense_CSD.c ****     /* Set the Measure */
 174:.\Generated_Source\PSoC5/CapSense_CSD.c ****     #if (CapSense_CSD_IMPLEMENTATION_CH0 == CapSense_CSD_MEASURE_IMPLEMENTATION_FF)
 175:.\Generated_Source\PSoC5/CapSense_CSD.c ****         /* Window PWM */
 176:.\Generated_Source\PSoC5/CapSense_CSD.c ****         CapSense_CSD_PWM_CH0_CONTROL_REG      = CapSense_CSD_MEASURE_CTRL_ENABLE;
 177:.\Generated_Source\PSoC5/CapSense_CSD.c ****         CapSense_CSD_PWM_CH0_CONTROL2_REG    |= CapSense_CSD_MEASURE_CTRL_PULSEWIDTH;
 178:.\Generated_Source\PSoC5/CapSense_CSD.c ****         CY_SET_REG16(CapSense_CSD_PWM_CH0_COUNTER_PTR, CapSense_CSD_MEASURE_FULL_RANGE);
 179:.\Generated_Source\PSoC5/CapSense_CSD.c ****         
 180:.\Generated_Source\PSoC5/CapSense_CSD.c ****         /* Raw Counter */
 181:.\Generated_Source\PSoC5/CapSense_CSD.c ****         CapSense_CSD_RAW_CH0_CONTROL_REG      = CapSense_CSD_MEASURE_CTRL_ENABLE;
 182:.\Generated_Source\PSoC5/CapSense_CSD.c ****         CapSense_CSD_RAW_CH0_CONTROL2_REG    |= CapSense_CSD_MEASURE_CTRL_PULSEWIDTH;
 183:.\Generated_Source\PSoC5/CapSense_CSD.c ****         CY_SET_REG16(CapSense_CSD_RAW_CH0_PERIOD_PTR, CapSense_CSD_MEASURE_FULL_RANGE);
 184:.\Generated_Source\PSoC5/CapSense_CSD.c ****     
 185:.\Generated_Source\PSoC5/CapSense_CSD.c ****     #else
 186:.\Generated_Source\PSoC5/CapSense_CSD.c ****         /*Window PWM and Raw Counter AUX set */
 187:.\Generated_Source\PSoC5/CapSense_CSD.c ****         enableInterrupts = CyEnterCriticalSection();
 151              		.loc 1 187 0
 152 0056 FFF7FEFF 		bl	CyEnterCriticalSection
 153 005a 0346     		mov	r3, r0
 154 005c FB71     		strb	r3, [r7, #7]
 188:.\Generated_Source\PSoC5/CapSense_CSD.c ****         CapSense_CSD_PWM_CH0_AUX_CONTROL_REG |= CapSense_CSD_AUXCTRL_FIFO_SINGLE_REG;
ARM GAS  C:\Users\mark6\AppData\Local\Temp\ccG3DDgg.s 			page 7


 155              		.loc 1 188 0
 156 005e 2F4A     		ldr	r2, .L2+20
 157 0060 2E4B     		ldr	r3, .L2+20
 158 0062 1B78     		ldrb	r3, [r3]
 159 0064 DBB2     		uxtb	r3, r3
 160 0066 43F00303 		orr	r3, r3, #3
 161 006a DBB2     		uxtb	r3, r3
 162 006c 1370     		strb	r3, [r2]
 189:.\Generated_Source\PSoC5/CapSense_CSD.c ****         CapSense_CSD_RAW_CH0_AUX_CONTROL_REG |= CapSense_CSD_AUXCTRL_FIFO_SINGLE_REG;
 163              		.loc 1 189 0
 164 006e 2C4A     		ldr	r2, .L2+24
 165 0070 2B4B     		ldr	r3, .L2+24
 166 0072 1B78     		ldrb	r3, [r3]
 167 0074 DBB2     		uxtb	r3, r3
 168 0076 43F00303 		orr	r3, r3, #3
 169 007a DBB2     		uxtb	r3, r3
 170 007c 1370     		strb	r3, [r2]
 190:.\Generated_Source\PSoC5/CapSense_CSD.c ****         CyExitCriticalSection(enableInterrupts);
 171              		.loc 1 190 0
 172 007e FB79     		ldrb	r3, [r7, #7]	@ zero_extendqisi2
 173 0080 1846     		mov	r0, r3
 174 0082 FFF7FEFF 		bl	CyExitCriticalSection
 191:.\Generated_Source\PSoC5/CapSense_CSD.c ****         
 192:.\Generated_Source\PSoC5/CapSense_CSD.c ****         /* Window PWM */
 193:.\Generated_Source\PSoC5/CapSense_CSD.c ****         CapSense_CSD_PWM_CH0_ADD_VALUE_REG    = CapSense_CSD_MEASURE_FULL_RANGE_LOW;
 175              		.loc 1 193 0
 176 0086 274B     		ldr	r3, .L2+28
 177 0088 FF22     		movs	r2, #255
 178 008a 1A70     		strb	r2, [r3]
 194:.\Generated_Source\PSoC5/CapSense_CSD.c ****         CapSense_CSD_PWM_CH0_PERIOD_LO_REG    = CapSense_CSD_MEASURE_FULL_RANGE_LOW;
 179              		.loc 1 194 0
 180 008c 264B     		ldr	r3, .L2+32
 181 008e FF22     		movs	r2, #255
 182 0090 1A70     		strb	r2, [r3]
 195:.\Generated_Source\PSoC5/CapSense_CSD.c ****         CapSense_CSD_PWM_CH0_COUNTER_LO_REG   = CapSense_CSD_MEASURE_FULL_RANGE_LOW;
 183              		.loc 1 195 0
 184 0092 264B     		ldr	r3, .L2+36
 185 0094 FF22     		movs	r2, #255
 186 0096 1A70     		strb	r2, [r3]
 196:.\Generated_Source\PSoC5/CapSense_CSD.c ****         
 197:.\Generated_Source\PSoC5/CapSense_CSD.c ****         /* Raw Counter */
 198:.\Generated_Source\PSoC5/CapSense_CSD.c ****         CapSense_CSD_RAW_CH0_ADD_VALUE_REG    = CapSense_CSD_MEASURE_FULL_RANGE_LOW;
 187              		.loc 1 198 0
 188 0098 254B     		ldr	r3, .L2+40
 189 009a FF22     		movs	r2, #255
 190 009c 1A70     		strb	r2, [r3]
 199:.\Generated_Source\PSoC5/CapSense_CSD.c ****         CapSense_CSD_RAW_CH0_PERIOD_HI_REG    = CapSense_CSD_MEASURE_FULL_RANGE_LOW;
 191              		.loc 1 199 0
 192 009e 254B     		ldr	r3, .L2+44
 193 00a0 FF22     		movs	r2, #255
 194 00a2 1A70     		strb	r2, [r3]
 200:.\Generated_Source\PSoC5/CapSense_CSD.c ****         CapSense_CSD_RAW_CH0_PERIOD_LO_REG    = CapSense_CSD_MEASURE_FULL_RANGE_LOW;
 195              		.loc 1 200 0
 196 00a4 244B     		ldr	r3, .L2+48
 197 00a6 FF22     		movs	r2, #255
 198 00a8 1A70     		strb	r2, [r3]
 201:.\Generated_Source\PSoC5/CapSense_CSD.c ****         
ARM GAS  C:\Users\mark6\AppData\Local\Temp\ccG3DDgg.s 			page 8


 202:.\Generated_Source\PSoC5/CapSense_CSD.c ****     #endif  /* (CapSense_CSD_IMPLEMENTATION_CH0 == CapSense_CSD_MEASURE_IMPLEMENTATION_FF) */ 
 203:.\Generated_Source\PSoC5/CapSense_CSD.c ****     
 204:.\Generated_Source\PSoC5/CapSense_CSD.c ****     #if (CapSense_CSD_DESIGN_TYPE == CapSense_CSD_TWO_CHANNELS_DESIGN)
 205:.\Generated_Source\PSoC5/CapSense_CSD.c ****         #if (CapSense_CSD_IMPLEMENTATION_CH1 == CapSense_CSD_MEASURE_IMPLEMENTATION_FF)
 206:.\Generated_Source\PSoC5/CapSense_CSD.c ****             /* Window PWM */
 207:.\Generated_Source\PSoC5/CapSense_CSD.c ****             CapSense_CSD_PWM_CH1_CONTROL_REG      = CapSense_CSD_MEASURE_CTRL_ENABLE;
 208:.\Generated_Source\PSoC5/CapSense_CSD.c ****             CapSense_CSD_PWM_CH1_CONTROL2_REG    |= CapSense_CSD_MEASURE_CTRL_PULSEWIDTH;
 209:.\Generated_Source\PSoC5/CapSense_CSD.c ****             CY_SET_REG16(CapSense_CSD_PWM_CH1_COUNTER_PTR, CapSense_CSD_MEASURE_FULL_RANGE);
 210:.\Generated_Source\PSoC5/CapSense_CSD.c ****             
 211:.\Generated_Source\PSoC5/CapSense_CSD.c ****             /* Raw Counter */
 212:.\Generated_Source\PSoC5/CapSense_CSD.c ****             CapSense_CSD_RAW_CH1_CONTROL_REG      = CapSense_CSD_MEASURE_CTRL_ENABLE;
 213:.\Generated_Source\PSoC5/CapSense_CSD.c ****             CapSense_CSD_RAW_CH1_CONTROL2_REG    |= CapSense_CSD_MEASURE_CTRL_PULSEWIDTH;
 214:.\Generated_Source\PSoC5/CapSense_CSD.c ****             CY_SET_REG16(CapSense_CSD_RAW_CH1_PERIOD_PTR, CapSense_CSD_MEASURE_FULL_RANGE);
 215:.\Generated_Source\PSoC5/CapSense_CSD.c ****            
 216:.\Generated_Source\PSoC5/CapSense_CSD.c ****         #else
 217:.\Generated_Source\PSoC5/CapSense_CSD.c ****             /*Window PWM and Raw Counter AUX set */
 218:.\Generated_Source\PSoC5/CapSense_CSD.c ****             enableInterrupts = CyEnterCriticalSection();
 219:.\Generated_Source\PSoC5/CapSense_CSD.c ****             CapSense_CSD_PWM_CH1_AUX_CONTROL_REG |= CapSense_CSD_AUXCTRL_FIFO_SINGLE_REG;
 220:.\Generated_Source\PSoC5/CapSense_CSD.c ****             CapSense_CSD_RAW_CH1_AUX_CONTROL_REG |= CapSense_CSD_AUXCTRL_FIFO_SINGLE_REG;
 221:.\Generated_Source\PSoC5/CapSense_CSD.c ****             CyExitCriticalSection(enableInterrupts);
 222:.\Generated_Source\PSoC5/CapSense_CSD.c ****             
 223:.\Generated_Source\PSoC5/CapSense_CSD.c ****             /* Window PWM */
 224:.\Generated_Source\PSoC5/CapSense_CSD.c ****             CapSense_CSD_PWM_CH1_ADD_VALUE_REG    = CapSense_CSD_MEASURE_FULL_RANGE_LOW;
 225:.\Generated_Source\PSoC5/CapSense_CSD.c ****             CapSense_CSD_PWM_CH1_PERIOD_LO_REG    = CapSense_CSD_MEASURE_FULL_RANGE_LOW;
 226:.\Generated_Source\PSoC5/CapSense_CSD.c ****             CapSense_CSD_PWM_CH1_COUNTER_LO_REG   = CapSense_CSD_MEASURE_FULL_RANGE_LOW;
 227:.\Generated_Source\PSoC5/CapSense_CSD.c ****             
 228:.\Generated_Source\PSoC5/CapSense_CSD.c ****             /* Raw Counter */
 229:.\Generated_Source\PSoC5/CapSense_CSD.c ****             
 230:.\Generated_Source\PSoC5/CapSense_CSD.c ****             CapSense_CSD_RAW_CH1_ADD_VALUE_REG    = CapSense_CSD_MEASURE_FULL_RANGE_LOW;
 231:.\Generated_Source\PSoC5/CapSense_CSD.c ****             CapSense_CSD_RAW_CH1_PERIOD_HI_REG    = CapSense_CSD_MEASURE_FULL_RANGE_LOW;
 232:.\Generated_Source\PSoC5/CapSense_CSD.c ****             CapSense_CSD_RAW_CH1_PERIOD_LO_REG    = CapSense_CSD_MEASURE_FULL_RANGE_LOW;
 233:.\Generated_Source\PSoC5/CapSense_CSD.c ****             
 234:.\Generated_Source\PSoC5/CapSense_CSD.c ****         #endif  /* (CapSense_CSD_IMPLEMENTATION_CH1 == CapSense_CSD_MEASURE_IMPLEMENTATION_FF) */
 235:.\Generated_Source\PSoC5/CapSense_CSD.c ****     
 236:.\Generated_Source\PSoC5/CapSense_CSD.c ****     #endif  /* (CapSense_CSD_DESIGN_TYPE == TWO_CHANNELS_DESIGN) */
 237:.\Generated_Source\PSoC5/CapSense_CSD.c ****     
 238:.\Generated_Source\PSoC5/CapSense_CSD.c ****     /* Setup ISR */
 239:.\Generated_Source\PSoC5/CapSense_CSD.c ****     CyIntDisable(CapSense_CSD_IsrCH0_ISR_NUMBER);
 199              		.loc 1 239 0
 200 00aa 244B     		ldr	r3, .L2+52
 201 00ac 0122     		movs	r2, #1
 202 00ae 1A60     		str	r2, [r3]
 240:.\Generated_Source\PSoC5/CapSense_CSD.c ****     (void)CyIntSetVector(CapSense_CSD_IsrCH0_ISR_NUMBER, &CapSense_CSD_IsrCH0_ISR);
 203              		.loc 1 240 0
 204 00b0 0020     		movs	r0, #0
 205 00b2 2349     		ldr	r1, .L2+56
 206 00b4 FFF7FEFF 		bl	CyIntSetVector
 241:.\Generated_Source\PSoC5/CapSense_CSD.c ****     CyIntSetPriority(CapSense_CSD_IsrCH0_ISR_NUMBER, CapSense_CSD_IsrCH0_ISR_PRIORITY);
 207              		.loc 1 241 0
 208 00b8 0020     		movs	r0, #0
 209 00ba 0721     		movs	r1, #7
 210 00bc FFF7FEFF 		bl	CyIntSetPriority
 242:.\Generated_Source\PSoC5/CapSense_CSD.c ****     
 243:.\Generated_Source\PSoC5/CapSense_CSD.c ****     #if (CapSense_CSD_DESIGN_TYPE == CapSense_CSD_TWO_CHANNELS_DESIGN)
 244:.\Generated_Source\PSoC5/CapSense_CSD.c ****         CyIntDisable(CapSense_CSD_IsrCH1_ISR_NUMBER);
 245:.\Generated_Source\PSoC5/CapSense_CSD.c ****         CyIntSetVector(CapSense_CSD_IsrCH1_ISR_NUMBER, CapSense_CSD_IsrCH1_ISR);
 246:.\Generated_Source\PSoC5/CapSense_CSD.c ****         CyIntSetPriority(CapSense_CSD_IsrCH1_ISR_NUMBER, CapSense_CSD_IsrCH1_ISR_PRIORITY);
ARM GAS  C:\Users\mark6\AppData\Local\Temp\ccG3DDgg.s 			page 9


 247:.\Generated_Source\PSoC5/CapSense_CSD.c ****     #endif  /* CapSense_CSD_DESIGN_TYPE */
 248:.\Generated_Source\PSoC5/CapSense_CSD.c ****     
 249:.\Generated_Source\PSoC5/CapSense_CSD.c ****     /* Setup AMux Bus: Connect Cmod, Cmp, Idac */
 250:.\Generated_Source\PSoC5/CapSense_CSD.c ****     CapSense_CSD_AMuxCH0_Init();
 211              		.loc 1 250 0
 212 00c0 FFF7FEFF 		bl	CapSense_CSD_AMuxCH0_Init
 251:.\Generated_Source\PSoC5/CapSense_CSD.c ****     CapSense_CSD_AMuxCH0_Connect(CapSense_CSD_AMuxCH0_CMOD_CHANNEL);
 213              		.loc 1 251 0
 214 00c4 0120     		movs	r0, #1
 215 00c6 FFF7FEFF 		bl	CapSense_CSD_AMuxCH0_Set
 252:.\Generated_Source\PSoC5/CapSense_CSD.c ****     CapSense_CSD_AMuxCH0_Connect(CapSense_CSD_AMuxCH0_CMP_VP_CHANNEL);
 216              		.loc 1 252 0
 217 00ca 0220     		movs	r0, #2
 218 00cc FFF7FEFF 		bl	CapSense_CSD_AMuxCH0_Set
 253:.\Generated_Source\PSoC5/CapSense_CSD.c ****     #if (CapSense_CSD_CURRENT_SOURCE)
 254:.\Generated_Source\PSoC5/CapSense_CSD.c ****         CapSense_CSD_AMuxCH0_Connect(CapSense_CSD_AMuxCH0_IDAC_CHANNEL);
 219              		.loc 1 254 0
 220 00d0 0320     		movs	r0, #3
 221 00d2 FFF7FEFF 		bl	CapSense_CSD_AMuxCH0_Set
 255:.\Generated_Source\PSoC5/CapSense_CSD.c ****     #endif  /* CapSense_CSD_CURRENT_SOURCE */
 256:.\Generated_Source\PSoC5/CapSense_CSD.c ****     
 257:.\Generated_Source\PSoC5/CapSense_CSD.c ****     #if (CapSense_CSD_DESIGN_TYPE == CapSense_CSD_TWO_CHANNELS_DESIGN) 
 258:.\Generated_Source\PSoC5/CapSense_CSD.c ****         CapSense_CSD_AMuxCH1_Init();
 259:.\Generated_Source\PSoC5/CapSense_CSD.c ****         CapSense_CSD_AMuxCH1_Connect(CapSense_CSD_AMuxCH1_CMOD_CHANNEL);
 260:.\Generated_Source\PSoC5/CapSense_CSD.c ****         CapSense_CSD_AMuxCH1_Connect(CapSense_CSD_AMuxCH1_CMP_VP_CHANNEL);
 261:.\Generated_Source\PSoC5/CapSense_CSD.c ****         #if (CapSense_CSD_CURRENT_SOURCE)
 262:.\Generated_Source\PSoC5/CapSense_CSD.c ****             CapSense_CSD_AMuxCH1_Connect(CapSense_CSD_AMuxCH1_IDAC_CHANNEL);
 263:.\Generated_Source\PSoC5/CapSense_CSD.c ****         #endif  /* CapSense_CSD_CURRENT_SOURCE */
 264:.\Generated_Source\PSoC5/CapSense_CSD.c ****     #endif  /* CapSense_CSD_DESIGN_TYPE */
 265:.\Generated_Source\PSoC5/CapSense_CSD.c ****     
 266:.\Generated_Source\PSoC5/CapSense_CSD.c ****     /* Int Rb */
 267:.\Generated_Source\PSoC5/CapSense_CSD.c ****     #if (CapSense_CSD_CURRENT_SOURCE == CapSense_CSD_EXTERNAL_RB)
 268:.\Generated_Source\PSoC5/CapSense_CSD.c ****         CapSense_CSD_InitRb();
 269:.\Generated_Source\PSoC5/CapSense_CSD.c ****     #endif /* (CapSense_CSD_CURRENT_SOURCE == CapSense_CSD_EXTERNAL_RB) */
 270:.\Generated_Source\PSoC5/CapSense_CSD.c ****     
 271:.\Generated_Source\PSoC5/CapSense_CSD.c ****     /* Enable window generation */
 272:.\Generated_Source\PSoC5/CapSense_CSD.c ****     CapSense_CSD_CONTROL_REG |= CapSense_CSD_CTRL_WINDOW_EN__CH0;
 222              		.loc 1 272 0
 223 00d6 1B4A     		ldr	r2, .L2+60
 224 00d8 1A4B     		ldr	r3, .L2+60
 225 00da 1B78     		ldrb	r3, [r3]
 226 00dc DBB2     		uxtb	r3, r3
 227 00de 43F00403 		orr	r3, r3, #4
 228 00e2 DBB2     		uxtb	r3, r3
 229 00e4 1370     		strb	r3, [r2]
 273:.\Generated_Source\PSoC5/CapSense_CSD.c ****     #if (CapSense_CSD_DESIGN_TYPE == CapSense_CSD_TWO_CHANNELS_DESIGN)
 274:.\Generated_Source\PSoC5/CapSense_CSD.c ****         CapSense_CSD_CONTROL_REG |= CapSense_CSD_CTRL_WINDOW_EN__CH1;
 275:.\Generated_Source\PSoC5/CapSense_CSD.c ****     #endif  /* CapSense_CSD_DESIGN_TYPE */
 276:.\Generated_Source\PSoC5/CapSense_CSD.c ****     
 277:.\Generated_Source\PSoC5/CapSense_CSD.c ****     /* Initialize Cmp and Idac */
 278:.\Generated_Source\PSoC5/CapSense_CSD.c ****     CapSense_CSD_CompCH0_Init();
 230              		.loc 1 278 0
 231 00e6 FFF7FEFF 		bl	CapSense_CSD_CompCH0_Init
 279:.\Generated_Source\PSoC5/CapSense_CSD.c ****     #if (CapSense_CSD_CURRENT_SOURCE)
 280:.\Generated_Source\PSoC5/CapSense_CSD.c ****         CapSense_CSD_IdacCH0_Init();
 232              		.loc 1 280 0
 233 00ea FFF7FEFF 		bl	CapSense_CSD_IdacCH0_Init
ARM GAS  C:\Users\mark6\AppData\Local\Temp\ccG3DDgg.s 			page 10


 281:.\Generated_Source\PSoC5/CapSense_CSD.c ****         CapSense_CSD_IdacCH0_SetPolarity(CapSense_CSD_IdacCH0_IDIR);
 234              		.loc 1 281 0
 235 00ee 0020     		movs	r0, #0
 236 00f0 FFF7FEFF 		bl	CapSense_CSD_IdacCH0_SetPolarity
 282:.\Generated_Source\PSoC5/CapSense_CSD.c ****         CapSense_CSD_IdacCH0_SetRange(CapSense_CSD_IDAC_RANGE_VALUE);
 237              		.loc 1 282 0
 238 00f4 0420     		movs	r0, #4
 239 00f6 FFF7FEFF 		bl	CapSense_CSD_IdacCH0_SetRange
 283:.\Generated_Source\PSoC5/CapSense_CSD.c ****         CapSense_CSD_IdacCH0_SetValue(CapSense_CSD_TURN_OFF_IDAC);
 240              		.loc 1 283 0
 241 00fa 0020     		movs	r0, #0
 242 00fc FFF7FEFF 		bl	CapSense_CSD_IdacCH0_SetValue
 284:.\Generated_Source\PSoC5/CapSense_CSD.c ****     #endif  /* CapSense_CSD_CURRENT_SOURCE */
 285:.\Generated_Source\PSoC5/CapSense_CSD.c ****     
 286:.\Generated_Source\PSoC5/CapSense_CSD.c ****     #if (CapSense_CSD_DESIGN_TYPE == CapSense_CSD_TWO_CHANNELS_DESIGN) 
 287:.\Generated_Source\PSoC5/CapSense_CSD.c ****         CapSense_CSD_CompCH1_Init();
 288:.\Generated_Source\PSoC5/CapSense_CSD.c ****         #if (CapSense_CSD_CURRENT_SOURCE)
 289:.\Generated_Source\PSoC5/CapSense_CSD.c ****             CapSense_CSD_IdacCH1_Init();
 290:.\Generated_Source\PSoC5/CapSense_CSD.c ****             CapSense_CSD_IdacCH1_SetPolarity(CapSense_CSD_IdacCH1_IDIR);
 291:.\Generated_Source\PSoC5/CapSense_CSD.c ****             CapSense_CSD_IdacCH1_SetRange(CapSense_CSD_IDAC_RANGE_VALUE);
 292:.\Generated_Source\PSoC5/CapSense_CSD.c ****             CapSense_CSD_IdacCH1_SetValue(CapSense_CSD_TURN_OFF_IDAC);
 293:.\Generated_Source\PSoC5/CapSense_CSD.c ****         #endif  /* CapSense_CSD_CURRENT_SOURCE */
 294:.\Generated_Source\PSoC5/CapSense_CSD.c ****     #endif  /* CapSense_CSD_DESIGN_TYPE */
 295:.\Generated_Source\PSoC5/CapSense_CSD.c ****     
 296:.\Generated_Source\PSoC5/CapSense_CSD.c ****     /* Initialize Vref if as VDAC */
 297:.\Generated_Source\PSoC5/CapSense_CSD.c ****     #if (CapSense_CSD_VREF_OPTIONS == CapSense_CSD_VREF_VDAC)
 298:.\Generated_Source\PSoC5/CapSense_CSD.c ****         CapSense_CSD_VdacRefCH0_Init();
 299:.\Generated_Source\PSoC5/CapSense_CSD.c ****         #if (CapSense_CSD_DESIGN_TYPE == CapSense_CSD_TWO_CHANNELS_DESIGN)
 300:.\Generated_Source\PSoC5/CapSense_CSD.c ****             CapSense_CSD_VdacRefCH1_Init();
 301:.\Generated_Source\PSoC5/CapSense_CSD.c ****         #endif  /* CapSense_CSD_DESIGN_TYPE */
 302:.\Generated_Source\PSoC5/CapSense_CSD.c ****     #endif  /* CapSense_CSD_VREF_OPTIONS */
 303:.\Generated_Source\PSoC5/CapSense_CSD.c **** }
 243              		.loc 1 303 0
 244 0100 0837     		adds	r7, r7, #8
 245              		.cfi_def_cfa_offset 8
 246 0102 BD46     		mov	sp, r7
 247              		.cfi_def_cfa_register 13
 248              		@ sp needed
 249 0104 80BD     		pop	{r7, pc}
 250              	.L3:
 251 0106 00BF     		.align	2
 252              	.L2:
 253 0108 9E640040 		.word	1073767582
 254 010c 9F640040 		.word	1073767583
 255 0110 2E640040 		.word	1073767470
 256 0114 4E640040 		.word	1073767502
 257 0118 8E640040 		.word	1073767566
 258 011c 9B640040 		.word	1073767579
 259 0120 9A640040 		.word	1073767578
 260 0124 2B640040 		.word	1073767467
 261 0128 4B640040 		.word	1073767499
 262 012c 0B640040 		.word	1073767435
 263 0130 2A640040 		.word	1073767466
 264 0134 5A640040 		.word	1073767514
 265 0138 4A640040 		.word	1073767498
 266 013c 80E100E0 		.word	-536813184
 267 0140 00000000 		.word	CapSense_CSD_IsrCH0_ISR
ARM GAS  C:\Users\mark6\AppData\Local\Temp\ccG3DDgg.s 			page 11


 268 0144 7D640040 		.word	1073767549
 269              		.cfi_endproc
 270              	.LFE0:
 271              		.size	CapSense_CSD_Init, .-CapSense_CSD_Init
 272              		.section	.text.CapSense_CSD_Enable,"ax",%progbits
 273              		.align	2
 274              		.global	CapSense_CSD_Enable
 275              		.thumb
 276              		.thumb_func
 277              		.type	CapSense_CSD_Enable, %function
 278              	CapSense_CSD_Enable:
 279              	.LFB1:
 304:.\Generated_Source\PSoC5/CapSense_CSD.c **** 
 305:.\Generated_Source\PSoC5/CapSense_CSD.c **** 
 306:.\Generated_Source\PSoC5/CapSense_CSD.c **** /*******************************************************************************
 307:.\Generated_Source\PSoC5/CapSense_CSD.c **** * Function Name: CapSense_CSD_Enable
 308:.\Generated_Source\PSoC5/CapSense_CSD.c **** ********************************************************************************
 309:.\Generated_Source\PSoC5/CapSense_CSD.c **** *
 310:.\Generated_Source\PSoC5/CapSense_CSD.c **** * Summary:
 311:.\Generated_Source\PSoC5/CapSense_CSD.c **** *  Enables active mode power template bits for number of component used within 
 312:.\Generated_Source\PSoC5/CapSense_CSD.c **** *  CapSense.
 313:.\Generated_Source\PSoC5/CapSense_CSD.c **** *
 314:.\Generated_Source\PSoC5/CapSense_CSD.c **** * Parameters:
 315:.\Generated_Source\PSoC5/CapSense_CSD.c **** *  None
 316:.\Generated_Source\PSoC5/CapSense_CSD.c **** *
 317:.\Generated_Source\PSoC5/CapSense_CSD.c **** * Return:
 318:.\Generated_Source\PSoC5/CapSense_CSD.c **** *  None
 319:.\Generated_Source\PSoC5/CapSense_CSD.c **** *
 320:.\Generated_Source\PSoC5/CapSense_CSD.c **** *******************************************************************************/
 321:.\Generated_Source\PSoC5/CapSense_CSD.c **** void CapSense_CSD_Enable(void) 
 322:.\Generated_Source\PSoC5/CapSense_CSD.c **** {
 280              		.loc 1 322 0
 281              		.cfi_startproc
 282              		@ args = 0, pretend = 0, frame = 8
 283              		@ frame_needed = 1, uses_anonymous_args = 0
 284 0000 80B5     		push	{r7, lr}
 285              		.cfi_def_cfa_offset 8
 286              		.cfi_offset 7, -8
 287              		.cfi_offset 14, -4
 288 0002 82B0     		sub	sp, sp, #8
 289              		.cfi_def_cfa_offset 16
 290 0004 00AF     		add	r7, sp, #0
 291              		.cfi_def_cfa_register 7
 323:.\Generated_Source\PSoC5/CapSense_CSD.c ****     uint8 enableInterrupts;
 324:.\Generated_Source\PSoC5/CapSense_CSD.c ****     
 325:.\Generated_Source\PSoC5/CapSense_CSD.c ****     enableInterrupts = CyEnterCriticalSection();
 292              		.loc 1 325 0
 293 0006 FFF7FEFF 		bl	CyEnterCriticalSection
 294 000a 0346     		mov	r3, r0
 295 000c FB71     		strb	r3, [r7, #7]
 326:.\Generated_Source\PSoC5/CapSense_CSD.c ****     
 327:.\Generated_Source\PSoC5/CapSense_CSD.c ****     /* Enable Prescaler */
 328:.\Generated_Source\PSoC5/CapSense_CSD.c ****     #if (CapSense_CSD_PRESCALER_OPTIONS == CapSense_CSD_PRESCALER_UDB)
 329:.\Generated_Source\PSoC5/CapSense_CSD.c ****         /* Do nothing  for UDB */
 330:.\Generated_Source\PSoC5/CapSense_CSD.c ****     #elif (CapSense_CSD_PRESCALER_OPTIONS == CapSense_CSD_PRESCALER_FF)
 331:.\Generated_Source\PSoC5/CapSense_CSD.c ****         CapSense_CSD_PRESCALER_ACT_PWRMGR_REG  |= CapSense_CSD_PRESCALER_ACT_PWR_EN;
 332:.\Generated_Source\PSoC5/CapSense_CSD.c ****         CapSense_CSD_PRESCALER_STBY_PWRMGR_REG |= CapSense_CSD_PRESCALER_STBY_PWR_EN;
ARM GAS  C:\Users\mark6\AppData\Local\Temp\ccG3DDgg.s 			page 12


 333:.\Generated_Source\PSoC5/CapSense_CSD.c ****         
 334:.\Generated_Source\PSoC5/CapSense_CSD.c ****     #else
 335:.\Generated_Source\PSoC5/CapSense_CSD.c ****         /* Do nothing = config without prescaler */
 336:.\Generated_Source\PSoC5/CapSense_CSD.c ****     #endif  /* (CapSense_CSD_PRESCALER_OPTIONS == CapSense_CSD_PRESCALER_UDB) */
 337:.\Generated_Source\PSoC5/CapSense_CSD.c ****     
 338:.\Generated_Source\PSoC5/CapSense_CSD.c ****     /* Enable ScanSpeed */
 339:.\Generated_Source\PSoC5/CapSense_CSD.c ****     CapSense_CSD_SCANSPEED_AUX_CONTROL_REG |= CapSense_CSD_SCANSPEED_CTRL_ENABLE;
 296              		.loc 1 339 0
 297 000e 1C4A     		ldr	r2, .L5
 298 0010 1B4B     		ldr	r3, .L5
 299 0012 1B78     		ldrb	r3, [r3]
 300 0014 DBB2     		uxtb	r3, r3
 301 0016 43F02003 		orr	r3, r3, #32
 302 001a DBB2     		uxtb	r3, r3
 303 001c 1370     		strb	r3, [r2]
 340:.\Generated_Source\PSoC5/CapSense_CSD.c ****     
 341:.\Generated_Source\PSoC5/CapSense_CSD.c ****     /* Enable Measure CH0 */
 342:.\Generated_Source\PSoC5/CapSense_CSD.c ****     #if (CapSense_CSD_IMPLEMENTATION_CH0 == CapSense_CSD_MEASURE_IMPLEMENTATION_FF)
 343:.\Generated_Source\PSoC5/CapSense_CSD.c ****         /* Window PWM */
 344:.\Generated_Source\PSoC5/CapSense_CSD.c ****         CapSense_CSD_PWM_CH0_ACT_PWRMGR_REG  |= CapSense_CSD_PWM_CH0_ACT_PWR_EN;
 345:.\Generated_Source\PSoC5/CapSense_CSD.c ****         CapSense_CSD_PWM_CH0_STBY_PWRMGR_REG |= CapSense_CSD_PWM_CH0_STBY_PWR_EN;
 346:.\Generated_Source\PSoC5/CapSense_CSD.c ****         
 347:.\Generated_Source\PSoC5/CapSense_CSD.c ****         /* Raw Counter */
 348:.\Generated_Source\PSoC5/CapSense_CSD.c ****         CapSense_CSD_RAW_CH0_ACT_PWRMGR_REG  |= CapSense_CSD_RAW_CH0_ACT_PWR_EN;
 349:.\Generated_Source\PSoC5/CapSense_CSD.c ****         CapSense_CSD_RAW_CH0_STBY_PWRMGR_REG |= CapSense_CSD_RAW_CH0_STBY_PWR_EN;
 350:.\Generated_Source\PSoC5/CapSense_CSD.c ****         
 351:.\Generated_Source\PSoC5/CapSense_CSD.c ****     #else
 352:.\Generated_Source\PSoC5/CapSense_CSD.c ****         /* Window PWM -  Do nothing */
 353:.\Generated_Source\PSoC5/CapSense_CSD.c ****         /* Raw Counter - Do nothing */
 354:.\Generated_Source\PSoC5/CapSense_CSD.c ****         
 355:.\Generated_Source\PSoC5/CapSense_CSD.c ****     #endif  /* (CapSense_CSD_IMPLEMENTATION_CH0 == CapSense_CSD_MEASURE_IMPLEMENTATION_FF) */ 
 356:.\Generated_Source\PSoC5/CapSense_CSD.c ****     
 357:.\Generated_Source\PSoC5/CapSense_CSD.c ****     /* Enable Measure CH1*/
 358:.\Generated_Source\PSoC5/CapSense_CSD.c ****     #if (CapSense_CSD_DESIGN_TYPE == CapSense_CSD_TWO_CHANNELS_DESIGN)
 359:.\Generated_Source\PSoC5/CapSense_CSD.c ****         #if (CapSense_CSD_IMPLEMENTATION_CH1 == CapSense_CSD_MEASURE_IMPLEMENTATION_FF)
 360:.\Generated_Source\PSoC5/CapSense_CSD.c ****             /* Window PWM */
 361:.\Generated_Source\PSoC5/CapSense_CSD.c ****             CapSense_CSD_PWM_CH1_ACT_PWRMGR_REG  |= CapSense_CSD_PWM_CH1_ACT_PWR_EN;
 362:.\Generated_Source\PSoC5/CapSense_CSD.c ****             CapSense_CSD_PWM_CH1_STBY_PWRMGR_REG |= CapSense_CSD_PWM_CH1_STBY_PWR_EN;
 363:.\Generated_Source\PSoC5/CapSense_CSD.c ****             
 364:.\Generated_Source\PSoC5/CapSense_CSD.c ****             /* Raw Counter */
 365:.\Generated_Source\PSoC5/CapSense_CSD.c ****             CapSense_CSD_RAW_CH1_ACT_PWRMGR_REG  |= CapSense_CSD_RAW_CH1_ACT_PWR_EN;
 366:.\Generated_Source\PSoC5/CapSense_CSD.c ****             CapSense_CSD_RAW_CH1_STBY_PWRMGR_REG |= CapSense_CSD_RAW_CH1_STBY_PWR_EN;
 367:.\Generated_Source\PSoC5/CapSense_CSD.c ****            
 368:.\Generated_Source\PSoC5/CapSense_CSD.c ****         #else
 369:.\Generated_Source\PSoC5/CapSense_CSD.c ****         /* Window PWM -  Do nothing */
 370:.\Generated_Source\PSoC5/CapSense_CSD.c ****         /* Raw Counter - Do nothing */
 371:.\Generated_Source\PSoC5/CapSense_CSD.c ****         
 372:.\Generated_Source\PSoC5/CapSense_CSD.c ****         #endif  /* (CapSense_CSD_IMPLEMENTATION_CH1 == CapSense_CSD_MEASURE_IMPLEMENTATION_FF) */
 373:.\Generated_Source\PSoC5/CapSense_CSD.c ****     
 374:.\Generated_Source\PSoC5/CapSense_CSD.c ****     #endif  /* (CapSense_CSD_DESIGN_TYPE == TWO_CHANNELS_DESIGN)*/
 375:.\Generated_Source\PSoC5/CapSense_CSD.c ****     
 376:.\Generated_Source\PSoC5/CapSense_CSD.c ****     /* Enable the Clock */
 377:.\Generated_Source\PSoC5/CapSense_CSD.c ****     #if (CapSense_CSD_CLOCK_SOURCE == CapSense_CSD_INTERNAL_CLOCK)
 378:.\Generated_Source\PSoC5/CapSense_CSD.c ****        CapSense_CSD_IntClock_Enable();
 304              		.loc 1 378 0
 305 001e FFF7FEFF 		bl	CapSense_CSD_IntClock_Start
 379:.\Generated_Source\PSoC5/CapSense_CSD.c ****     #endif  /* CapSense_CSD_CLOCK_SOURCE */
ARM GAS  C:\Users\mark6\AppData\Local\Temp\ccG3DDgg.s 			page 13


 380:.\Generated_Source\PSoC5/CapSense_CSD.c ****     
 381:.\Generated_Source\PSoC5/CapSense_CSD.c ****     /* Setup Cmp and Idac */
 382:.\Generated_Source\PSoC5/CapSense_CSD.c ****     CapSense_CSD_CompCH0_Enable();
 306              		.loc 1 382 0
 307 0022 FFF7FEFF 		bl	CapSense_CSD_CompCH0_Enable
 383:.\Generated_Source\PSoC5/CapSense_CSD.c ****     #if (CapSense_CSD_CURRENT_SOURCE)
 384:.\Generated_Source\PSoC5/CapSense_CSD.c ****         CapSense_CSD_IdacCH0_Enable();
 308              		.loc 1 384 0
 309 0026 FFF7FEFF 		bl	CapSense_CSD_IdacCH0_Enable
 385:.\Generated_Source\PSoC5/CapSense_CSD.c ****     #endif  /* CapSense_CSD_CURRENT_SOURCE */
 386:.\Generated_Source\PSoC5/CapSense_CSD.c ****     
 387:.\Generated_Source\PSoC5/CapSense_CSD.c ****     #if (CapSense_CSD_DESIGN_TYPE == CapSense_CSD_TWO_CHANNELS_DESIGN) 
 388:.\Generated_Source\PSoC5/CapSense_CSD.c ****         CapSense_CSD_CompCH1_Enable();
 389:.\Generated_Source\PSoC5/CapSense_CSD.c ****         #if (CapSense_CSD_CURRENT_SOURCE)
 390:.\Generated_Source\PSoC5/CapSense_CSD.c ****             CapSense_CSD_IdacCH1_Enable();
 391:.\Generated_Source\PSoC5/CapSense_CSD.c ****         #endif  /* CapSense_CSD_CURRENT_SOURCE */
 392:.\Generated_Source\PSoC5/CapSense_CSD.c ****     #endif  /* CapSense_CSD_DESIGN_TYPE */
 393:.\Generated_Source\PSoC5/CapSense_CSD.c ****     
 394:.\Generated_Source\PSoC5/CapSense_CSD.c ****     /* Enable Vref */
 395:.\Generated_Source\PSoC5/CapSense_CSD.c ****     #if (CapSense_CSD_VREF_OPTIONS == CapSense_CSD_VREF_VDAC)
 396:.\Generated_Source\PSoC5/CapSense_CSD.c ****         CapSense_CSD_VdacRefCH0_Enable();
 397:.\Generated_Source\PSoC5/CapSense_CSD.c ****         CapSense_CSD_VdacRefCH0_SetValue(CapSense_CSD_VdacRefCH0_DEFAULT_DATA);
 398:.\Generated_Source\PSoC5/CapSense_CSD.c ****         #if (CapSense_CSD_DESIGN_TYPE == CapSense_CSD_TWO_CHANNELS_DESIGN)
 399:.\Generated_Source\PSoC5/CapSense_CSD.c ****             CapSense_CSD_VdacRefCH1_Enable();
 400:.\Generated_Source\PSoC5/CapSense_CSD.c ****             CapSense_CSD_VdacRefCH1_SetValue(CapSense_CSD_VdacRefCH1_DEFAULT_DATA);
 401:.\Generated_Source\PSoC5/CapSense_CSD.c ****         #endif  /* (CapSense_CSD_DESIGN_TYPE == CapSense_CSD_TWO_CHANNELS_DESIGN) */
 402:.\Generated_Source\PSoC5/CapSense_CSD.c ****     #else
 403:.\Generated_Source\PSoC5/CapSense_CSD.c ****         /* Enable CapSense Buf */
 404:.\Generated_Source\PSoC5/CapSense_CSD.c ****         CapSense_CSD_BufCH0_STBY_PWRMGR_REG |= CapSense_CSD_BufCH0_STBY_PWR_EN;
 310              		.loc 1 404 0
 311 002a 164A     		ldr	r2, .L5+4
 312 002c 154B     		ldr	r3, .L5+4
 313 002e 1B78     		ldrb	r3, [r3]
 314 0030 DBB2     		uxtb	r3, r3
 315 0032 43F01003 		orr	r3, r3, #16
 316 0036 DBB2     		uxtb	r3, r3
 317 0038 1370     		strb	r3, [r2]
 405:.\Generated_Source\PSoC5/CapSense_CSD.c ****         CapSense_CSD_BufCH0_ACT_PWRMGR_REG  |= CapSense_CSD_BufCH0_ACT_PWR_EN;
 318              		.loc 1 405 0
 319 003a 134A     		ldr	r2, .L5+8
 320 003c 124B     		ldr	r3, .L5+8
 321 003e 1B78     		ldrb	r3, [r3]
 322 0040 DBB2     		uxtb	r3, r3
 323 0042 43F01003 		orr	r3, r3, #16
 324 0046 DBB2     		uxtb	r3, r3
 325 0048 1370     		strb	r3, [r2]
 406:.\Generated_Source\PSoC5/CapSense_CSD.c ****         
 407:.\Generated_Source\PSoC5/CapSense_CSD.c ****         #if (CapSense_CSD_DESIGN_TYPE == CapSense_CSD_TWO_CHANNELS_DESIGN)
 408:.\Generated_Source\PSoC5/CapSense_CSD.c ****             CapSense_CSD_BufCH1_STBY_PWRMGR_REG |= CapSense_CSD_BufCH1_STBY_PWR_EN;
 409:.\Generated_Source\PSoC5/CapSense_CSD.c ****             CapSense_CSD_BufCH1_ACT_PWRMGR_REG  |= CapSense_CSD_BufCH1_ACT_PWR_EN;
 410:.\Generated_Source\PSoC5/CapSense_CSD.c ****         #endif  /* (CapSense_CSD_DESIGN_TYPE == CapSense_CSD_TWO_CHANNELS_DESIGN) */
 411:.\Generated_Source\PSoC5/CapSense_CSD.c ****     #endif  /* (CapSense_CSD_VREF_VDAC == CapSense_CSD_VREF_OPTIONS) */
 412:.\Generated_Source\PSoC5/CapSense_CSD.c ****     
 413:.\Generated_Source\PSoC5/CapSense_CSD.c ****     /* Set reference on AMux Bus */
 414:.\Generated_Source\PSoC5/CapSense_CSD.c ****     #if (CapSense_CSD_VREF_OPTIONS == CapSense_CSD_VREF_VDAC)
 415:.\Generated_Source\PSoC5/CapSense_CSD.c ****         /* Connect Vdac to AMux Bus */
 416:.\Generated_Source\PSoC5/CapSense_CSD.c ****         CapSense_CSD_AMuxCH0_Connect(CapSense_CSD_AMuxCH0_VREF_CHANNEL);
ARM GAS  C:\Users\mark6\AppData\Local\Temp\ccG3DDgg.s 			page 14


 417:.\Generated_Source\PSoC5/CapSense_CSD.c ****         #if (CapSense_CSD_DESIGN_TYPE == CapSense_CSD_TWO_CHANNELS_DESIGN)
 418:.\Generated_Source\PSoC5/CapSense_CSD.c ****             CapSense_CSD_AMuxCH1_Connect(CapSense_CSD_AMuxCH1_VREF_CHANNEL);
 419:.\Generated_Source\PSoC5/CapSense_CSD.c ****         #endif  /* (CapSense_CSD_DESIGN_TYPE == CapSense_CSD_TWO_CHANNELS_DESIGN) */
 420:.\Generated_Source\PSoC5/CapSense_CSD.c ****         
 421:.\Generated_Source\PSoC5/CapSense_CSD.c ****     #else
 422:.\Generated_Source\PSoC5/CapSense_CSD.c ****         /* Enable CapSense Buf */
 423:.\Generated_Source\PSoC5/CapSense_CSD.c ****         CapSense_CSD_BufCH0_CAPS_CFG0_REG |= CapSense_CSD_CSBUF_ENABLE;
 326              		.loc 1 423 0
 327 004a 104A     		ldr	r2, .L5+12
 328 004c 0F4B     		ldr	r3, .L5+12
 329 004e 1B78     		ldrb	r3, [r3]
 330 0050 DBB2     		uxtb	r3, r3
 331 0052 43F00103 		orr	r3, r3, #1
 332 0056 DBB2     		uxtb	r3, r3
 333 0058 1370     		strb	r3, [r2]
 424:.\Generated_Source\PSoC5/CapSense_CSD.c ****         
 425:.\Generated_Source\PSoC5/CapSense_CSD.c ****         #if (CapSense_CSD_DESIGN_TYPE == CapSense_CSD_TWO_CHANNELS_DESIGN)
 426:.\Generated_Source\PSoC5/CapSense_CSD.c ****             CapSense_CSD_BufCH1_CAPS_CFG0_REG |= CapSense_CSD_CSBUF_ENABLE;
 427:.\Generated_Source\PSoC5/CapSense_CSD.c ****         #endif  /* (CapSense_CSD_DESIGN_TYPE == CapSense_CSD_TWO_CHANNELS_DESIGN) */
 428:.\Generated_Source\PSoC5/CapSense_CSD.c ****     #endif  /* (CapSense_CSD_VREF_VDAC == CapSense_CSD_VREF_OPTIONS)*/
 429:.\Generated_Source\PSoC5/CapSense_CSD.c ****     
 430:.\Generated_Source\PSoC5/CapSense_CSD.c ****     CyExitCriticalSection(enableInterrupts);
 334              		.loc 1 430 0
 335 005a FB79     		ldrb	r3, [r7, #7]	@ zero_extendqisi2
 336 005c 1846     		mov	r0, r3
 337 005e FFF7FEFF 		bl	CyExitCriticalSection
 431:.\Generated_Source\PSoC5/CapSense_CSD.c ****     
 432:.\Generated_Source\PSoC5/CapSense_CSD.c ****     /* Enable interrupt */
 433:.\Generated_Source\PSoC5/CapSense_CSD.c ****     CyIntEnable(CapSense_CSD_IsrCH0_ISR_NUMBER);
 338              		.loc 1 433 0
 339 0062 0B4B     		ldr	r3, .L5+16
 340 0064 0122     		movs	r2, #1
 341 0066 1A60     		str	r2, [r3]
 434:.\Generated_Source\PSoC5/CapSense_CSD.c ****     #if (CapSense_CSD_DESIGN_TYPE == CapSense_CSD_TWO_CHANNELS_DESIGN) 
 435:.\Generated_Source\PSoC5/CapSense_CSD.c ****         CyIntEnable(CapSense_CSD_IsrCH1_ISR_NUMBER);
 436:.\Generated_Source\PSoC5/CapSense_CSD.c ****     #endif  /* CapSense_CSD_DESIGN_TYPE */
 437:.\Generated_Source\PSoC5/CapSense_CSD.c ****     
 438:.\Generated_Source\PSoC5/CapSense_CSD.c ****     /* Set CapSense Enable state */
 439:.\Generated_Source\PSoC5/CapSense_CSD.c ****     CapSense_CSD_CONTROL_REG |= CapSense_CSD_CTRL_CAPSENSE_EN;
 342              		.loc 1 439 0
 343 0068 0A4A     		ldr	r2, .L5+20
 344 006a 0A4B     		ldr	r3, .L5+20
 345 006c 1B78     		ldrb	r3, [r3]
 346 006e DBB2     		uxtb	r3, r3
 347 0070 63F07F03 		orn	r3, r3, #127
 348 0074 DBB2     		uxtb	r3, r3
 349 0076 1370     		strb	r3, [r2]
 440:.\Generated_Source\PSoC5/CapSense_CSD.c **** }
 350              		.loc 1 440 0
 351 0078 0837     		adds	r7, r7, #8
 352              		.cfi_def_cfa_offset 8
 353 007a BD46     		mov	sp, r7
 354              		.cfi_def_cfa_register 13
 355              		@ sp needed
 356 007c 80BD     		pop	{r7, pc}
 357              	.L6:
 358 007e 00BF     		.align	2
ARM GAS  C:\Users\mark6\AppData\Local\Temp\ccG3DDgg.s 			page 15


 359              	.L5:
 360 0080 9E640040 		.word	1073767582
 361 0084 BB430040 		.word	1073759163
 362 0088 AB430040 		.word	1073759147
 363 008c 70580040 		.word	1073764464
 364 0090 00E100E0 		.word	-536813312
 365 0094 7D640040 		.word	1073767549
 366              		.cfi_endproc
 367              	.LFE1:
 368              		.size	CapSense_CSD_Enable, .-CapSense_CSD_Enable
 369              		.section	.text.CapSense_CSD_Start,"ax",%progbits
 370              		.align	2
 371              		.global	CapSense_CSD_Start
 372              		.thumb
 373              		.thumb_func
 374              		.type	CapSense_CSD_Start, %function
 375              	CapSense_CSD_Start:
 376              	.LFB2:
 441:.\Generated_Source\PSoC5/CapSense_CSD.c **** 
 442:.\Generated_Source\PSoC5/CapSense_CSD.c **** 
 443:.\Generated_Source\PSoC5/CapSense_CSD.c **** /*******************************************************************************
 444:.\Generated_Source\PSoC5/CapSense_CSD.c **** * Function Name: CapSense_CSD_Start
 445:.\Generated_Source\PSoC5/CapSense_CSD.c **** ********************************************************************************
 446:.\Generated_Source\PSoC5/CapSense_CSD.c **** *
 447:.\Generated_Source\PSoC5/CapSense_CSD.c **** * Summary:
 448:.\Generated_Source\PSoC5/CapSense_CSD.c **** *  Initializes registers and starts the CSD method of CapSense component. Reset 
 449:.\Generated_Source\PSoC5/CapSense_CSD.c **** *  all sensors to an inactive state. Enables interrupts for sensors scanning.
 450:.\Generated_Source\PSoC5/CapSense_CSD.c **** *  When Auto Tuning (SmartSense) mode is selected the tuning procedure is 
 451:.\Generated_Source\PSoC5/CapSense_CSD.c **** *  applied for all sensors.
 452:.\Generated_Source\PSoC5/CapSense_CSD.c **** *
 453:.\Generated_Source\PSoC5/CapSense_CSD.c **** * Parameters:
 454:.\Generated_Source\PSoC5/CapSense_CSD.c **** *  None
 455:.\Generated_Source\PSoC5/CapSense_CSD.c **** *
 456:.\Generated_Source\PSoC5/CapSense_CSD.c **** * Return:
 457:.\Generated_Source\PSoC5/CapSense_CSD.c **** *  None
 458:.\Generated_Source\PSoC5/CapSense_CSD.c **** *
 459:.\Generated_Source\PSoC5/CapSense_CSD.c **** * Global Variables:
 460:.\Generated_Source\PSoC5/CapSense_CSD.c **** *  CapSense_CSD_initVar - used to check initial configuration, modified on 
 461:.\Generated_Source\PSoC5/CapSense_CSD.c **** *  first function call.
 462:.\Generated_Source\PSoC5/CapSense_CSD.c **** *  CapSense_CSD_lowLevelTuningDone - used to notify the Tuner GUI that 
 463:.\Generated_Source\PSoC5/CapSense_CSD.c **** *  tuning of scanning parameters are done.
 464:.\Generated_Source\PSoC5/CapSense_CSD.c **** *
 465:.\Generated_Source\PSoC5/CapSense_CSD.c **** * Reentrant:
 466:.\Generated_Source\PSoC5/CapSense_CSD.c **** *  No
 467:.\Generated_Source\PSoC5/CapSense_CSD.c **** *
 468:.\Generated_Source\PSoC5/CapSense_CSD.c **** * Note:
 469:.\Generated_Source\PSoC5/CapSense_CSD.c **** *  All widgets are enabled by default except proximity widgets. Proximity widgets 
 470:.\Generated_Source\PSoC5/CapSense_CSD.c **** *  must be manually enabled as their long scan time is incompatible 
 471:.\Generated_Source\PSoC5/CapSense_CSD.c **** *  with the fast response required of other widget types. 
 472:.\Generated_Source\PSoC5/CapSense_CSD.c **** *
 473:.\Generated_Source\PSoC5/CapSense_CSD.c **** *******************************************************************************/
 474:.\Generated_Source\PSoC5/CapSense_CSD.c **** void CapSense_CSD_Start(void)  
 475:.\Generated_Source\PSoC5/CapSense_CSD.c **** {
 377              		.loc 1 475 0
 378              		.cfi_startproc
 379              		@ args = 0, pretend = 0, frame = 0
 380              		@ frame_needed = 1, uses_anonymous_args = 0
ARM GAS  C:\Users\mark6\AppData\Local\Temp\ccG3DDgg.s 			page 16


 381 0000 80B5     		push	{r7, lr}
 382              		.cfi_def_cfa_offset 8
 383              		.cfi_offset 7, -8
 384              		.cfi_offset 14, -4
 385 0002 00AF     		add	r7, sp, #0
 386              		.cfi_def_cfa_register 7
 476:.\Generated_Source\PSoC5/CapSense_CSD.c ****     if (CapSense_CSD_initVar == 0u)
 387              		.loc 1 476 0
 388 0004 084B     		ldr	r3, .L9
 389 0006 1B78     		ldrb	r3, [r3]	@ zero_extendqisi2
 390 0008 002B     		cmp	r3, #0
 391 000a 04D1     		bne	.L8
 477:.\Generated_Source\PSoC5/CapSense_CSD.c ****     {
 478:.\Generated_Source\PSoC5/CapSense_CSD.c ****         CapSense_CSD_Init();
 392              		.loc 1 478 0
 393 000c FFF7FEFF 		bl	CapSense_CSD_Init
 479:.\Generated_Source\PSoC5/CapSense_CSD.c ****         CapSense_CSD_initVar = 1u;
 394              		.loc 1 479 0
 395 0010 054B     		ldr	r3, .L9
 396 0012 0122     		movs	r2, #1
 397 0014 1A70     		strb	r2, [r3]
 398              	.L8:
 480:.\Generated_Source\PSoC5/CapSense_CSD.c ****     }
 481:.\Generated_Source\PSoC5/CapSense_CSD.c ****     CapSense_CSD_Enable();
 399              		.loc 1 481 0
 400 0016 FFF7FEFF 		bl	CapSense_CSD_Enable
 482:.\Generated_Source\PSoC5/CapSense_CSD.c ****     
 483:.\Generated_Source\PSoC5/CapSense_CSD.c ****     /* AutoTunning start */
 484:.\Generated_Source\PSoC5/CapSense_CSD.c ****     #if (CapSense_CSD_TUNING_METHOD == CapSense_CSD_AUTO_TUNING)
 485:.\Generated_Source\PSoC5/CapSense_CSD.c ****         /* AutoTune by sensor or pair of sensor basis */
 486:.\Generated_Source\PSoC5/CapSense_CSD.c ****         CapSense_CSD_AutoTune();
 401              		.loc 1 486 0
 402 001a FFF7FEFF 		bl	CapSense_CSD_AutoTune
 487:.\Generated_Source\PSoC5/CapSense_CSD.c ****         CapSense_CSD_lowLevelTuningDone = 1u;
 403              		.loc 1 487 0
 404 001e 034B     		ldr	r3, .L9+4
 405 0020 0122     		movs	r2, #1
 406 0022 1A70     		strb	r2, [r3]
 488:.\Generated_Source\PSoC5/CapSense_CSD.c ****     #endif /* (CapSense_CSD_TUNING_METHOD == CapSense_CSD_AUTO_TUNING) */
 489:.\Generated_Source\PSoC5/CapSense_CSD.c **** }
 407              		.loc 1 489 0
 408 0024 80BD     		pop	{r7, pc}
 409              	.L10:
 410 0026 00BF     		.align	2
 411              	.L9:
 412 0028 00000000 		.word	CapSense_CSD_initVar
 413 002c 00000000 		.word	CapSense_CSD_lowLevelTuningDone
 414              		.cfi_endproc
 415              	.LFE2:
 416              		.size	CapSense_CSD_Start, .-CapSense_CSD_Start
 417              		.section	.text.CapSense_CSD_Stop,"ax",%progbits
 418              		.align	2
 419              		.global	CapSense_CSD_Stop
 420              		.thumb
 421              		.thumb_func
 422              		.type	CapSense_CSD_Stop, %function
 423              	CapSense_CSD_Stop:
ARM GAS  C:\Users\mark6\AppData\Local\Temp\ccG3DDgg.s 			page 17


 424              	.LFB3:
 490:.\Generated_Source\PSoC5/CapSense_CSD.c **** 
 491:.\Generated_Source\PSoC5/CapSense_CSD.c **** 
 492:.\Generated_Source\PSoC5/CapSense_CSD.c **** /*******************************************************************************
 493:.\Generated_Source\PSoC5/CapSense_CSD.c **** * Function Name: CapSense_CSD_Stop
 494:.\Generated_Source\PSoC5/CapSense_CSD.c **** ********************************************************************************
 495:.\Generated_Source\PSoC5/CapSense_CSD.c **** *
 496:.\Generated_Source\PSoC5/CapSense_CSD.c **** * Summary:
 497:.\Generated_Source\PSoC5/CapSense_CSD.c **** *  Stops the sensors scanner, disables internal interrupts, and resets all 
 498:.\Generated_Source\PSoC5/CapSense_CSD.c **** *  sensors to an inactive state. Disables Active mode power template bits for 
 499:.\Generated_Source\PSoC5/CapSense_CSD.c **** *  number of component used within CapSense.
 500:.\Generated_Source\PSoC5/CapSense_CSD.c **** *
 501:.\Generated_Source\PSoC5/CapSense_CSD.c **** * Parameters:
 502:.\Generated_Source\PSoC5/CapSense_CSD.c **** *  None
 503:.\Generated_Source\PSoC5/CapSense_CSD.c **** *
 504:.\Generated_Source\PSoC5/CapSense_CSD.c **** * Return:
 505:.\Generated_Source\PSoC5/CapSense_CSD.c **** *  None
 506:.\Generated_Source\PSoC5/CapSense_CSD.c **** *
 507:.\Generated_Source\PSoC5/CapSense_CSD.c **** * Side Effects:
 508:.\Generated_Source\PSoC5/CapSense_CSD.c **** *  This function should be called after scans will be completed.
 509:.\Generated_Source\PSoC5/CapSense_CSD.c **** *
 510:.\Generated_Source\PSoC5/CapSense_CSD.c **** *******************************************************************************/
 511:.\Generated_Source\PSoC5/CapSense_CSD.c **** void CapSense_CSD_Stop(void) 
 512:.\Generated_Source\PSoC5/CapSense_CSD.c **** {
 425              		.loc 1 512 0
 426              		.cfi_startproc
 427              		@ args = 0, pretend = 0, frame = 0
 428              		@ frame_needed = 1, uses_anonymous_args = 0
 429 0000 80B5     		push	{r7, lr}
 430              		.cfi_def_cfa_offset 8
 431              		.cfi_offset 7, -8
 432              		.cfi_offset 14, -4
 433 0002 00AF     		add	r7, sp, #0
 434              		.cfi_def_cfa_register 7
 513:.\Generated_Source\PSoC5/CapSense_CSD.c ****     /* Stop Capsensing */
 514:.\Generated_Source\PSoC5/CapSense_CSD.c ****     CapSense_CSD_CONTROL_REG &= (uint8)(~CapSense_CSD_CTRL_START);
 435              		.loc 1 514 0
 436 0004 1D4A     		ldr	r2, .L12
 437 0006 1D4B     		ldr	r3, .L12
 438 0008 1B78     		ldrb	r3, [r3]
 439 000a DBB2     		uxtb	r3, r3
 440 000c 23F00203 		bic	r3, r3, #2
 441 0010 DBB2     		uxtb	r3, r3
 442 0012 1370     		strb	r3, [r2]
 515:.\Generated_Source\PSoC5/CapSense_CSD.c ****     
 516:.\Generated_Source\PSoC5/CapSense_CSD.c ****     /* Disable interrupt */
 517:.\Generated_Source\PSoC5/CapSense_CSD.c ****     CyIntDisable(CapSense_CSD_IsrCH0_ISR_NUMBER);
 443              		.loc 1 517 0
 444 0014 1A4B     		ldr	r3, .L12+4
 445 0016 0122     		movs	r2, #1
 446 0018 1A60     		str	r2, [r3]
 518:.\Generated_Source\PSoC5/CapSense_CSD.c ****     #if (CapSense_CSD_DESIGN_TYPE == CapSense_CSD_TWO_CHANNELS_DESIGN) 
 519:.\Generated_Source\PSoC5/CapSense_CSD.c ****         CyIntDisable(CapSense_CSD_IsrCH1_ISR_NUMBER);
 520:.\Generated_Source\PSoC5/CapSense_CSD.c ****     #endif  /* CapSense_CSD_DESIGN_TYPE */
 521:.\Generated_Source\PSoC5/CapSense_CSD.c ****     
 522:.\Generated_Source\PSoC5/CapSense_CSD.c ****     /* Clear all sensors */
 523:.\Generated_Source\PSoC5/CapSense_CSD.c ****     CapSense_CSD_ClearSensors();
ARM GAS  C:\Users\mark6\AppData\Local\Temp\ccG3DDgg.s 			page 18


 447              		.loc 1 523 0
 448 001a FFF7FEFF 		bl	CapSense_CSD_ClearSensors
 524:.\Generated_Source\PSoC5/CapSense_CSD.c ****     
 525:.\Generated_Source\PSoC5/CapSense_CSD.c ****     /* Disable Prescaler */
 526:.\Generated_Source\PSoC5/CapSense_CSD.c ****     #if (CapSense_CSD_PRESCALER_OPTIONS == CapSense_CSD_PRESCALER_UDB)
 527:.\Generated_Source\PSoC5/CapSense_CSD.c ****         /* Do nothing  for UDB */
 528:.\Generated_Source\PSoC5/CapSense_CSD.c ****     #elif (CapSense_CSD_PRESCALER_OPTIONS == CapSense_CSD_PRESCALER_FF)        
 529:.\Generated_Source\PSoC5/CapSense_CSD.c ****         CapSense_CSD_PRESCALER_ACT_PWRMGR_REG  &= ~CapSense_CSD_PRESCALER_ACT_PWR_EN;
 530:.\Generated_Source\PSoC5/CapSense_CSD.c ****         CapSense_CSD_PRESCALER_STBY_PWRMGR_REG &= ~CapSense_CSD_PRESCALER_STBY_PWR_EN;
 531:.\Generated_Source\PSoC5/CapSense_CSD.c ****         
 532:.\Generated_Source\PSoC5/CapSense_CSD.c ****     #else
 533:.\Generated_Source\PSoC5/CapSense_CSD.c ****         /* Do nothing = config without prescaler */
 534:.\Generated_Source\PSoC5/CapSense_CSD.c ****     #endif  /* (CapSense_CSD_PRESCALER_OPTIONS == CapSense_CSD_PRESCALER_UDB) */
 535:.\Generated_Source\PSoC5/CapSense_CSD.c ****     
 536:.\Generated_Source\PSoC5/CapSense_CSD.c ****     /* Disable ScanSpeed */
 537:.\Generated_Source\PSoC5/CapSense_CSD.c ****     CapSense_CSD_SCANSPEED_AUX_CONTROL_REG &= (uint8)(~CapSense_CSD_SCANSPEED_CTRL_ENABLE);
 449              		.loc 1 537 0
 450 001e 194A     		ldr	r2, .L12+8
 451 0020 184B     		ldr	r3, .L12+8
 452 0022 1B78     		ldrb	r3, [r3]
 453 0024 DBB2     		uxtb	r3, r3
 454 0026 23F02003 		bic	r3, r3, #32
 455 002a DBB2     		uxtb	r3, r3
 456 002c 1370     		strb	r3, [r2]
 538:.\Generated_Source\PSoC5/CapSense_CSD.c ****     
 539:.\Generated_Source\PSoC5/CapSense_CSD.c ****     /* Disable Measure CH0 */
 540:.\Generated_Source\PSoC5/CapSense_CSD.c ****     #if (CapSense_CSD_IMPLEMENTATION_CH0 == CapSense_CSD_MEASURE_IMPLEMENTATION_FF)
 541:.\Generated_Source\PSoC5/CapSense_CSD.c ****         /* Window PWM */
 542:.\Generated_Source\PSoC5/CapSense_CSD.c ****         CapSense_CSD_PWM_CH0_ACT_PWRMGR_REG  &= ~CapSense_CSD_PWM_CH0_ACT_PWR_EN;
 543:.\Generated_Source\PSoC5/CapSense_CSD.c ****         CapSense_CSD_PWM_CH0_STBY_PWRMGR_REG &= ~CapSense_CSD_PWM_CH0_STBY_PWR_EN;
 544:.\Generated_Source\PSoC5/CapSense_CSD.c **** 
 545:.\Generated_Source\PSoC5/CapSense_CSD.c ****         /* Raw Counter */
 546:.\Generated_Source\PSoC5/CapSense_CSD.c ****         CapSense_CSD_RAW_CH0_ACT_PWRMGR_REG  &= ~CapSense_CSD_RAW_CH0_ACT_PWR_EN;
 547:.\Generated_Source\PSoC5/CapSense_CSD.c ****         CapSense_CSD_RAW_CH0_STBY_PWRMGR_REG &= ~CapSense_CSD_RAW_CH0_STBY_PWR_EN;
 548:.\Generated_Source\PSoC5/CapSense_CSD.c **** 
 549:.\Generated_Source\PSoC5/CapSense_CSD.c ****     #else
 550:.\Generated_Source\PSoC5/CapSense_CSD.c ****         /* Window PWM -  Do nothing */
 551:.\Generated_Source\PSoC5/CapSense_CSD.c ****         /* Raw Counter - Do nothing */
 552:.\Generated_Source\PSoC5/CapSense_CSD.c ****         
 553:.\Generated_Source\PSoC5/CapSense_CSD.c ****     #endif  /* (CapSense_CSD_IMPLEMENTATION_CH0 == CapSense_CSD_MEASURE_IMPLEMENTATION_FF) */ 
 554:.\Generated_Source\PSoC5/CapSense_CSD.c ****     
 555:.\Generated_Source\PSoC5/CapSense_CSD.c ****     /* Disable Measure CH1 */
 556:.\Generated_Source\PSoC5/CapSense_CSD.c ****     #if (CapSense_CSD_DESIGN_TYPE == CapSense_CSD_TWO_CHANNELS_DESIGN)
 557:.\Generated_Source\PSoC5/CapSense_CSD.c ****         #if (CapSense_CSD_IMPLEMENTATION_CH1 == CapSense_CSD_MEASURE_IMPLEMENTATION_FF)
 558:.\Generated_Source\PSoC5/CapSense_CSD.c ****             /* Window PWM */
 559:.\Generated_Source\PSoC5/CapSense_CSD.c ****             CapSense_CSD_PWM_CH1_ACT_PWRMGR_REG  &= ~CapSense_CSD_PWM_CH1_ACT_PWR_EN;
 560:.\Generated_Source\PSoC5/CapSense_CSD.c ****             CapSense_CSD_PWM_CH1_STBY_PWRMGR_REG &= ~CapSense_CSD_PWM_CH1_STBY_PWR_EN;
 561:.\Generated_Source\PSoC5/CapSense_CSD.c ****     
 562:.\Generated_Source\PSoC5/CapSense_CSD.c ****             /* Raw Counter */
 563:.\Generated_Source\PSoC5/CapSense_CSD.c ****             CapSense_CSD_RAW_CH1_ACT_PWRMGR_REG  &= ~CapSense_CSD_RAW_CH1_ACT_PWR_EN;
 564:.\Generated_Source\PSoC5/CapSense_CSD.c ****             CapSense_CSD_RAW_CH1_STBY_PWRMGR_REG &= ~CapSense_CSD_RAW_CH1_STBY_PWR_EN;
 565:.\Generated_Source\PSoC5/CapSense_CSD.c ****            
 566:.\Generated_Source\PSoC5/CapSense_CSD.c ****         #else
 567:.\Generated_Source\PSoC5/CapSense_CSD.c ****         /* Window PWM -  Do nothing */
 568:.\Generated_Source\PSoC5/CapSense_CSD.c ****         /* Raw Counter - Do nothing */
 569:.\Generated_Source\PSoC5/CapSense_CSD.c ****         
 570:.\Generated_Source\PSoC5/CapSense_CSD.c ****         #endif  /* (CapSense_CSD_IMPLEMENTATION_CH1 == CapSense_CSD_MEASURE_IMPLEMENTATION_FF) */
ARM GAS  C:\Users\mark6\AppData\Local\Temp\ccG3DDgg.s 			page 19


 571:.\Generated_Source\PSoC5/CapSense_CSD.c ****     
 572:.\Generated_Source\PSoC5/CapSense_CSD.c ****     #endif  /* (CapSense_CSD_DESIGN_TYPE == TWO_CHANNELS_DESIGN)*/
 573:.\Generated_Source\PSoC5/CapSense_CSD.c ****     
 574:.\Generated_Source\PSoC5/CapSense_CSD.c ****     /* Disable the Clock */
 575:.\Generated_Source\PSoC5/CapSense_CSD.c ****     #if (CapSense_CSD_CLOCK_SOURCE == CapSense_CSD_INTERNAL_CLOCK)
 576:.\Generated_Source\PSoC5/CapSense_CSD.c ****        CapSense_CSD_IntClock_Stop();
 457              		.loc 1 576 0
 458 002e FFF7FEFF 		bl	CapSense_CSD_IntClock_Stop
 577:.\Generated_Source\PSoC5/CapSense_CSD.c ****     #endif  /* CapSense_CSD_CLOCK_SOURCE */
 578:.\Generated_Source\PSoC5/CapSense_CSD.c ****     
 579:.\Generated_Source\PSoC5/CapSense_CSD.c ****     /* Disable power from Cmp and Idac */
 580:.\Generated_Source\PSoC5/CapSense_CSD.c ****     CapSense_CSD_CompCH0_Stop();
 459              		.loc 1 580 0
 460 0032 FFF7FEFF 		bl	CapSense_CSD_CompCH0_Stop
 581:.\Generated_Source\PSoC5/CapSense_CSD.c ****     #if (CapSense_CSD_CURRENT_SOURCE)
 582:.\Generated_Source\PSoC5/CapSense_CSD.c ****         CapSense_CSD_IdacCH0_Stop();
 461              		.loc 1 582 0
 462 0036 FFF7FEFF 		bl	CapSense_CSD_IdacCH0_Stop
 583:.\Generated_Source\PSoC5/CapSense_CSD.c ****     #endif  /* CapSense_CSD_CURRENT_SOURCE */
 584:.\Generated_Source\PSoC5/CapSense_CSD.c ****     
 585:.\Generated_Source\PSoC5/CapSense_CSD.c ****     #if (CapSense_CSD_DESIGN_TYPE == CapSense_CSD_TWO_CHANNELS_DESIGN) 
 586:.\Generated_Source\PSoC5/CapSense_CSD.c ****         CapSense_CSD_CompCH1_Stop();
 587:.\Generated_Source\PSoC5/CapSense_CSD.c ****         #if (CapSense_CSD_CURRENT_SOURCE)
 588:.\Generated_Source\PSoC5/CapSense_CSD.c ****             CapSense_CSD_IdacCH1_Stop();
 589:.\Generated_Source\PSoC5/CapSense_CSD.c ****         #endif  /* CapSense_CSD_CURRENT_SOURCE */
 590:.\Generated_Source\PSoC5/CapSense_CSD.c ****     #endif  /* CapSense_CSD_DESIGN_TYPE */    
 591:.\Generated_Source\PSoC5/CapSense_CSD.c ****     
 592:.\Generated_Source\PSoC5/CapSense_CSD.c ****     /* Disable Vref if as VDAC */
 593:.\Generated_Source\PSoC5/CapSense_CSD.c ****     #if (CapSense_CSD_VREF_OPTIONS == CapSense_CSD_VREF_VDAC)
 594:.\Generated_Source\PSoC5/CapSense_CSD.c ****         CapSense_CSD_VdacRefCH0_Stop();
 595:.\Generated_Source\PSoC5/CapSense_CSD.c ****         #if (CapSense_CSD_DESIGN_TYPE == CapSense_CSD_TWO_CHANNELS_DESIGN)
 596:.\Generated_Source\PSoC5/CapSense_CSD.c ****             CapSense_CSD_VdacRefCH1_Stop();
 597:.\Generated_Source\PSoC5/CapSense_CSD.c ****         #endif  /* CapSense_CSD_DESIGN_TYPE */
 598:.\Generated_Source\PSoC5/CapSense_CSD.c ****     #endif  /* CapSense_CSD_VREF_OPTIONS */
 599:.\Generated_Source\PSoC5/CapSense_CSD.c **** 
 600:.\Generated_Source\PSoC5/CapSense_CSD.c ****     #if (CapSense_CSD_VREF_VDAC == CapSense_CSD_VREF_OPTIONS)
 601:.\Generated_Source\PSoC5/CapSense_CSD.c ****         /* The Idac turn off before */
 602:.\Generated_Source\PSoC5/CapSense_CSD.c ****     #else
 603:.\Generated_Source\PSoC5/CapSense_CSD.c ****         /* Enable CapSense Buf */
 604:.\Generated_Source\PSoC5/CapSense_CSD.c ****         CapSense_CSD_BufCH0_CAPS_CFG0_REG &= (uint8)(~CapSense_CSD_CSBUF_ENABLE);
 463              		.loc 1 604 0
 464 003a 134A     		ldr	r2, .L12+12
 465 003c 124B     		ldr	r3, .L12+12
 466 003e 1B78     		ldrb	r3, [r3]
 467 0040 DBB2     		uxtb	r3, r3
 468 0042 23F00103 		bic	r3, r3, #1
 469 0046 DBB2     		uxtb	r3, r3
 470 0048 1370     		strb	r3, [r2]
 605:.\Generated_Source\PSoC5/CapSense_CSD.c ****         CapSense_CSD_BufCH0_ACT_PWRMGR_REG &= (uint8)(~CapSense_CSD_BufCH0_ACT_PWR_EN);
 471              		.loc 1 605 0
 472 004a 104A     		ldr	r2, .L12+16
 473 004c 0F4B     		ldr	r3, .L12+16
 474 004e 1B78     		ldrb	r3, [r3]
 475 0050 DBB2     		uxtb	r3, r3
 476 0052 23F01003 		bic	r3, r3, #16
 477 0056 DBB2     		uxtb	r3, r3
 478 0058 1370     		strb	r3, [r2]
ARM GAS  C:\Users\mark6\AppData\Local\Temp\ccG3DDgg.s 			page 20


 606:.\Generated_Source\PSoC5/CapSense_CSD.c ****         CapSense_CSD_BufCH0_STBY_PWRMGR_REG &= (uint8)(~CapSense_CSD_BufCH0_STBY_PWR_EN);
 479              		.loc 1 606 0
 480 005a 0D4A     		ldr	r2, .L12+20
 481 005c 0C4B     		ldr	r3, .L12+20
 482 005e 1B78     		ldrb	r3, [r3]
 483 0060 DBB2     		uxtb	r3, r3
 484 0062 23F01003 		bic	r3, r3, #16
 485 0066 DBB2     		uxtb	r3, r3
 486 0068 1370     		strb	r3, [r2]
 607:.\Generated_Source\PSoC5/CapSense_CSD.c ****         
 608:.\Generated_Source\PSoC5/CapSense_CSD.c ****         #if (CapSense_CSD_DESIGN_TYPE == CapSense_CSD_TWO_CHANNELS_DESIGN)
 609:.\Generated_Source\PSoC5/CapSense_CSD.c ****             CapSense_CSD_BufCH1_CAPS_CFG0_REG &= (uint8)(~CapSense_CSD_CSBUF_ENABLE);
 610:.\Generated_Source\PSoC5/CapSense_CSD.c ****             CapSense_CSD_BufCH1_ACT_PWRMGR_REG &= (uint8)(~CapSense_CSD_BufCH1_ACT_PWR_EN);
 611:.\Generated_Source\PSoC5/CapSense_CSD.c ****             CapSense_CSD_BufCH1_STBY_PWRMGR_REG &= (uint8)(~CapSense_CSD_BufCH1_STBY_PWR_EN);
 612:.\Generated_Source\PSoC5/CapSense_CSD.c ****         #endif  /*(CapSense_CSD_DESIGN_TYPE == CapSense_CSD_TWO_CHANNELS_DESIGN) */
 613:.\Generated_Source\PSoC5/CapSense_CSD.c ****     #endif  /* (CapSense_CSD_VREF_VDAC == CapSense_CSD_VREF_OPTIONS) */
 614:.\Generated_Source\PSoC5/CapSense_CSD.c ****     
 615:.\Generated_Source\PSoC5/CapSense_CSD.c ****     /* Set CapSense Disable state */
 616:.\Generated_Source\PSoC5/CapSense_CSD.c ****     CapSense_CSD_CONTROL_REG &= (uint8)(~CapSense_CSD_CTRL_CAPSENSE_EN);
 487              		.loc 1 616 0
 488 006a 044A     		ldr	r2, .L12
 489 006c 034B     		ldr	r3, .L12
 490 006e 1B78     		ldrb	r3, [r3]
 491 0070 DBB2     		uxtb	r3, r3
 492 0072 03F07F03 		and	r3, r3, #127
 493 0076 DBB2     		uxtb	r3, r3
 494 0078 1370     		strb	r3, [r2]
 617:.\Generated_Source\PSoC5/CapSense_CSD.c **** }
 495              		.loc 1 617 0
 496 007a 80BD     		pop	{r7, pc}
 497              	.L13:
 498              		.align	2
 499              	.L12:
 500 007c 7D640040 		.word	1073767549
 501 0080 80E100E0 		.word	-536813184
 502 0084 9E640040 		.word	1073767582
 503 0088 70580040 		.word	1073764464
 504 008c AB430040 		.word	1073759147
 505 0090 BB430040 		.word	1073759163
 506              		.cfi_endproc
 507              	.LFE3:
 508              		.size	CapSense_CSD_Stop, .-CapSense_CSD_Stop
 509              		.section	.text.CapSense_CSD_FindNextSensor,"ax",%progbits
 510              		.align	2
 511              		.global	CapSense_CSD_FindNextSensor
 512              		.thumb
 513              		.thumb_func
 514              		.type	CapSense_CSD_FindNextSensor, %function
 515              	CapSense_CSD_FindNextSensor:
 516              	.LFB4:
 618:.\Generated_Source\PSoC5/CapSense_CSD.c **** 
 619:.\Generated_Source\PSoC5/CapSense_CSD.c **** 
 620:.\Generated_Source\PSoC5/CapSense_CSD.c **** #if (CapSense_CSD_DESIGN_TYPE == CapSense_CSD_ONE_CHANNEL_DESIGN)
 621:.\Generated_Source\PSoC5/CapSense_CSD.c ****     /*******************************************************************************
 622:.\Generated_Source\PSoC5/CapSense_CSD.c ****     * Function Name: CapSense_CSD_FindNextSensor
 623:.\Generated_Source\PSoC5/CapSense_CSD.c ****     ********************************************************************************
 624:.\Generated_Source\PSoC5/CapSense_CSD.c ****     *
ARM GAS  C:\Users\mark6\AppData\Local\Temp\ccG3DDgg.s 			page 21


 625:.\Generated_Source\PSoC5/CapSense_CSD.c ****     * Summary:
 626:.\Generated_Source\PSoC5/CapSense_CSD.c ****     *  Finds next sensor to scan. 
 627:.\Generated_Source\PSoC5/CapSense_CSD.c ****     *
 628:.\Generated_Source\PSoC5/CapSense_CSD.c ****     * Parameters:
 629:.\Generated_Source\PSoC5/CapSense_CSD.c ****     *  snsIndex:  Current index of sensor.
 630:.\Generated_Source\PSoC5/CapSense_CSD.c ****     *
 631:.\Generated_Source\PSoC5/CapSense_CSD.c ****     * Return:
 632:.\Generated_Source\PSoC5/CapSense_CSD.c ****     *  Returns the next sensor index to scan.
 633:.\Generated_Source\PSoC5/CapSense_CSD.c ****     *
 634:.\Generated_Source\PSoC5/CapSense_CSD.c ****     * Global Variables:
 635:.\Generated_Source\PSoC5/CapSense_CSD.c ****     *  CapSense_CSD_sensorEnableMask[ ] - used to store bit masks of enabled 
 636:.\Generated_Source\PSoC5/CapSense_CSD.c ****     *  sensors.
 637:.\Generated_Source\PSoC5/CapSense_CSD.c ****     *  CapSense_CSD_sensorEnableMask[0] contains the masked bits for sensors 0
 638:.\Generated_Source\PSoC5/CapSense_CSD.c ****     *  through 7 (sensor 0 is bit 0, sensor 1 is bit 1).
 639:.\Generated_Source\PSoC5/CapSense_CSD.c ****     *  CapSense_CSD_sensorEnableMask[1] contains the masked bits for sensors 
 640:.\Generated_Source\PSoC5/CapSense_CSD.c ****     *  8 through 15 (if needed), and so on.
 641:.\Generated_Source\PSoC5/CapSense_CSD.c ****     *    0 - sensor doesn't scan by CapSense_CSD_ScanEnabledWidgets().
 642:.\Generated_Source\PSoC5/CapSense_CSD.c ****     *    1 - sensor scans by CapSense_CSD_ScanEnabledWidgets().
 643:.\Generated_Source\PSoC5/CapSense_CSD.c ****     *
 644:.\Generated_Source\PSoC5/CapSense_CSD.c ****     * Note: 
 645:.\Generated_Source\PSoC5/CapSense_CSD.c ****     *  This function has effect on current scanning scanning and should not
 646:.\Generated_Source\PSoC5/CapSense_CSD.c ****     *  be used outisde of component.
 647:.\Generated_Source\PSoC5/CapSense_CSD.c ****     *
 648:.\Generated_Source\PSoC5/CapSense_CSD.c ****     *******************************************************************************/
 649:.\Generated_Source\PSoC5/CapSense_CSD.c ****     uint8 CapSense_CSD_FindNextSensor(uint8 snsIndex) CYREENTRANT
 650:.\Generated_Source\PSoC5/CapSense_CSD.c ****     {
 517              		.loc 1 650 0
 518              		.cfi_startproc
 519              		@ args = 0, pretend = 0, frame = 16
 520              		@ frame_needed = 1, uses_anonymous_args = 0
 521              		@ link register save eliminated.
 522 0000 80B4     		push	{r7}
 523              		.cfi_def_cfa_offset 4
 524              		.cfi_offset 7, -4
 525 0002 85B0     		sub	sp, sp, #20
 526              		.cfi_def_cfa_offset 24
 527 0004 00AF     		add	r7, sp, #0
 528              		.cfi_def_cfa_register 7
 529 0006 0346     		mov	r3, r0
 530 0008 FB71     		strb	r3, [r7, #7]
 531              	.L17:
 651:.\Generated_Source\PSoC5/CapSense_CSD.c ****         uint8 pos;
 652:.\Generated_Source\PSoC5/CapSense_CSD.c ****         uint8 enMask;
 653:.\Generated_Source\PSoC5/CapSense_CSD.c ****         
 654:.\Generated_Source\PSoC5/CapSense_CSD.c ****         /* Check if sensor enabled */
 655:.\Generated_Source\PSoC5/CapSense_CSD.c ****         do
 656:.\Generated_Source\PSoC5/CapSense_CSD.c ****         {
 657:.\Generated_Source\PSoC5/CapSense_CSD.c ****             /* Proceed with the next sensor */
 658:.\Generated_Source\PSoC5/CapSense_CSD.c ****             snsIndex++;
 532              		.loc 1 658 0
 533 000a FB79     		ldrb	r3, [r7, #7]	@ zero_extendqisi2
 534 000c 0133     		adds	r3, r3, #1
 535 000e FB71     		strb	r3, [r7, #7]
 659:.\Generated_Source\PSoC5/CapSense_CSD.c ****             if(snsIndex == CapSense_CSD_TOTAL_SENSOR_COUNT)
 536              		.loc 1 659 0
 537 0010 FB79     		ldrb	r3, [r7, #7]	@ zero_extendqisi2
 538 0012 012B     		cmp	r3, #1
ARM GAS  C:\Users\mark6\AppData\Local\Temp\ccG3DDgg.s 			page 22


 539 0014 00D1     		bne	.L15
 660:.\Generated_Source\PSoC5/CapSense_CSD.c ****             {
 661:.\Generated_Source\PSoC5/CapSense_CSD.c ****                 break;
 540              		.loc 1 661 0
 541 0016 11E0     		b	.L16
 542              	.L15:
 662:.\Generated_Source\PSoC5/CapSense_CSD.c ****             }
 663:.\Generated_Source\PSoC5/CapSense_CSD.c ****             pos = (snsIndex >> 3u);
 543              		.loc 1 663 0
 544 0018 FB79     		ldrb	r3, [r7, #7]	@ zero_extendqisi2
 545 001a DB08     		lsrs	r3, r3, #3
 546 001c FB73     		strb	r3, [r7, #15]
 664:.\Generated_Source\PSoC5/CapSense_CSD.c ****             enMask = 0x01u << (snsIndex & 0x07u);
 547              		.loc 1 664 0
 548 001e FB79     		ldrb	r3, [r7, #7]	@ zero_extendqisi2
 549 0020 03F00703 		and	r3, r3, #7
 550 0024 0122     		movs	r2, #1
 551 0026 02FA03F3 		lsl	r3, r2, r3
 552 002a BB73     		strb	r3, [r7, #14]
 665:.\Generated_Source\PSoC5/CapSense_CSD.c ****         }    
 666:.\Generated_Source\PSoC5/CapSense_CSD.c ****         while((CapSense_CSD_sensorEnableMask[pos] & enMask) == 0u);
 553              		.loc 1 666 0
 554 002c FB7B     		ldrb	r3, [r7, #15]	@ zero_extendqisi2
 555 002e 074A     		ldr	r2, .L19
 556 0030 D25C     		ldrb	r2, [r2, r3]	@ zero_extendqisi2
 557 0032 BB7B     		ldrb	r3, [r7, #14]
 558 0034 1340     		ands	r3, r3, r2
 559 0036 DBB2     		uxtb	r3, r3
 560 0038 002B     		cmp	r3, #0
 561 003a E6D0     		beq	.L17
 562              	.L16:
 667:.\Generated_Source\PSoC5/CapSense_CSD.c ****         
 668:.\Generated_Source\PSoC5/CapSense_CSD.c ****         return snsIndex;
 563              		.loc 1 668 0
 564 003c FB79     		ldrb	r3, [r7, #7]	@ zero_extendqisi2
 669:.\Generated_Source\PSoC5/CapSense_CSD.c ****     }
 565              		.loc 1 669 0
 566 003e 1846     		mov	r0, r3
 567 0040 1437     		adds	r7, r7, #20
 568              		.cfi_def_cfa_offset 4
 569 0042 BD46     		mov	sp, r7
 570              		.cfi_def_cfa_register 13
 571              		@ sp needed
 572 0044 5DF8047B 		ldr	r7, [sp], #4
 573              		.cfi_restore 7
 574              		.cfi_def_cfa_offset 0
 575 0048 7047     		bx	lr
 576              	.L20:
 577 004a 00BF     		.align	2
 578              	.L19:
 579 004c 00000000 		.word	CapSense_CSD_sensorEnableMask
 580              		.cfi_endproc
 581              	.LFE4:
 582              		.size	CapSense_CSD_FindNextSensor, .-CapSense_CSD_FindNextSensor
 583              		.section	.text.CapSense_CSD_SetScanSlotSettings,"ax",%progbits
 584              		.align	2
 585              		.global	CapSense_CSD_SetScanSlotSettings
ARM GAS  C:\Users\mark6\AppData\Local\Temp\ccG3DDgg.s 			page 23


 586              		.thumb
 587              		.thumb_func
 588              		.type	CapSense_CSD_SetScanSlotSettings, %function
 589              	CapSense_CSD_SetScanSlotSettings:
 590              	.LFB5:
 670:.\Generated_Source\PSoC5/CapSense_CSD.c ****  #endif  /* CapSense_CSD_DESIGN_TYPE == CapSense_CSD_ONE_CHANNEL_DESIGN */
 671:.\Generated_Source\PSoC5/CapSense_CSD.c ****  
 672:.\Generated_Source\PSoC5/CapSense_CSD.c ****  
 673:.\Generated_Source\PSoC5/CapSense_CSD.c **** #if (CapSense_CSD_DESIGN_TYPE == CapSense_CSD_TWO_CHANNELS_DESIGN)
 674:.\Generated_Source\PSoC5/CapSense_CSD.c ****     /*******************************************************************************
 675:.\Generated_Source\PSoC5/CapSense_CSD.c ****     * Function Name: CapSense_CSD_FindNextPair
 676:.\Generated_Source\PSoC5/CapSense_CSD.c ****     ********************************************************************************
 677:.\Generated_Source\PSoC5/CapSense_CSD.c ****     *
 678:.\Generated_Source\PSoC5/CapSense_CSD.c ****     * Summary:
 679:.\Generated_Source\PSoC5/CapSense_CSD.c ****     *  Finds next pair or sensor to scan. Sets condition bits to skip scanning.
 680:.\Generated_Source\PSoC5/CapSense_CSD.c ****     *  
 681:.\Generated_Source\PSoC5/CapSense_CSD.c ****     * Parameters:
 682:.\Generated_Source\PSoC5/CapSense_CSD.c ****     *  snsIndex:  Current index pair of sensors.
 683:.\Generated_Source\PSoC5/CapSense_CSD.c ****     *
 684:.\Generated_Source\PSoC5/CapSense_CSD.c ****     * Return:
 685:.\Generated_Source\PSoC5/CapSense_CSD.c ****     *  Returns the next pair of sensors index to scan.
 686:.\Generated_Source\PSoC5/CapSense_CSD.c ****     *
 687:.\Generated_Source\PSoC5/CapSense_CSD.c ****     * Global Variables:
 688:.\Generated_Source\PSoC5/CapSense_CSD.c ****     *  CapSense_CSD_sensorEnableMask[ ] - used to store bit masks of enabled 
 689:.\Generated_Source\PSoC5/CapSense_CSD.c ****     *  sensors.
 690:.\Generated_Source\PSoC5/CapSense_CSD.c ****     *  CapSense_CSD_sensorEnableMask[0] contains the masked bits for sensors 0
 691:.\Generated_Source\PSoC5/CapSense_CSD.c ****     *  through 7 (sensor 0 is bit 0, sensor 1 is bit 1).
 692:.\Generated_Source\PSoC5/CapSense_CSD.c ****     *  CapSense_CSD_sensorEnableMask[1] contains the masked bits for sensors 
 693:.\Generated_Source\PSoC5/CapSense_CSD.c ****     *  8 through 15 (if needed), and so on.
 694:.\Generated_Source\PSoC5/CapSense_CSD.c ****     *    0 - sensor doesn't scan by CapSense_CSD_ScanEnabledWidgets().
 695:.\Generated_Source\PSoC5/CapSense_CSD.c ****     *    1 - sensor scans by CapSense_CSD_ScanEnabledWidgets().
 696:.\Generated_Source\PSoC5/CapSense_CSD.c ****     *
 697:.\Generated_Source\PSoC5/CapSense_CSD.c ****     * Note: 
 698:.\Generated_Source\PSoC5/CapSense_CSD.c ****     *  This function has effect on control signals set for scanning and should not
 699:.\Generated_Source\PSoC5/CapSense_CSD.c ****     *  be used outisde of component.
 700:.\Generated_Source\PSoC5/CapSense_CSD.c ****     *
 701:.\Generated_Source\PSoC5/CapSense_CSD.c ****     *******************************************************************************/
 702:.\Generated_Source\PSoC5/CapSense_CSD.c ****     uint8 CapSense_CSD_FindNextPair(uint8 snsIndex) CYREENTRANT
 703:.\Generated_Source\PSoC5/CapSense_CSD.c ****     {
 704:.\Generated_Source\PSoC5/CapSense_CSD.c ****         uint8 posCh;
 705:.\Generated_Source\PSoC5/CapSense_CSD.c ****         uint8 enMaskCh;
 706:.\Generated_Source\PSoC5/CapSense_CSD.c ****         uint8 newRegValue;
 707:.\Generated_Source\PSoC5/CapSense_CSD.c ****         uint8 indexCh0 = snsIndex;
 708:.\Generated_Source\PSoC5/CapSense_CSD.c ****         uint8 indexCh1 = snsIndex + CapSense_CSD_TOTAL_SENSOR_COUNT__CH0;
 709:.\Generated_Source\PSoC5/CapSense_CSD.c ****         
 710:.\Generated_Source\PSoC5/CapSense_CSD.c ****         /* Find enabled sensor on channel 0 */
 711:.\Generated_Source\PSoC5/CapSense_CSD.c ****         do
 712:.\Generated_Source\PSoC5/CapSense_CSD.c ****         {
 713:.\Generated_Source\PSoC5/CapSense_CSD.c ****             /* Procced the scanning */
 714:.\Generated_Source\PSoC5/CapSense_CSD.c ****             indexCh0++;
 715:.\Generated_Source\PSoC5/CapSense_CSD.c ****             if (indexCh0 >= CapSense_CSD_TOTAL_SENSOR_COUNT__CH0)
 716:.\Generated_Source\PSoC5/CapSense_CSD.c ****             {
 717:.\Generated_Source\PSoC5/CapSense_CSD.c ****                 /* Lets hadle now all from CH1 */
 718:.\Generated_Source\PSoC5/CapSense_CSD.c ****                 indexCh0 = CapSense_CSD_END_OF_SCAN__CH0;
 719:.\Generated_Source\PSoC5/CapSense_CSD.c ****                 break;
 720:.\Generated_Source\PSoC5/CapSense_CSD.c ****             }
 721:.\Generated_Source\PSoC5/CapSense_CSD.c ****             
ARM GAS  C:\Users\mark6\AppData\Local\Temp\ccG3DDgg.s 			page 24


 722:.\Generated_Source\PSoC5/CapSense_CSD.c ****             posCh = (indexCh0 >> 3u);
 723:.\Generated_Source\PSoC5/CapSense_CSD.c ****             enMaskCh = 0x01u << (indexCh0 & 0x07u);
 724:.\Generated_Source\PSoC5/CapSense_CSD.c ****         }
 725:.\Generated_Source\PSoC5/CapSense_CSD.c ****         while((CapSense_CSD_sensorEnableMask[posCh] & enMaskCh) == 0u);
 726:.\Generated_Source\PSoC5/CapSense_CSD.c ****         
 727:.\Generated_Source\PSoC5/CapSense_CSD.c ****         /* Find enabled sensor on channel 1 */
 728:.\Generated_Source\PSoC5/CapSense_CSD.c ****         do
 729:.\Generated_Source\PSoC5/CapSense_CSD.c ****         {
 730:.\Generated_Source\PSoC5/CapSense_CSD.c ****             /* Procced the scanning */
 731:.\Generated_Source\PSoC5/CapSense_CSD.c ****             indexCh1++;        
 732:.\Generated_Source\PSoC5/CapSense_CSD.c ****             if (indexCh1 >= CapSense_CSD_TOTAL_SENSOR_COUNT)
 733:.\Generated_Source\PSoC5/CapSense_CSD.c ****             {
 734:.\Generated_Source\PSoC5/CapSense_CSD.c ****                 /* Lets hadle now all from CH0 */
 735:.\Generated_Source\PSoC5/CapSense_CSD.c ****                 indexCh1 = CapSense_CSD_END_OF_SCAN__CH1;
 736:.\Generated_Source\PSoC5/CapSense_CSD.c ****                 break;
 737:.\Generated_Source\PSoC5/CapSense_CSD.c ****             }
 738:.\Generated_Source\PSoC5/CapSense_CSD.c ****             
 739:.\Generated_Source\PSoC5/CapSense_CSD.c ****             posCh = (indexCh1 >> 3u);
 740:.\Generated_Source\PSoC5/CapSense_CSD.c ****             enMaskCh = 0x01u << (indexCh1 & 0x07u);
 741:.\Generated_Source\PSoC5/CapSense_CSD.c ****         } 
 742:.\Generated_Source\PSoC5/CapSense_CSD.c ****         while((CapSense_CSD_sensorEnableMask[posCh] & enMaskCh) == 0u);
 743:.\Generated_Source\PSoC5/CapSense_CSD.c ****         
 744:.\Generated_Source\PSoC5/CapSense_CSD.c ****         indexCh1 -= CapSense_CSD_TOTAL_SENSOR_COUNT__CH0;
 745:.\Generated_Source\PSoC5/CapSense_CSD.c ****         
 746:.\Generated_Source\PSoC5/CapSense_CSD.c ****         /* Find the pair to scan */
 747:.\Generated_Source\PSoC5/CapSense_CSD.c ****         if(indexCh0 == indexCh1)
 748:.\Generated_Source\PSoC5/CapSense_CSD.c ****         {
 749:.\Generated_Source\PSoC5/CapSense_CSD.c ****             /* Scans TWO Channels */
 750:.\Generated_Source\PSoC5/CapSense_CSD.c ****             snsIndex = indexCh0;
 751:.\Generated_Source\PSoC5/CapSense_CSD.c ****             
 752:.\Generated_Source\PSoC5/CapSense_CSD.c ****             CapSense_CSD_CONTROL_REG |= (CapSense_CSD_CTRL_WINDOW_EN__CH0 | 
 753:.\Generated_Source\PSoC5/CapSense_CSD.c ****                                              CapSense_CSD_CTRL_WINDOW_EN__CH1);
 754:.\Generated_Source\PSoC5/CapSense_CSD.c ****         }
 755:.\Generated_Source\PSoC5/CapSense_CSD.c ****         else if(indexCh0 < indexCh1)
 756:.\Generated_Source\PSoC5/CapSense_CSD.c ****         {
 757:.\Generated_Source\PSoC5/CapSense_CSD.c ****            /* Scans Channel ONE only */
 758:.\Generated_Source\PSoC5/CapSense_CSD.c ****            snsIndex = indexCh0;
 759:.\Generated_Source\PSoC5/CapSense_CSD.c ****            
 760:.\Generated_Source\PSoC5/CapSense_CSD.c ****             newRegValue = CapSense_CSD_CONTROL_REG;
 761:.\Generated_Source\PSoC5/CapSense_CSD.c ****             newRegValue |= CapSense_CSD_CTRL_WINDOW_EN__CH0;
 762:.\Generated_Source\PSoC5/CapSense_CSD.c ****             newRegValue &= ~CapSense_CSD_CTRL_WINDOW_EN__CH1;
 763:.\Generated_Source\PSoC5/CapSense_CSD.c ****             CapSense_CSD_CONTROL_REG = newRegValue;
 764:.\Generated_Source\PSoC5/CapSense_CSD.c ****         }
 765:.\Generated_Source\PSoC5/CapSense_CSD.c ****         else
 766:.\Generated_Source\PSoC5/CapSense_CSD.c ****         {
 767:.\Generated_Source\PSoC5/CapSense_CSD.c ****             /* Scans Channel TWO only */
 768:.\Generated_Source\PSoC5/CapSense_CSD.c ****             snsIndex = indexCh1;
 769:.\Generated_Source\PSoC5/CapSense_CSD.c ****             
 770:.\Generated_Source\PSoC5/CapSense_CSD.c ****             newRegValue = CapSense_CSD_CONTROL_REG;
 771:.\Generated_Source\PSoC5/CapSense_CSD.c ****             newRegValue |= CapSense_CSD_CTRL_WINDOW_EN__CH1;
 772:.\Generated_Source\PSoC5/CapSense_CSD.c ****             newRegValue &= ~CapSense_CSD_CTRL_WINDOW_EN__CH0;
 773:.\Generated_Source\PSoC5/CapSense_CSD.c ****             CapSense_CSD_CONTROL_REG = newRegValue;
 774:.\Generated_Source\PSoC5/CapSense_CSD.c ****         }
 775:.\Generated_Source\PSoC5/CapSense_CSD.c ****         
 776:.\Generated_Source\PSoC5/CapSense_CSD.c ****         return (snsIndex);
 777:.\Generated_Source\PSoC5/CapSense_CSD.c ****     }
 778:.\Generated_Source\PSoC5/CapSense_CSD.c **** #endif  /* CapSense_CSD_DESIGN_TYPE == CapSense_CSD_TWO_CHANNELS_DESIGN */
ARM GAS  C:\Users\mark6\AppData\Local\Temp\ccG3DDgg.s 			page 25


 779:.\Generated_Source\PSoC5/CapSense_CSD.c **** 
 780:.\Generated_Source\PSoC5/CapSense_CSD.c **** 
 781:.\Generated_Source\PSoC5/CapSense_CSD.c **** /*******************************************************************************
 782:.\Generated_Source\PSoC5/CapSense_CSD.c **** * Function Name: CapSense_CSD_SetScanSlotSettings
 783:.\Generated_Source\PSoC5/CapSense_CSD.c **** ********************************************************************************
 784:.\Generated_Source\PSoC5/CapSense_CSD.c **** *
 785:.\Generated_Source\PSoC5/CapSense_CSD.c **** * Summary:
 786:.\Generated_Source\PSoC5/CapSense_CSD.c **** *  Sets the scan settings of the selected scan slot (sensor or pair of sensors). 
 787:.\Generated_Source\PSoC5/CapSense_CSD.c **** *  The scan settings incorporate IDAC value (for IDAC configurations) for every 
 788:.\Generated_Source\PSoC5/CapSense_CSD.c **** *  sensor and resolution. The resolution is the same for all sensors within 
 789:.\Generated_Source\PSoC5/CapSense_CSD.c **** *  widget.
 790:.\Generated_Source\PSoC5/CapSense_CSD.c **** *
 791:.\Generated_Source\PSoC5/CapSense_CSD.c **** * Parameters:
 792:.\Generated_Source\PSoC5/CapSense_CSD.c **** *  slot:  Scan slot number (sensor or pair of sensors).
 793:.\Generated_Source\PSoC5/CapSense_CSD.c **** *
 794:.\Generated_Source\PSoC5/CapSense_CSD.c **** * Return:
 795:.\Generated_Source\PSoC5/CapSense_CSD.c **** *  None
 796:.\Generated_Source\PSoC5/CapSense_CSD.c **** *
 797:.\Generated_Source\PSoC5/CapSense_CSD.c **** * Global Variables:
 798:.\Generated_Source\PSoC5/CapSense_CSD.c **** *  CapSense_CSD_idacSettings[] - used to store idac value for every sensor.
 799:.\Generated_Source\PSoC5/CapSense_CSD.c **** *  CapSense_CSD_widgetResolution[] - used to store scan resolution of every 
 800:.\Generated_Source\PSoC5/CapSense_CSD.c **** *  widget.
 801:.\Generated_Source\PSoC5/CapSense_CSD.c **** *
 802:.\Generated_Source\PSoC5/CapSense_CSD.c **** *******************************************************************************/
 803:.\Generated_Source\PSoC5/CapSense_CSD.c **** void CapSense_CSD_SetScanSlotSettings(uint8 slot) CYREENTRANT
 804:.\Generated_Source\PSoC5/CapSense_CSD.c **** {
 591              		.loc 1 804 0
 592              		.cfi_startproc
 593              		@ args = 0, pretend = 0, frame = 16
 594              		@ frame_needed = 1, uses_anonymous_args = 0
 595 0000 80B5     		push	{r7, lr}
 596              		.cfi_def_cfa_offset 8
 597              		.cfi_offset 7, -8
 598              		.cfi_offset 14, -4
 599 0002 84B0     		sub	sp, sp, #16
 600              		.cfi_def_cfa_offset 24
 601 0004 00AF     		add	r7, sp, #0
 602              		.cfi_def_cfa_register 7
 603 0006 0346     		mov	r3, r0
 604 0008 FB71     		strb	r3, [r7, #7]
 805:.\Generated_Source\PSoC5/CapSense_CSD.c ****     uint8 widget;
 806:.\Generated_Source\PSoC5/CapSense_CSD.c ****     
 807:.\Generated_Source\PSoC5/CapSense_CSD.c ****     #if (CapSense_CSD_DESIGN_TYPE == CapSense_CSD_ONE_CHANNEL_DESIGN)
 808:.\Generated_Source\PSoC5/CapSense_CSD.c ****         /* Define widget sensor belongs to */
 809:.\Generated_Source\PSoC5/CapSense_CSD.c ****         widget = CapSense_CSD_widgetNumber[slot];
 605              		.loc 1 809 0
 606 000a 0023     		movs	r3, #0
 607 000c FB73     		strb	r3, [r7, #15]
 810:.\Generated_Source\PSoC5/CapSense_CSD.c ****         
 811:.\Generated_Source\PSoC5/CapSense_CSD.c ****         /* Set Idac Value */
 812:.\Generated_Source\PSoC5/CapSense_CSD.c ****         #if (CapSense_CSD_CURRENT_SOURCE)
 813:.\Generated_Source\PSoC5/CapSense_CSD.c ****             CapSense_CSD_IdacCH0_SetValue(CapSense_CSD_idacSettings[slot]);
 608              		.loc 1 813 0
 609 000e FB79     		ldrb	r3, [r7, #7]	@ zero_extendqisi2
 610 0010 094A     		ldr	r2, .L22
 611 0012 D35C     		ldrb	r3, [r2, r3]	@ zero_extendqisi2
 612 0014 1846     		mov	r0, r3
ARM GAS  C:\Users\mark6\AppData\Local\Temp\ccG3DDgg.s 			page 26


 613 0016 FFF7FEFF 		bl	CapSense_CSD_IdacCH0_SetValue
 814:.\Generated_Source\PSoC5/CapSense_CSD.c ****         #endif  /* CapSense_CSD_CURRENT_SOURCE */
 815:.\Generated_Source\PSoC5/CapSense_CSD.c ****         
 816:.\Generated_Source\PSoC5/CapSense_CSD.c ****         /* Window PWM */
 817:.\Generated_Source\PSoC5/CapSense_CSD.c ****         #if (CapSense_CSD_IMPLEMENTATION_CH0 == CapSense_CSD_MEASURE_IMPLEMENTATION_FF)
 818:.\Generated_Source\PSoC5/CapSense_CSD.c ****             CY_SET_REG16(CapSense_CSD_PWM_CH0_PERIOD_PTR,
 819:.\Generated_Source\PSoC5/CapSense_CSD.c ****                 ((uint16) CapSense_CSD_widgetResolution[widget] << 8u) | CapSense_CSD_MEASURE_FULL_
 820:.\Generated_Source\PSoC5/CapSense_CSD.c ****         #else
 821:.\Generated_Source\PSoC5/CapSense_CSD.c ****             CapSense_CSD_PWM_CH0_PERIOD_HI_REG = CapSense_CSD_widgetResolution[widget];
 614              		.loc 1 821 0
 615 001a 084A     		ldr	r2, .L22+4
 616 001c FB7B     		ldrb	r3, [r7, #15]	@ zero_extendqisi2
 617 001e 0849     		ldr	r1, .L22+8
 618 0020 CB5C     		ldrb	r3, [r1, r3]	@ zero_extendqisi2
 619 0022 1370     		strb	r3, [r2]
 822:.\Generated_Source\PSoC5/CapSense_CSD.c ****         #endif  /* (CapSense_CSD_IMPLEMENTATION_CH0 == CapSense_CSD_MEASURE_IMPLEMENTATION_FF) */ 
 823:.\Generated_Source\PSoC5/CapSense_CSD.c **** 
 824:.\Generated_Source\PSoC5/CapSense_CSD.c ****         #if ( (CapSense_CSD_MULTIPLE_PRESCALER_ENABLED) || \
 825:.\Generated_Source\PSoC5/CapSense_CSD.c ****               (CapSense_CSD_TUNING_METHOD == CapSense_CSD_AUTO_TUNING) )
 826:.\Generated_Source\PSoC5/CapSense_CSD.c ****             CapSense_CSD_SetPrescaler(CapSense_CSD_analogSwitchDivider[slot]);
 620              		.loc 1 826 0
 621 0024 FB79     		ldrb	r3, [r7, #7]	@ zero_extendqisi2
 622 0026 074A     		ldr	r2, .L22+12
 623 0028 D35C     		ldrb	r3, [r2, r3]	@ zero_extendqisi2
 624 002a 1846     		mov	r0, r3
 625 002c FFF7FEFF 		bl	CapSense_CSD_SetPrescaler
 827:.\Generated_Source\PSoC5/CapSense_CSD.c ****         #elif (CapSense_CSD_PRESCALER_OPTIONS)
 828:.\Generated_Source\PSoC5/CapSense_CSD.c ****             CapSense_CSD_SetPrescaler(CapSense_CSD_analogSwitchDivider);
 829:.\Generated_Source\PSoC5/CapSense_CSD.c ****         #endif /* ((CapSense_CSD_MULTIPLE_PRESCALER_ENABLED) || \
 830:.\Generated_Source\PSoC5/CapSense_CSD.c ****                *   (CapSense_CSD_TUNING_METHOD == CapSense_CSD_AUTO_TUNING))
 831:.\Generated_Source\PSoC5/CapSense_CSD.c ****                */
 832:.\Generated_Source\PSoC5/CapSense_CSD.c **** 
 833:.\Generated_Source\PSoC5/CapSense_CSD.c ****     #else
 834:.\Generated_Source\PSoC5/CapSense_CSD.c ****         if(slot < CapSense_CSD_TOTAL_SENSOR_COUNT__CH0)
 835:.\Generated_Source\PSoC5/CapSense_CSD.c ****         {
 836:.\Generated_Source\PSoC5/CapSense_CSD.c ****             /* Define widget sensor belongs to */
 837:.\Generated_Source\PSoC5/CapSense_CSD.c ****             widget = CapSense_CSD_widgetNumber[slot];
 838:.\Generated_Source\PSoC5/CapSense_CSD.c ****             
 839:.\Generated_Source\PSoC5/CapSense_CSD.c ****             /* Set Idac Value */
 840:.\Generated_Source\PSoC5/CapSense_CSD.c ****             #if (CapSense_CSD_CURRENT_SOURCE)
 841:.\Generated_Source\PSoC5/CapSense_CSD.c ****                 CapSense_CSD_IdacCH0_SetValue(CapSense_CSD_idacSettings[slot]);
 842:.\Generated_Source\PSoC5/CapSense_CSD.c ****             #endif  /* CapSense_CSD_CURRENT_SOURCE */
 843:.\Generated_Source\PSoC5/CapSense_CSD.c ****             
 844:.\Generated_Source\PSoC5/CapSense_CSD.c ****             /* Set Pwm Resolution */
 845:.\Generated_Source\PSoC5/CapSense_CSD.c ****             #if (CapSense_CSD_IMPLEMENTATION_CH0 == CapSense_CSD_MEASURE_IMPLEMENTATION_FF)
 846:.\Generated_Source\PSoC5/CapSense_CSD.c ****                 CY_SET_REG16(CapSense_CSD_PWM_CH0_PERIOD_PTR,
 847:.\Generated_Source\PSoC5/CapSense_CSD.c ****                   ((uint16) CapSense_CSD_widgetResolution[widget] << 8u) | CapSense_CSD_MEASURE_FUL
 848:.\Generated_Source\PSoC5/CapSense_CSD.c ****             #else
 849:.\Generated_Source\PSoC5/CapSense_CSD.c ****                 CapSense_CSD_PWM_CH0_PERIOD_HI_REG = CapSense_CSD_widgetResolution[widget];
 850:.\Generated_Source\PSoC5/CapSense_CSD.c ****             #endif  /* (CapSense_CSD_IMPLEMENTATION_CH0 == CapSense_CSD_MEASURE_IMPLEMENTATION_FF)*
 851:.\Generated_Source\PSoC5/CapSense_CSD.c ****         }
 852:.\Generated_Source\PSoC5/CapSense_CSD.c ****         
 853:.\Generated_Source\PSoC5/CapSense_CSD.c ****         if(slot < CapSense_CSD_TOTAL_SENSOR_COUNT__CH1)
 854:.\Generated_Source\PSoC5/CapSense_CSD.c ****         {
 855:.\Generated_Source\PSoC5/CapSense_CSD.c ****             widget = CapSense_CSD_widgetNumber[slot+CapSense_CSD_TOTAL_SENSOR_COUNT__CH0];
 856:.\Generated_Source\PSoC5/CapSense_CSD.c ****         
 857:.\Generated_Source\PSoC5/CapSense_CSD.c ****             /* Set Idac Value */
ARM GAS  C:\Users\mark6\AppData\Local\Temp\ccG3DDgg.s 			page 27


 858:.\Generated_Source\PSoC5/CapSense_CSD.c ****             #if (CapSense_CSD_CURRENT_SOURCE)
 859:.\Generated_Source\PSoC5/CapSense_CSD.c ****                 CapSense_CSD_IdacCH1_SetValue(CapSense_CSD_idacSettings[slot+
 860:.\Generated_Source\PSoC5/CapSense_CSD.c ****                                                                              CapSense_CSD_TOTAL_SEN
 861:.\Generated_Source\PSoC5/CapSense_CSD.c ****             #endif  /* CapSense_CSD_CURRENT_SOURCE */
 862:.\Generated_Source\PSoC5/CapSense_CSD.c ****             
 863:.\Generated_Source\PSoC5/CapSense_CSD.c ****             /* Set Pwm Resolution */
 864:.\Generated_Source\PSoC5/CapSense_CSD.c ****             #if (CapSense_CSD_IMPLEMENTATION_CH1 == CapSense_CSD_MEASURE_IMPLEMENTATION_FF)
 865:.\Generated_Source\PSoC5/CapSense_CSD.c ****                 CY_SET_REG16(CapSense_CSD_PWM_CH1_PERIOD_PTR,
 866:.\Generated_Source\PSoC5/CapSense_CSD.c ****                   ((uint16) CapSense_CSD_widgetResolution[widget] << 8u) | CapSense_CSD_MEASURE_FUL
 867:.\Generated_Source\PSoC5/CapSense_CSD.c ****             #else
 868:.\Generated_Source\PSoC5/CapSense_CSD.c ****                 CapSense_CSD_PWM_CH1_PERIOD_HI_REG = CapSense_CSD_widgetResolution[widget];
 869:.\Generated_Source\PSoC5/CapSense_CSD.c ****             #endif  /* (CapSense_CSD_IMPLEMENTATION_CH1 == CapSense_CSD_MEASURE_IMPLEMENTATION_FF)*
 870:.\Generated_Source\PSoC5/CapSense_CSD.c ****         }
 871:.\Generated_Source\PSoC5/CapSense_CSD.c **** 
 872:.\Generated_Source\PSoC5/CapSense_CSD.c ****         #if ( (CapSense_CSD_MULTIPLE_PRESCALER_ENABLED) || \
 873:.\Generated_Source\PSoC5/CapSense_CSD.c ****               (CapSense_CSD_TUNING_METHOD == CapSense_CSD_AUTO_TUNING) )
 874:.\Generated_Source\PSoC5/CapSense_CSD.c ****             CapSense_CSD_SetPrescaler(CapSense_CSD_analogSwitchDivider[slot]);
 875:.\Generated_Source\PSoC5/CapSense_CSD.c ****         #elif (CapSense_CSD_PRESCALER_OPTIONS)
 876:.\Generated_Source\PSoC5/CapSense_CSD.c ****             CapSense_CSD_SetPrescaler(CapSense_CSD_analogSwitchDivider);
 877:.\Generated_Source\PSoC5/CapSense_CSD.c ****         #endif /* ((CapSense_CSD_MULTIPLE_PRESCALER_ENABLED) || \
 878:.\Generated_Source\PSoC5/CapSense_CSD.c ****                *   (CapSense_CSD_TUNING_METHOD == CapSense_CSD_AUTO_TUNING))
 879:.\Generated_Source\PSoC5/CapSense_CSD.c ****                */
 880:.\Generated_Source\PSoC5/CapSense_CSD.c **** 
 881:.\Generated_Source\PSoC5/CapSense_CSD.c ****     #endif  /* CapSense_CSD_DESIGN_TYPE */
 882:.\Generated_Source\PSoC5/CapSense_CSD.c **** }
 626              		.loc 1 882 0
 627 0030 1037     		adds	r7, r7, #16
 628              		.cfi_def_cfa_offset 8
 629 0032 BD46     		mov	sp, r7
 630              		.cfi_def_cfa_register 13
 631              		@ sp needed
 632 0034 80BD     		pop	{r7, pc}
 633              	.L23:
 634 0036 00BF     		.align	2
 635              	.L22:
 636 0038 00000000 		.word	CapSense_CSD_idacSettings
 637 003c 5B640040 		.word	1073767515
 638 0040 00000000 		.word	CapSense_CSD_widgetResolution
 639 0044 00000000 		.word	CapSense_CSD_analogSwitchDivider
 640              		.cfi_endproc
 641              	.LFE5:
 642              		.size	CapSense_CSD_SetScanSlotSettings, .-CapSense_CSD_SetScanSlotSettings
 643              		.section	.text.CapSense_CSD_ScanSensor,"ax",%progbits
 644              		.align	2
 645              		.global	CapSense_CSD_ScanSensor
 646              		.thumb
 647              		.thumb_func
 648              		.type	CapSense_CSD_ScanSensor, %function
 649              	CapSense_CSD_ScanSensor:
 650              	.LFB6:
 883:.\Generated_Source\PSoC5/CapSense_CSD.c **** 
 884:.\Generated_Source\PSoC5/CapSense_CSD.c **** 
 885:.\Generated_Source\PSoC5/CapSense_CSD.c **** /*******************************************************************************
 886:.\Generated_Source\PSoC5/CapSense_CSD.c **** * Function Name: CapSense_CSD_ScanSensor
 887:.\Generated_Source\PSoC5/CapSense_CSD.c **** ********************************************************************************
 888:.\Generated_Source\PSoC5/CapSense_CSD.c **** *
 889:.\Generated_Source\PSoC5/CapSense_CSD.c **** * Summary:
ARM GAS  C:\Users\mark6\AppData\Local\Temp\ccG3DDgg.s 			page 28


 890:.\Generated_Source\PSoC5/CapSense_CSD.c **** *  Sets scan settings and starts scanning a sensor or pair of combined sensors
 891:.\Generated_Source\PSoC5/CapSense_CSD.c **** *  on each channel. If two channels are configured, two sensors may be scanned 
 892:.\Generated_Source\PSoC5/CapSense_CSD.c **** *  at the same time. After scanning is complete the isr copies the measured 
 893:.\Generated_Source\PSoC5/CapSense_CSD.c **** *  sensor raw data to the global array. Use of the isr ensures this function 
 894:.\Generated_Source\PSoC5/CapSense_CSD.c **** *  is non-blocking. Each sensor has a unique number within the sensor array. 
 895:.\Generated_Source\PSoC5/CapSense_CSD.c **** *  This number is assigned by the CapSense customizer in sequence.
 896:.\Generated_Source\PSoC5/CapSense_CSD.c **** *
 897:.\Generated_Source\PSoC5/CapSense_CSD.c **** * Parameters:
 898:.\Generated_Source\PSoC5/CapSense_CSD.c **** *  sensor:  Sensor number.
 899:.\Generated_Source\PSoC5/CapSense_CSD.c **** *
 900:.\Generated_Source\PSoC5/CapSense_CSD.c **** * Return:
 901:.\Generated_Source\PSoC5/CapSense_CSD.c **** *  None
 902:.\Generated_Source\PSoC5/CapSense_CSD.c **** *
 903:.\Generated_Source\PSoC5/CapSense_CSD.c **** * Global Variables:
 904:.\Generated_Source\PSoC5/CapSense_CSD.c **** *  CapSense_CSD_csv - used to provide status and mode of scanning process. 
 905:.\Generated_Source\PSoC5/CapSense_CSD.c **** *  Sets busy status(scan in progress) and mode of scan as single scan.
 906:.\Generated_Source\PSoC5/CapSense_CSD.c **** *  For two channel design the additional bits are set to define if scan a 
 907:.\Generated_Source\PSoC5/CapSense_CSD.c **** *  pair of sensors or single one.
 908:.\Generated_Source\PSoC5/CapSense_CSD.c **** *  CapSense_CSD_sensorIndex - used to store sensor scanning sensor number.
 909:.\Generated_Source\PSoC5/CapSense_CSD.c **** *  Sets to provided sensor argument.
 910:.\Generated_Source\PSoC5/CapSense_CSD.c **** *
 911:.\Generated_Source\PSoC5/CapSense_CSD.c **** * Reentrant:
 912:.\Generated_Source\PSoC5/CapSense_CSD.c **** *  No
 913:.\Generated_Source\PSoC5/CapSense_CSD.c **** *
 914:.\Generated_Source\PSoC5/CapSense_CSD.c **** *******************************************************************************/
 915:.\Generated_Source\PSoC5/CapSense_CSD.c **** void CapSense_CSD_ScanSensor(uint8 sensor)  
 916:.\Generated_Source\PSoC5/CapSense_CSD.c **** {
 651              		.loc 1 916 0
 652              		.cfi_startproc
 653              		@ args = 0, pretend = 0, frame = 8
 654              		@ frame_needed = 1, uses_anonymous_args = 0
 655 0000 80B5     		push	{r7, lr}
 656              		.cfi_def_cfa_offset 8
 657              		.cfi_offset 7, -8
 658              		.cfi_offset 14, -4
 659 0002 82B0     		sub	sp, sp, #8
 660              		.cfi_def_cfa_offset 16
 661 0004 00AF     		add	r7, sp, #0
 662              		.cfi_def_cfa_register 7
 663 0006 0346     		mov	r3, r0
 664 0008 FB71     		strb	r3, [r7, #7]
 917:.\Generated_Source\PSoC5/CapSense_CSD.c ****     /* Clears status/control variable and set sensorIndex */
 918:.\Generated_Source\PSoC5/CapSense_CSD.c ****     CapSense_CSD_csv = 0u;
 665              		.loc 1 918 0
 666 000a 084B     		ldr	r3, .L25
 667 000c 0022     		movs	r2, #0
 668 000e 1A70     		strb	r2, [r3]
 919:.\Generated_Source\PSoC5/CapSense_CSD.c ****     CapSense_CSD_sensorIndex = sensor;
 669              		.loc 1 919 0
 670 0010 074A     		ldr	r2, .L25+4
 671 0012 FB79     		ldrb	r3, [r7, #7]
 672 0014 1370     		strb	r3, [r2]
 920:.\Generated_Source\PSoC5/CapSense_CSD.c ****     
 921:.\Generated_Source\PSoC5/CapSense_CSD.c ****     #if (CapSense_CSD_DESIGN_TYPE == CapSense_CSD_ONE_CHANNEL_DESIGN)
 922:.\Generated_Source\PSoC5/CapSense_CSD.c ****         /* Start of sensor scan */
 923:.\Generated_Source\PSoC5/CapSense_CSD.c ****         CapSense_CSD_csv = (CapSense_CSD_SW_STS_BUSY | CapSense_CSD_SW_CTRL_SINGLE_SCAN);
 673              		.loc 1 923 0
ARM GAS  C:\Users\mark6\AppData\Local\Temp\ccG3DDgg.s 			page 29


 674 0016 054B     		ldr	r3, .L25
 675 0018 8122     		movs	r2, #129
 676 001a 1A70     		strb	r2, [r3]
 924:.\Generated_Source\PSoC5/CapSense_CSD.c ****         CapSense_CSD_PreScan(sensor);
 677              		.loc 1 924 0
 678 001c FB79     		ldrb	r3, [r7, #7]	@ zero_extendqisi2
 679 001e 1846     		mov	r0, r3
 680 0020 FFF7FEFF 		bl	CapSense_CSD_PreScan
 925:.\Generated_Source\PSoC5/CapSense_CSD.c ****         
 926:.\Generated_Source\PSoC5/CapSense_CSD.c ****     #else
 927:.\Generated_Source\PSoC5/CapSense_CSD.c ****         /* CH0: check end of scan conditions */
 928:.\Generated_Source\PSoC5/CapSense_CSD.c ****         if(sensor < CapSense_CSD_TOTAL_SENSOR_COUNT__CH0)
 929:.\Generated_Source\PSoC5/CapSense_CSD.c ****         {
 930:.\Generated_Source\PSoC5/CapSense_CSD.c ****             CapSense_CSD_CONTROL_REG |= CapSense_CSD_CTRL_WINDOW_EN__CH0;
 931:.\Generated_Source\PSoC5/CapSense_CSD.c ****         }
 932:.\Generated_Source\PSoC5/CapSense_CSD.c ****         else
 933:.\Generated_Source\PSoC5/CapSense_CSD.c ****         {
 934:.\Generated_Source\PSoC5/CapSense_CSD.c ****             CapSense_CSD_CONTROL_REG &= ~CapSense_CSD_CTRL_WINDOW_EN__CH0;
 935:.\Generated_Source\PSoC5/CapSense_CSD.c ****         }
 936:.\Generated_Source\PSoC5/CapSense_CSD.c ****         
 937:.\Generated_Source\PSoC5/CapSense_CSD.c ****         /* CH1: check end of scan conditions */
 938:.\Generated_Source\PSoC5/CapSense_CSD.c ****         if(sensor < CapSense_CSD_TOTAL_SENSOR_COUNT__CH1)
 939:.\Generated_Source\PSoC5/CapSense_CSD.c ****         {
 940:.\Generated_Source\PSoC5/CapSense_CSD.c ****             CapSense_CSD_CONTROL_REG |= CapSense_CSD_CTRL_WINDOW_EN__CH1;
 941:.\Generated_Source\PSoC5/CapSense_CSD.c ****         }
 942:.\Generated_Source\PSoC5/CapSense_CSD.c ****         else
 943:.\Generated_Source\PSoC5/CapSense_CSD.c ****         {
 944:.\Generated_Source\PSoC5/CapSense_CSD.c ****             CapSense_CSD_CONTROL_REG &= ~CapSense_CSD_CTRL_WINDOW_EN__CH1;
 945:.\Generated_Source\PSoC5/CapSense_CSD.c ****         }
 946:.\Generated_Source\PSoC5/CapSense_CSD.c ****         
 947:.\Generated_Source\PSoC5/CapSense_CSD.c ****         /* Start sensor scan */
 948:.\Generated_Source\PSoC5/CapSense_CSD.c ****         if( ((CapSense_CSD_CONTROL_REG & CapSense_CSD_CTRL_WINDOW_EN__CH0) != 0u) || 
 949:.\Generated_Source\PSoC5/CapSense_CSD.c ****             ((CapSense_CSD_CONTROL_REG & CapSense_CSD_CTRL_WINDOW_EN__CH1) != 0u) )
 950:.\Generated_Source\PSoC5/CapSense_CSD.c ****         {
 951:.\Generated_Source\PSoC5/CapSense_CSD.c ****         
 952:.\Generated_Source\PSoC5/CapSense_CSD.c ****             CapSense_CSD_csv |= (CapSense_CSD_SW_STS_BUSY | CapSense_CSD_SW_CTRL_SINGLE_SCAN);
 953:.\Generated_Source\PSoC5/CapSense_CSD.c ****             CapSense_CSD_PreScan(sensor);
 954:.\Generated_Source\PSoC5/CapSense_CSD.c ****         }
 955:.\Generated_Source\PSoC5/CapSense_CSD.c ****         
 956:.\Generated_Source\PSoC5/CapSense_CSD.c ****     #endif  /* CapSense_CSD_DESIGN_TYPE */
 957:.\Generated_Source\PSoC5/CapSense_CSD.c **** }
 681              		.loc 1 957 0
 682 0024 0837     		adds	r7, r7, #8
 683              		.cfi_def_cfa_offset 8
 684 0026 BD46     		mov	sp, r7
 685              		.cfi_def_cfa_register 13
 686              		@ sp needed
 687 0028 80BD     		pop	{r7, pc}
 688              	.L26:
 689 002a 00BF     		.align	2
 690              	.L25:
 691 002c 00000000 		.word	CapSense_CSD_csv
 692 0030 00000000 		.word	CapSense_CSD_sensorIndex
 693              		.cfi_endproc
 694              	.LFE6:
 695              		.size	CapSense_CSD_ScanSensor, .-CapSense_CSD_ScanSensor
 696              		.section	.text.CapSense_CSD_ScanEnabledWidgets,"ax",%progbits
ARM GAS  C:\Users\mark6\AppData\Local\Temp\ccG3DDgg.s 			page 30


 697              		.align	2
 698              		.global	CapSense_CSD_ScanEnabledWidgets
 699              		.thumb
 700              		.thumb_func
 701              		.type	CapSense_CSD_ScanEnabledWidgets, %function
 702              	CapSense_CSD_ScanEnabledWidgets:
 703              	.LFB7:
 958:.\Generated_Source\PSoC5/CapSense_CSD.c **** 
 959:.\Generated_Source\PSoC5/CapSense_CSD.c **** 
 960:.\Generated_Source\PSoC5/CapSense_CSD.c **** /*******************************************************************************
 961:.\Generated_Source\PSoC5/CapSense_CSD.c **** * Function Name: CapSense_CSD_ScanEnableWidgets
 962:.\Generated_Source\PSoC5/CapSense_CSD.c **** ********************************************************************************
 963:.\Generated_Source\PSoC5/CapSense_CSD.c **** *
 964:.\Generated_Source\PSoC5/CapSense_CSD.c **** * Summary:
 965:.\Generated_Source\PSoC5/CapSense_CSD.c **** *  Scans all of the enabled widgets. Starts scanning a sensor or pair of sensors 
 966:.\Generated_Source\PSoC5/CapSense_CSD.c **** *  within enabled widget. The isr proceeding scanning next sensor or pair till 
 967:.\Generated_Source\PSoC5/CapSense_CSD.c **** *  all enabled widgets will be scanned. Use of the isr ensures this function is 
 968:.\Generated_Source\PSoC5/CapSense_CSD.c **** *  non-blocking. All widgets are enabled by default except proximity widgets. 
 969:.\Generated_Source\PSoC5/CapSense_CSD.c **** *  Proximity widgets must be manually enabled as their long scan time is 
 970:.\Generated_Source\PSoC5/CapSense_CSD.c **** *  incompatible with fast response desired of other widget types.
 971:.\Generated_Source\PSoC5/CapSense_CSD.c **** *
 972:.\Generated_Source\PSoC5/CapSense_CSD.c **** * Parameters:
 973:.\Generated_Source\PSoC5/CapSense_CSD.c **** *  None
 974:.\Generated_Source\PSoC5/CapSense_CSD.c **** *
 975:.\Generated_Source\PSoC5/CapSense_CSD.c **** * Return:
 976:.\Generated_Source\PSoC5/CapSense_CSD.c **** *  None
 977:.\Generated_Source\PSoC5/CapSense_CSD.c **** *
 978:.\Generated_Source\PSoC5/CapSense_CSD.c **** * Global Variables:
 979:.\Generated_Source\PSoC5/CapSense_CSD.c **** *  CapSense_CSD_csv - used to provide status and mode of scanning process. 
 980:.\Generated_Source\PSoC5/CapSense_CSD.c **** *  Sets busy status(scan in progress) and clears single scan mode.
 981:.\Generated_Source\PSoC5/CapSense_CSD.c **** *  For two channel design the additional bits are set to define if scan a 
 982:.\Generated_Source\PSoC5/CapSense_CSD.c **** *  pair of sensors or single one. 
 983:.\Generated_Source\PSoC5/CapSense_CSD.c **** *  CapSense_CSD_sensorIndex - used to store sensor scanning sensor number.
 984:.\Generated_Source\PSoC5/CapSense_CSD.c **** *  Sets to 0xFF and provided to function CapSense_CSD_FindNextSensor or
 985:.\Generated_Source\PSoC5/CapSense_CSD.c **** *  CapSense_CSD_FindNextPair, these functions starts with sensor index
 986:.\Generated_Source\PSoC5/CapSense_CSD.c **** *  increment and overflow of uint8 gives desired index 0.
 987:.\Generated_Source\PSoC5/CapSense_CSD.c **** *
 988:.\Generated_Source\PSoC5/CapSense_CSD.c **** * Reentrant:
 989:.\Generated_Source\PSoC5/CapSense_CSD.c **** *  No
 990:.\Generated_Source\PSoC5/CapSense_CSD.c **** *
 991:.\Generated_Source\PSoC5/CapSense_CSD.c **** *******************************************************************************/
 992:.\Generated_Source\PSoC5/CapSense_CSD.c **** void CapSense_CSD_ScanEnabledWidgets(void) 
 993:.\Generated_Source\PSoC5/CapSense_CSD.c **** {
 704              		.loc 1 993 0
 705              		.cfi_startproc
 706              		@ args = 0, pretend = 0, frame = 0
 707              		@ frame_needed = 1, uses_anonymous_args = 0
 708 0000 80B5     		push	{r7, lr}
 709              		.cfi_def_cfa_offset 8
 710              		.cfi_offset 7, -8
 711              		.cfi_offset 14, -4
 712 0002 00AF     		add	r7, sp, #0
 713              		.cfi_def_cfa_register 7
 994:.\Generated_Source\PSoC5/CapSense_CSD.c ****     /* Clears status/control variable and set sensorIndex */
 995:.\Generated_Source\PSoC5/CapSense_CSD.c ****     CapSense_CSD_csv = 0u;
 714              		.loc 1 995 0
 715 0004 114B     		ldr	r3, .L29
ARM GAS  C:\Users\mark6\AppData\Local\Temp\ccG3DDgg.s 			page 31


 716 0006 0022     		movs	r2, #0
 717 0008 1A70     		strb	r2, [r3]
 996:.\Generated_Source\PSoC5/CapSense_CSD.c ****     CapSense_CSD_sensorIndex = 0xFFu;
 718              		.loc 1 996 0
 719 000a 114B     		ldr	r3, .L29+4
 720 000c FF22     		movs	r2, #255
 721 000e 1A70     		strb	r2, [r3]
 997:.\Generated_Source\PSoC5/CapSense_CSD.c ****     
 998:.\Generated_Source\PSoC5/CapSense_CSD.c ****     #if (CapSense_CSD_DESIGN_TYPE == CapSense_CSD_ONE_CHANNEL_DESIGN)
 999:.\Generated_Source\PSoC5/CapSense_CSD.c ****         /* Find next sensor */
1000:.\Generated_Source\PSoC5/CapSense_CSD.c ****         CapSense_CSD_sensorIndex = CapSense_CSD_FindNextSensor(CapSense_CSD_sensorIndex);
 722              		.loc 1 1000 0
 723 0010 0F4B     		ldr	r3, .L29+4
 724 0012 1B78     		ldrb	r3, [r3]
 725 0014 DBB2     		uxtb	r3, r3
 726 0016 1846     		mov	r0, r3
 727 0018 FFF7FEFF 		bl	CapSense_CSD_FindNextSensor
 728 001c 0346     		mov	r3, r0
 729 001e 1A46     		mov	r2, r3
 730 0020 0B4B     		ldr	r3, .L29+4
 731 0022 1A70     		strb	r2, [r3]
1001:.\Generated_Source\PSoC5/CapSense_CSD.c **** 
1002:.\Generated_Source\PSoC5/CapSense_CSD.c ****         /* Check end of scan condition */
1003:.\Generated_Source\PSoC5/CapSense_CSD.c ****         if(CapSense_CSD_sensorIndex < CapSense_CSD_TOTAL_SENSOR_COUNT)
 732              		.loc 1 1003 0
 733 0024 0A4B     		ldr	r3, .L29+4
 734 0026 1B78     		ldrb	r3, [r3]
 735 0028 DBB2     		uxtb	r3, r3
 736 002a 002B     		cmp	r3, #0
 737 002c 0DD1     		bne	.L27
1004:.\Generated_Source\PSoC5/CapSense_CSD.c ****         {
1005:.\Generated_Source\PSoC5/CapSense_CSD.c ****             CapSense_CSD_csv |= CapSense_CSD_SW_STS_BUSY;
 738              		.loc 1 1005 0
 739 002e 074B     		ldr	r3, .L29
 740 0030 1B78     		ldrb	r3, [r3]
 741 0032 DBB2     		uxtb	r3, r3
 742 0034 43F00103 		orr	r3, r3, #1
 743 0038 DAB2     		uxtb	r2, r3
 744 003a 044B     		ldr	r3, .L29
 745 003c 1A70     		strb	r2, [r3]
1006:.\Generated_Source\PSoC5/CapSense_CSD.c ****             CapSense_CSD_PreScan(CapSense_CSD_sensorIndex);
 746              		.loc 1 1006 0
 747 003e 044B     		ldr	r3, .L29+4
 748 0040 1B78     		ldrb	r3, [r3]
 749 0042 DBB2     		uxtb	r3, r3
 750 0044 1846     		mov	r0, r3
 751 0046 FFF7FEFF 		bl	CapSense_CSD_PreScan
 752              	.L27:
1007:.\Generated_Source\PSoC5/CapSense_CSD.c ****         }
1008:.\Generated_Source\PSoC5/CapSense_CSD.c ****         
1009:.\Generated_Source\PSoC5/CapSense_CSD.c ****     #else
1010:.\Generated_Source\PSoC5/CapSense_CSD.c ****         /* Find next sensor and set proper control register */
1011:.\Generated_Source\PSoC5/CapSense_CSD.c ****         CapSense_CSD_sensorIndex = CapSense_CSD_FindNextPair(CapSense_CSD_sensorIndex);
1012:.\Generated_Source\PSoC5/CapSense_CSD.c ****         
1013:.\Generated_Source\PSoC5/CapSense_CSD.c ****         /* Start sensor scan */
1014:.\Generated_Source\PSoC5/CapSense_CSD.c ****         if((CapSense_CSD_sensorIndex < CapSense_CSD_TOTAL_SENSOR_COUNT__CH0) || 
1015:.\Generated_Source\PSoC5/CapSense_CSD.c ****            (CapSense_CSD_sensorIndex < CapSense_CSD_TOTAL_SENSOR_COUNT__CH1))
ARM GAS  C:\Users\mark6\AppData\Local\Temp\ccG3DDgg.s 			page 32


1016:.\Generated_Source\PSoC5/CapSense_CSD.c ****         {
1017:.\Generated_Source\PSoC5/CapSense_CSD.c ****             CapSense_CSD_csv |= CapSense_CSD_SW_STS_BUSY;
1018:.\Generated_Source\PSoC5/CapSense_CSD.c ****             CapSense_CSD_PreScan(CapSense_CSD_sensorIndex);
1019:.\Generated_Source\PSoC5/CapSense_CSD.c ****         }
1020:.\Generated_Source\PSoC5/CapSense_CSD.c ****         
1021:.\Generated_Source\PSoC5/CapSense_CSD.c ****     #endif  /* CapSense_CSD_DESIGN_TYPE */
1022:.\Generated_Source\PSoC5/CapSense_CSD.c **** }
 753              		.loc 1 1022 0
 754 004a 80BD     		pop	{r7, pc}
 755              	.L30:
 756              		.align	2
 757              	.L29:
 758 004c 00000000 		.word	CapSense_CSD_csv
 759 0050 00000000 		.word	CapSense_CSD_sensorIndex
 760              		.cfi_endproc
 761              	.LFE7:
 762              		.size	CapSense_CSD_ScanEnabledWidgets, .-CapSense_CSD_ScanEnabledWidgets
 763              		.section	.text.CapSense_CSD_IsBusy,"ax",%progbits
 764              		.align	2
 765              		.global	CapSense_CSD_IsBusy
 766              		.thumb
 767              		.thumb_func
 768              		.type	CapSense_CSD_IsBusy, %function
 769              	CapSense_CSD_IsBusy:
 770              	.LFB8:
1023:.\Generated_Source\PSoC5/CapSense_CSD.c **** 
1024:.\Generated_Source\PSoC5/CapSense_CSD.c **** 
1025:.\Generated_Source\PSoC5/CapSense_CSD.c **** /*******************************************************************************
1026:.\Generated_Source\PSoC5/CapSense_CSD.c **** * Function Name: CapSense_CSD_IsBusy
1027:.\Generated_Source\PSoC5/CapSense_CSD.c **** ********************************************************************************
1028:.\Generated_Source\PSoC5/CapSense_CSD.c **** *
1029:.\Generated_Source\PSoC5/CapSense_CSD.c **** * Summary:
1030:.\Generated_Source\PSoC5/CapSense_CSD.c **** *  Returns the state of CapSense component. The 1 means that scanning in 
1031:.\Generated_Source\PSoC5/CapSense_CSD.c **** *  progress and 0 means that scanning is complete.
1032:.\Generated_Source\PSoC5/CapSense_CSD.c **** *
1033:.\Generated_Source\PSoC5/CapSense_CSD.c **** * Parameters:
1034:.\Generated_Source\PSoC5/CapSense_CSD.c **** *  None
1035:.\Generated_Source\PSoC5/CapSense_CSD.c **** *
1036:.\Generated_Source\PSoC5/CapSense_CSD.c **** * Return:
1037:.\Generated_Source\PSoC5/CapSense_CSD.c **** *  Returns the state of scanning. 1 - scanning in progress, 0 - scanning 
1038:.\Generated_Source\PSoC5/CapSense_CSD.c **** *  completed.
1039:.\Generated_Source\PSoC5/CapSense_CSD.c **** *
1040:.\Generated_Source\PSoC5/CapSense_CSD.c **** * Global Variables:
1041:.\Generated_Source\PSoC5/CapSense_CSD.c **** *  CapSense_CSD_csv - used to provide status and mode of scanning process. 
1042:.\Generated_Source\PSoC5/CapSense_CSD.c **** *  Checks the busy status.
1043:.\Generated_Source\PSoC5/CapSense_CSD.c **** *
1044:.\Generated_Source\PSoC5/CapSense_CSD.c **** *******************************************************************************/
1045:.\Generated_Source\PSoC5/CapSense_CSD.c **** uint8 CapSense_CSD_IsBusy(void) 
1046:.\Generated_Source\PSoC5/CapSense_CSD.c **** {
 771              		.loc 1 1046 0
 772              		.cfi_startproc
 773              		@ args = 0, pretend = 0, frame = 0
 774              		@ frame_needed = 1, uses_anonymous_args = 0
 775              		@ link register save eliminated.
 776 0000 80B4     		push	{r7}
 777              		.cfi_def_cfa_offset 4
 778              		.cfi_offset 7, -4
ARM GAS  C:\Users\mark6\AppData\Local\Temp\ccG3DDgg.s 			page 33


 779 0002 00AF     		add	r7, sp, #0
 780              		.cfi_def_cfa_register 7
1047:.\Generated_Source\PSoC5/CapSense_CSD.c ****     return ((0u != (CapSense_CSD_csv & CapSense_CSD_SW_STS_BUSY)) ? 1u : 0u);
 781              		.loc 1 1047 0
 782 0004 054B     		ldr	r3, .L33
 783 0006 1B78     		ldrb	r3, [r3]
 784 0008 DBB2     		uxtb	r3, r3
 785 000a 03F00103 		and	r3, r3, #1
 786 000e DBB2     		uxtb	r3, r3
1048:.\Generated_Source\PSoC5/CapSense_CSD.c **** }
 787              		.loc 1 1048 0
 788 0010 1846     		mov	r0, r3
 789 0012 BD46     		mov	sp, r7
 790              		.cfi_def_cfa_register 13
 791              		@ sp needed
 792 0014 5DF8047B 		ldr	r7, [sp], #4
 793              		.cfi_restore 7
 794              		.cfi_def_cfa_offset 0
 795 0018 7047     		bx	lr
 796              	.L34:
 797 001a 00BF     		.align	2
 798              	.L33:
 799 001c 00000000 		.word	CapSense_CSD_csv
 800              		.cfi_endproc
 801              	.LFE8:
 802              		.size	CapSense_CSD_IsBusy, .-CapSense_CSD_IsBusy
 803              		.section	.text.CapSense_CSD_ReadSensorRaw,"ax",%progbits
 804              		.align	2
 805              		.global	CapSense_CSD_ReadSensorRaw
 806              		.thumb
 807              		.thumb_func
 808              		.type	CapSense_CSD_ReadSensorRaw, %function
 809              	CapSense_CSD_ReadSensorRaw:
 810              	.LFB9:
1049:.\Generated_Source\PSoC5/CapSense_CSD.c **** 
1050:.\Generated_Source\PSoC5/CapSense_CSD.c **** 
1051:.\Generated_Source\PSoC5/CapSense_CSD.c **** /*******************************************************************************
1052:.\Generated_Source\PSoC5/CapSense_CSD.c **** * Function Name: CapSense_CSD_ReadSensorRaw
1053:.\Generated_Source\PSoC5/CapSense_CSD.c **** ********************************************************************************
1054:.\Generated_Source\PSoC5/CapSense_CSD.c **** *
1055:.\Generated_Source\PSoC5/CapSense_CSD.c **** * Summary:
1056:.\Generated_Source\PSoC5/CapSense_CSD.c **** *  Returns scan sensor raw data from the CapSense_CSD_sensorRaw[] array. 
1057:.\Generated_Source\PSoC5/CapSense_CSD.c **** *  Each scan sensor has a unique number within the sensor array. This number 
1058:.\Generated_Source\PSoC5/CapSense_CSD.c **** *  is assigned by the CapSense customizer in sequence.
1059:.\Generated_Source\PSoC5/CapSense_CSD.c **** *
1060:.\Generated_Source\PSoC5/CapSense_CSD.c **** * Parameters:
1061:.\Generated_Source\PSoC5/CapSense_CSD.c **** *  sensor:  Sensor number.
1062:.\Generated_Source\PSoC5/CapSense_CSD.c **** *
1063:.\Generated_Source\PSoC5/CapSense_CSD.c **** * Return:
1064:.\Generated_Source\PSoC5/CapSense_CSD.c **** *  Returns current raw data value for defined sensor number.
1065:.\Generated_Source\PSoC5/CapSense_CSD.c **** *
1066:.\Generated_Source\PSoC5/CapSense_CSD.c **** * Global Variables:
1067:.\Generated_Source\PSoC5/CapSense_CSD.c **** *  CapSense_CSD_sensorRaw[] - used to store sensors raw data.
1068:.\Generated_Source\PSoC5/CapSense_CSD.c **** *
1069:.\Generated_Source\PSoC5/CapSense_CSD.c **** *******************************************************************************/
1070:.\Generated_Source\PSoC5/CapSense_CSD.c **** uint16 CapSense_CSD_ReadSensorRaw(uint8 sensor) 
1071:.\Generated_Source\PSoC5/CapSense_CSD.c **** {
ARM GAS  C:\Users\mark6\AppData\Local\Temp\ccG3DDgg.s 			page 34


 811              		.loc 1 1071 0
 812              		.cfi_startproc
 813              		@ args = 0, pretend = 0, frame = 8
 814              		@ frame_needed = 1, uses_anonymous_args = 0
 815              		@ link register save eliminated.
 816 0000 80B4     		push	{r7}
 817              		.cfi_def_cfa_offset 4
 818              		.cfi_offset 7, -4
 819 0002 83B0     		sub	sp, sp, #12
 820              		.cfi_def_cfa_offset 16
 821 0004 00AF     		add	r7, sp, #0
 822              		.cfi_def_cfa_register 7
 823 0006 0346     		mov	r3, r0
 824 0008 FB71     		strb	r3, [r7, #7]
1072:.\Generated_Source\PSoC5/CapSense_CSD.c ****     return (CapSense_CSD_sensorRaw[sensor]);
 825              		.loc 1 1072 0
 826 000a FB79     		ldrb	r3, [r7, #7]	@ zero_extendqisi2
 827 000c 044A     		ldr	r2, .L37
 828 000e 32F81330 		ldrh	r3, [r2, r3, lsl #1]
1073:.\Generated_Source\PSoC5/CapSense_CSD.c **** }
 829              		.loc 1 1073 0
 830 0012 1846     		mov	r0, r3
 831 0014 0C37     		adds	r7, r7, #12
 832              		.cfi_def_cfa_offset 4
 833 0016 BD46     		mov	sp, r7
 834              		.cfi_def_cfa_register 13
 835              		@ sp needed
 836 0018 5DF8047B 		ldr	r7, [sp], #4
 837              		.cfi_restore 7
 838              		.cfi_def_cfa_offset 0
 839 001c 7047     		bx	lr
 840              	.L38:
 841 001e 00BF     		.align	2
 842              	.L37:
 843 0020 00000000 		.word	CapSense_CSD_sensorRaw
 844              		.cfi_endproc
 845              	.LFE9:
 846              		.size	CapSense_CSD_ReadSensorRaw, .-CapSense_CSD_ReadSensorRaw
 847              		.section	.text.CapSense_CSD_ClearSensors,"ax",%progbits
 848              		.align	2
 849              		.global	CapSense_CSD_ClearSensors
 850              		.thumb
 851              		.thumb_func
 852              		.type	CapSense_CSD_ClearSensors, %function
 853              	CapSense_CSD_ClearSensors:
 854              	.LFB10:
1074:.\Generated_Source\PSoC5/CapSense_CSD.c **** 
1075:.\Generated_Source\PSoC5/CapSense_CSD.c **** 
1076:.\Generated_Source\PSoC5/CapSense_CSD.c **** /*******************************************************************************
1077:.\Generated_Source\PSoC5/CapSense_CSD.c **** * Function Name: CapSense_CSD_ClearSensors
1078:.\Generated_Source\PSoC5/CapSense_CSD.c **** ********************************************************************************
1079:.\Generated_Source\PSoC5/CapSense_CSD.c **** *
1080:.\Generated_Source\PSoC5/CapSense_CSD.c **** * Summary:
1081:.\Generated_Source\PSoC5/CapSense_CSD.c **** *  Resets all sensors to the non-sampling state by sequentially disconnecting
1082:.\Generated_Source\PSoC5/CapSense_CSD.c **** *  all sensors from Analog MUX Bus and putting them to inactive state.
1083:.\Generated_Source\PSoC5/CapSense_CSD.c **** *
1084:.\Generated_Source\PSoC5/CapSense_CSD.c **** * Parameters:
ARM GAS  C:\Users\mark6\AppData\Local\Temp\ccG3DDgg.s 			page 35


1085:.\Generated_Source\PSoC5/CapSense_CSD.c **** *  None
1086:.\Generated_Source\PSoC5/CapSense_CSD.c **** *
1087:.\Generated_Source\PSoC5/CapSense_CSD.c **** * Return:
1088:.\Generated_Source\PSoC5/CapSense_CSD.c **** *  None
1089:.\Generated_Source\PSoC5/CapSense_CSD.c **** *
1090:.\Generated_Source\PSoC5/CapSense_CSD.c **** *******************************************************************************/
1091:.\Generated_Source\PSoC5/CapSense_CSD.c **** void CapSense_CSD_ClearSensors(void) 
1092:.\Generated_Source\PSoC5/CapSense_CSD.c **** {
 855              		.loc 1 1092 0
 856              		.cfi_startproc
 857              		@ args = 0, pretend = 0, frame = 8
 858              		@ frame_needed = 1, uses_anonymous_args = 0
 859 0000 80B5     		push	{r7, lr}
 860              		.cfi_def_cfa_offset 8
 861              		.cfi_offset 7, -8
 862              		.cfi_offset 14, -4
 863 0002 82B0     		sub	sp, sp, #8
 864              		.cfi_def_cfa_offset 16
 865 0004 00AF     		add	r7, sp, #0
 866              		.cfi_def_cfa_register 7
1093:.\Generated_Source\PSoC5/CapSense_CSD.c ****     uint8 i;
1094:.\Generated_Source\PSoC5/CapSense_CSD.c ****    
1095:.\Generated_Source\PSoC5/CapSense_CSD.c ****     for (i = 0u; i < CapSense_CSD_TOTAL_SENSOR_COUNT; i++)
 867              		.loc 1 1095 0
 868 0006 0023     		movs	r3, #0
 869 0008 FB71     		strb	r3, [r7, #7]
 870 000a 06E0     		b	.L40
 871              	.L41:
1096:.\Generated_Source\PSoC5/CapSense_CSD.c ****     {
1097:.\Generated_Source\PSoC5/CapSense_CSD.c ****         CapSense_CSD_DisableScanSlot(i);
 872              		.loc 1 1097 0 discriminator 3
 873 000c FB79     		ldrb	r3, [r7, #7]	@ zero_extendqisi2
 874 000e 1846     		mov	r0, r3
 875 0010 FFF7FEFF 		bl	CapSense_CSD_DisableSensor
1095:.\Generated_Source\PSoC5/CapSense_CSD.c ****     {
 876              		.loc 1 1095 0 discriminator 3
 877 0014 FB79     		ldrb	r3, [r7, #7]	@ zero_extendqisi2
 878 0016 0133     		adds	r3, r3, #1
 879 0018 FB71     		strb	r3, [r7, #7]
 880              	.L40:
1095:.\Generated_Source\PSoC5/CapSense_CSD.c ****     {
 881              		.loc 1 1095 0 is_stmt 0 discriminator 1
 882 001a FB79     		ldrb	r3, [r7, #7]	@ zero_extendqisi2
 883 001c 002B     		cmp	r3, #0
 884 001e F5D0     		beq	.L41
1098:.\Generated_Source\PSoC5/CapSense_CSD.c ****     }
1099:.\Generated_Source\PSoC5/CapSense_CSD.c **** }
 885              		.loc 1 1099 0 is_stmt 1
 886 0020 0837     		adds	r7, r7, #8
 887              		.cfi_def_cfa_offset 8
 888 0022 BD46     		mov	sp, r7
 889              		.cfi_def_cfa_register 13
 890              		@ sp needed
 891 0024 80BD     		pop	{r7, pc}
 892              		.cfi_endproc
 893              	.LFE10:
 894              		.size	CapSense_CSD_ClearSensors, .-CapSense_CSD_ClearSensors
ARM GAS  C:\Users\mark6\AppData\Local\Temp\ccG3DDgg.s 			page 36


 895 0026 00BF     		.section	.text.CapSense_CSD_EnableSensor,"ax",%progbits
 896              		.align	2
 897              		.global	CapSense_CSD_EnableSensor
 898              		.thumb
 899              		.thumb_func
 900              		.type	CapSense_CSD_EnableSensor, %function
 901              	CapSense_CSD_EnableSensor:
 902              	.LFB11:
1100:.\Generated_Source\PSoC5/CapSense_CSD.c **** 
1101:.\Generated_Source\PSoC5/CapSense_CSD.c **** 
1102:.\Generated_Source\PSoC5/CapSense_CSD.c **** #if (CapSense_CSD_IS_COMPLEX_SCANSLOTS)
1103:.\Generated_Source\PSoC5/CapSense_CSD.c ****     /*******************************************************************************
1104:.\Generated_Source\PSoC5/CapSense_CSD.c ****     * Function Name: CapSense_CSD_EnableScanSlot
1105:.\Generated_Source\PSoC5/CapSense_CSD.c ****     ********************************************************************************
1106:.\Generated_Source\PSoC5/CapSense_CSD.c ****     *
1107:.\Generated_Source\PSoC5/CapSense_CSD.c ****     * Summary:
1108:.\Generated_Source\PSoC5/CapSense_CSD.c ****     *  Configures the selected slot to measure during the next measurement 
1109:.\Generated_Source\PSoC5/CapSense_CSD.c ****     *  cycle. The corresponding pin/pins are set to Analog High-Z mode and 
1110:.\Generated_Source\PSoC5/CapSense_CSD.c ****     *  connected to the Analog Mux Bus. This also enables the comparator function.
1111:.\Generated_Source\PSoC5/CapSense_CSD.c ****     *
1112:.\Generated_Source\PSoC5/CapSense_CSD.c ****     * Parameters:
1113:.\Generated_Source\PSoC5/CapSense_CSD.c ****     *  slot:  Slot number.
1114:.\Generated_Source\PSoC5/CapSense_CSD.c ****     *
1115:.\Generated_Source\PSoC5/CapSense_CSD.c ****     * Return:
1116:.\Generated_Source\PSoC5/CapSense_CSD.c ****     *  None
1117:.\Generated_Source\PSoC5/CapSense_CSD.c ****     *
1118:.\Generated_Source\PSoC5/CapSense_CSD.c ****     * Global Constants:
1119:.\Generated_Source\PSoC5/CapSense_CSD.c ****     *  CapSense_CSD_portTable[]  - used to store the port number that pin 
1120:.\Generated_Source\PSoC5/CapSense_CSD.c ****     *  belongs to for every sensor.
1121:.\Generated_Source\PSoC5/CapSense_CSD.c ****     *  CapSense_CSD_maskTable[]  - used to store the pin within the port for 
1122:.\Generated_Source\PSoC5/CapSense_CSD.c ****     *  every sensor.
1123:.\Generated_Source\PSoC5/CapSense_CSD.c ****     *  CapSense_CSD_indexTable[] - used to store indexes of complex sensors.
1124:.\Generated_Source\PSoC5/CapSense_CSD.c ****     *  The offset and position in this array are stored in port and mask table for 
1125:.\Generated_Source\PSoC5/CapSense_CSD.c ****     *  complex sensors.
1126:.\Generated_Source\PSoC5/CapSense_CSD.c ****     *  The bit 7 (msb) is used to define the sensor type: single or complex.
1127:.\Generated_Source\PSoC5/CapSense_CSD.c ****     *
1128:.\Generated_Source\PSoC5/CapSense_CSD.c ****     *******************************************************************************/
1129:.\Generated_Source\PSoC5/CapSense_CSD.c ****     void CapSense_CSD_EnableScanSlot(uint8 slot) CYREENTRANT
1130:.\Generated_Source\PSoC5/CapSense_CSD.c ****     {
1131:.\Generated_Source\PSoC5/CapSense_CSD.c ****         uint8 j;
1132:.\Generated_Source\PSoC5/CapSense_CSD.c ****         uint8 snsNumber;
1133:.\Generated_Source\PSoC5/CapSense_CSD.c ****         const uint8 CYCODE *index;
1134:.\Generated_Source\PSoC5/CapSense_CSD.c ****         /* Read the sensor type: single or complex */
1135:.\Generated_Source\PSoC5/CapSense_CSD.c ****         uint8 snsType = CapSense_CSD_portTable[slot];
1136:.\Generated_Source\PSoC5/CapSense_CSD.c ****         
1137:.\Generated_Source\PSoC5/CapSense_CSD.c ****         /* Check if sensor is complex */
1138:.\Generated_Source\PSoC5/CapSense_CSD.c ****         if ((snsType & CapSense_CSD_COMPLEX_SS_FLAG) == 0u)
1139:.\Generated_Source\PSoC5/CapSense_CSD.c ****         {
1140:.\Generated_Source\PSoC5/CapSense_CSD.c ****             /* Enable sensor (signle) */
1141:.\Generated_Source\PSoC5/CapSense_CSD.c ****             CapSense_CSD_EnableSensor(slot);
1142:.\Generated_Source\PSoC5/CapSense_CSD.c ****         }
1143:.\Generated_Source\PSoC5/CapSense_CSD.c ****         else
1144:.\Generated_Source\PSoC5/CapSense_CSD.c ****         {
1145:.\Generated_Source\PSoC5/CapSense_CSD.c ****             /* Enable complex sensor */
1146:.\Generated_Source\PSoC5/CapSense_CSD.c ****             snsType &= ~CapSense_CSD_COMPLEX_SS_FLAG;
1147:.\Generated_Source\PSoC5/CapSense_CSD.c ****             index = &CapSense_CSD_indexTable[snsType];
1148:.\Generated_Source\PSoC5/CapSense_CSD.c ****             snsNumber = CapSense_CSD_maskTable[slot];
ARM GAS  C:\Users\mark6\AppData\Local\Temp\ccG3DDgg.s 			page 37


1149:.\Generated_Source\PSoC5/CapSense_CSD.c ****                         
1150:.\Generated_Source\PSoC5/CapSense_CSD.c ****             for (j=0u; j < snsNumber; j++)
1151:.\Generated_Source\PSoC5/CapSense_CSD.c ****             {
1152:.\Generated_Source\PSoC5/CapSense_CSD.c ****                 CapSense_CSD_EnableSensor(index[j]);
1153:.\Generated_Source\PSoC5/CapSense_CSD.c ****             }
1154:.\Generated_Source\PSoC5/CapSense_CSD.c ****         } 
1155:.\Generated_Source\PSoC5/CapSense_CSD.c ****     }
1156:.\Generated_Source\PSoC5/CapSense_CSD.c ****     
1157:.\Generated_Source\PSoC5/CapSense_CSD.c ****     
1158:.\Generated_Source\PSoC5/CapSense_CSD.c ****     /*******************************************************************************
1159:.\Generated_Source\PSoC5/CapSense_CSD.c ****     * Function Name: CapSense_CSD_DisableScanSlot
1160:.\Generated_Source\PSoC5/CapSense_CSD.c ****     ********************************************************************************
1161:.\Generated_Source\PSoC5/CapSense_CSD.c ****     *
1162:.\Generated_Source\PSoC5/CapSense_CSD.c ****     * Summary:
1163:.\Generated_Source\PSoC5/CapSense_CSD.c ****     *  Disables the selected slot. The corresponding pin/pis is/are disconnected 
1164:.\Generated_Source\PSoC5/CapSense_CSD.c ****     *  from the Analog Mux Bus and connected to GND, High_Z or Shield electrode.
1165:.\Generated_Source\PSoC5/CapSense_CSD.c ****     *
1166:.\Generated_Source\PSoC5/CapSense_CSD.c ****     * Parameters:
1167:.\Generated_Source\PSoC5/CapSense_CSD.c ****     *  slot:  Slot number.
1168:.\Generated_Source\PSoC5/CapSense_CSD.c ****     *
1169:.\Generated_Source\PSoC5/CapSense_CSD.c ****     * Return:
1170:.\Generated_Source\PSoC5/CapSense_CSD.c ****     *  None
1171:.\Generated_Source\PSoC5/CapSense_CSD.c ****     *
1172:.\Generated_Source\PSoC5/CapSense_CSD.c ****     * Global Variables:
1173:.\Generated_Source\PSoC5/CapSense_CSD.c ****     *  CapSense_CSD_portTable[]  - used to store the port number that pin 
1174:.\Generated_Source\PSoC5/CapSense_CSD.c ****     *  belongs to for every sensor.
1175:.\Generated_Source\PSoC5/CapSense_CSD.c ****     *  CapSense_CSD_maskTable[]  - used to store the pin within the port for 
1176:.\Generated_Source\PSoC5/CapSense_CSD.c ****     *  every sensor.
1177:.\Generated_Source\PSoC5/CapSense_CSD.c ****     *  CapSense_CSD_indexTable[] - used to store indexes of complex sensors.
1178:.\Generated_Source\PSoC5/CapSense_CSD.c ****     *  The offset and position in this array are stored in port and mask table for 
1179:.\Generated_Source\PSoC5/CapSense_CSD.c ****     *  complex sensors.
1180:.\Generated_Source\PSoC5/CapSense_CSD.c ****     *  The 7bit(msb) is used to define the sensor type: single or complex.
1181:.\Generated_Source\PSoC5/CapSense_CSD.c ****     *
1182:.\Generated_Source\PSoC5/CapSense_CSD.c ****     *******************************************************************************/
1183:.\Generated_Source\PSoC5/CapSense_CSD.c ****     void CapSense_CSD_DisableScanSlot(uint8 slot) CYREENTRANT
1184:.\Generated_Source\PSoC5/CapSense_CSD.c ****     {
1185:.\Generated_Source\PSoC5/CapSense_CSD.c ****         uint8 j;
1186:.\Generated_Source\PSoC5/CapSense_CSD.c ****         uint8 snsNumber;
1187:.\Generated_Source\PSoC5/CapSense_CSD.c ****         const uint8 CYCODE *index;
1188:.\Generated_Source\PSoC5/CapSense_CSD.c ****         /* Read the sensor type: single or complex */
1189:.\Generated_Source\PSoC5/CapSense_CSD.c ****         uint8 snsType = CapSense_CSD_portTable[slot];
1190:.\Generated_Source\PSoC5/CapSense_CSD.c ****         
1191:.\Generated_Source\PSoC5/CapSense_CSD.c ****         /* Check if sensor is complex */
1192:.\Generated_Source\PSoC5/CapSense_CSD.c ****         if ((snsType & CapSense_CSD_COMPLEX_SS_FLAG) == 0u)
1193:.\Generated_Source\PSoC5/CapSense_CSD.c ****         {
1194:.\Generated_Source\PSoC5/CapSense_CSD.c ****             /* Disable sensor (signle) */
1195:.\Generated_Source\PSoC5/CapSense_CSD.c ****             CapSense_CSD_DisableSensor(slot);
1196:.\Generated_Source\PSoC5/CapSense_CSD.c ****         }
1197:.\Generated_Source\PSoC5/CapSense_CSD.c ****         else
1198:.\Generated_Source\PSoC5/CapSense_CSD.c ****         {
1199:.\Generated_Source\PSoC5/CapSense_CSD.c ****             /* Disable complex sensor */
1200:.\Generated_Source\PSoC5/CapSense_CSD.c ****             snsType &= ~CapSense_CSD_COMPLEX_SS_FLAG;
1201:.\Generated_Source\PSoC5/CapSense_CSD.c ****             index = &CapSense_CSD_indexTable[snsType];
1202:.\Generated_Source\PSoC5/CapSense_CSD.c ****             snsNumber = CapSense_CSD_maskTable[slot];
1203:.\Generated_Source\PSoC5/CapSense_CSD.c ****                         
1204:.\Generated_Source\PSoC5/CapSense_CSD.c ****             for (j=0u; j < snsNumber; j++)
1205:.\Generated_Source\PSoC5/CapSense_CSD.c ****             {
ARM GAS  C:\Users\mark6\AppData\Local\Temp\ccG3DDgg.s 			page 38


1206:.\Generated_Source\PSoC5/CapSense_CSD.c ****                 CapSense_CSD_DisableSensor(index[j]);
1207:.\Generated_Source\PSoC5/CapSense_CSD.c ****             }
1208:.\Generated_Source\PSoC5/CapSense_CSD.c ****         } 
1209:.\Generated_Source\PSoC5/CapSense_CSD.c ****     }
1210:.\Generated_Source\PSoC5/CapSense_CSD.c **** #endif  /* CapSense_CSD_IS_COMPLEX_SCANSLOTS */
1211:.\Generated_Source\PSoC5/CapSense_CSD.c **** 
1212:.\Generated_Source\PSoC5/CapSense_CSD.c **** 
1213:.\Generated_Source\PSoC5/CapSense_CSD.c **** /*******************************************************************************
1214:.\Generated_Source\PSoC5/CapSense_CSD.c **** * Function Name: CapSense_CSD_EnableSensor
1215:.\Generated_Source\PSoC5/CapSense_CSD.c **** ********************************************************************************
1216:.\Generated_Source\PSoC5/CapSense_CSD.c **** *
1217:.\Generated_Source\PSoC5/CapSense_CSD.c **** * Summary:
1218:.\Generated_Source\PSoC5/CapSense_CSD.c **** *  Configures the selected sensor to measure during the next measurement cycle.
1219:.\Generated_Source\PSoC5/CapSense_CSD.c **** *  The corresponding pins are set to Analog High-Z mode and connected to the
1220:.\Generated_Source\PSoC5/CapSense_CSD.c **** *  Analog Mux Bus. This also enables the comparator function.
1221:.\Generated_Source\PSoC5/CapSense_CSD.c **** *
1222:.\Generated_Source\PSoC5/CapSense_CSD.c **** * Parameters:
1223:.\Generated_Source\PSoC5/CapSense_CSD.c **** *  sensor:  Sensor number.
1224:.\Generated_Source\PSoC5/CapSense_CSD.c **** *
1225:.\Generated_Source\PSoC5/CapSense_CSD.c **** * Return:
1226:.\Generated_Source\PSoC5/CapSense_CSD.c **** *  None
1227:.\Generated_Source\PSoC5/CapSense_CSD.c **** *
1228:.\Generated_Source\PSoC5/CapSense_CSD.c **** * Global Variables:
1229:.\Generated_Source\PSoC5/CapSense_CSD.c **** *  CapSense_CSD_portTable[] - used to store the port number that pin 
1230:.\Generated_Source\PSoC5/CapSense_CSD.c **** *  belongs to for every sensor.
1231:.\Generated_Source\PSoC5/CapSense_CSD.c **** *  CapSense_CSD_maskTable[] - used to store the pin within the port for 
1232:.\Generated_Source\PSoC5/CapSense_CSD.c **** *  every sensor.
1233:.\Generated_Source\PSoC5/CapSense_CSD.c **** *  CapSense_CSD_csTable[]   - used to store the pointers to CAPS_SEL 
1234:.\Generated_Source\PSoC5/CapSense_CSD.c **** *  registers for every port.
1235:.\Generated_Source\PSoC5/CapSense_CSD.c **** *  CapSense_CSD_pcTable[]   - used to store the pointers to PC pin 
1236:.\Generated_Source\PSoC5/CapSense_CSD.c **** *  register for every sensor.
1237:.\Generated_Source\PSoC5/CapSense_CSD.c **** *  CapSense_CSD_amuxIndex[] - used to store corrected AMUX index when 
1238:.\Generated_Source\PSoC5/CapSense_CSD.c **** *  complex sensors are defeined.
1239:.\Generated_Source\PSoC5/CapSense_CSD.c **** *
1240:.\Generated_Source\PSoC5/CapSense_CSD.c **** *******************************************************************************/
1241:.\Generated_Source\PSoC5/CapSense_CSD.c **** void CapSense_CSD_EnableSensor(uint8 sensor) CYREENTRANT
1242:.\Generated_Source\PSoC5/CapSense_CSD.c **** {
 903              		.loc 1 1242 0
 904              		.cfi_startproc
 905              		@ args = 0, pretend = 0, frame = 16
 906              		@ frame_needed = 1, uses_anonymous_args = 0
 907 0000 80B5     		push	{r7, lr}
 908              		.cfi_def_cfa_offset 8
 909              		.cfi_offset 7, -8
 910              		.cfi_offset 14, -4
 911 0002 84B0     		sub	sp, sp, #16
 912              		.cfi_def_cfa_offset 24
 913 0004 00AF     		add	r7, sp, #0
 914              		.cfi_def_cfa_register 7
 915 0006 0346     		mov	r3, r0
 916 0008 FB71     		strb	r3, [r7, #7]
1243:.\Generated_Source\PSoC5/CapSense_CSD.c ****     uint8 port = CapSense_CSD_portTable[sensor];
 917              		.loc 1 1243 0
 918 000a 0523     		movs	r3, #5
 919 000c FB73     		strb	r3, [r7, #15]
1244:.\Generated_Source\PSoC5/CapSense_CSD.c ****     uint8 mask = CapSense_CSD_maskTable[sensor];
 920              		.loc 1 1244 0
ARM GAS  C:\Users\mark6\AppData\Local\Temp\ccG3DDgg.s 			page 39


 921 000e 2023     		movs	r3, #32
 922 0010 BB73     		strb	r3, [r7, #14]
1245:.\Generated_Source\PSoC5/CapSense_CSD.c ****     
1246:.\Generated_Source\PSoC5/CapSense_CSD.c ****     #if ((CapSense_CSD_DESIGN_TYPE == CapSense_CSD_TWO_CHANNELS_DESIGN) && \
1247:.\Generated_Source\PSoC5/CapSense_CSD.c ****          (CapSense_CSD_IS_COMPLEX_SCANSLOTS))
1248:.\Generated_Source\PSoC5/CapSense_CSD.c ****         uint8 amuxCh = CapSense_CSD_amuxIndex[sensor];
1249:.\Generated_Source\PSoC5/CapSense_CSD.c ****     #endif  /* ((CapSense_CSD_DESIGN_TYPE == CapSense_CSD_TWO_CHANNELS_DESIGN) && \
1250:.\Generated_Source\PSoC5/CapSense_CSD.c ****             *   (CapSense_CSD_IS_COMPLEX_SCANSLOTS))
1251:.\Generated_Source\PSoC5/CapSense_CSD.c ****             */
1252:.\Generated_Source\PSoC5/CapSense_CSD.c ****     
1253:.\Generated_Source\PSoC5/CapSense_CSD.c ****     /* Make sensor High-Z */
1254:.\Generated_Source\PSoC5/CapSense_CSD.c ****     *CapSense_CSD_pcTable[sensor] = CapSense_CSD_PRT_PC_HIGHZ;
 923              		.loc 1 1254 0
 924 0012 0E4B     		ldr	r3, .L44
 925 0014 0922     		movs	r2, #9
 926 0016 1A70     		strb	r2, [r3]
1255:.\Generated_Source\PSoC5/CapSense_CSD.c ****     
1256:.\Generated_Source\PSoC5/CapSense_CSD.c ****     /* Connect to DSI output */
1257:.\Generated_Source\PSoC5/CapSense_CSD.c **** 	if(port == 15u)
 927              		.loc 1 1257 0
 928 0018 FB7B     		ldrb	r3, [r7, #15]	@ zero_extendqisi2
 929 001a 0F2B     		cmp	r3, #15
 930 001c 01D1     		bne	.L43
1258:.\Generated_Source\PSoC5/CapSense_CSD.c **** 	{
1259:.\Generated_Source\PSoC5/CapSense_CSD.c **** 		port = 7u;
 931              		.loc 1 1259 0
 932 001e 0723     		movs	r3, #7
 933 0020 FB73     		strb	r3, [r7, #15]
 934              	.L43:
1260:.\Generated_Source\PSoC5/CapSense_CSD.c **** 	}
1261:.\Generated_Source\PSoC5/CapSense_CSD.c ****     *CapSense_CSD_csTable[port] |= mask;
 935              		.loc 1 1261 0
 936 0022 FB7B     		ldrb	r3, [r7, #15]	@ zero_extendqisi2
 937 0024 0A4A     		ldr	r2, .L44+4
 938 0026 52F82330 		ldr	r3, [r2, r3, lsl #2]
 939 002a FA7B     		ldrb	r2, [r7, #15]	@ zero_extendqisi2
 940 002c 0849     		ldr	r1, .L44+4
 941 002e 51F82220 		ldr	r2, [r1, r2, lsl #2]
 942 0032 1178     		ldrb	r1, [r2]	@ zero_extendqisi2
 943 0034 BA7B     		ldrb	r2, [r7, #14]
 944 0036 0A43     		orrs	r2, r2, r1
 945 0038 D2B2     		uxtb	r2, r2
 946 003a 1A70     		strb	r2, [r3]
1262:.\Generated_Source\PSoC5/CapSense_CSD.c ****     
1263:.\Generated_Source\PSoC5/CapSense_CSD.c ****     /* Connect to AMUX */
1264:.\Generated_Source\PSoC5/CapSense_CSD.c ****     #if (CapSense_CSD_DESIGN_TYPE == CapSense_CSD_ONE_CHANNEL_DESIGN)
1265:.\Generated_Source\PSoC5/CapSense_CSD.c ****         #if (CapSense_CSD_IS_COMPLEX_SCANSLOTS)
1266:.\Generated_Source\PSoC5/CapSense_CSD.c ****             CapSense_CSD_AMuxCH0_Connect(CapSense_CSD_amuxIndex[sensor]);
1267:.\Generated_Source\PSoC5/CapSense_CSD.c ****         #else
1268:.\Generated_Source\PSoC5/CapSense_CSD.c ****             CapSense_CSD_AMuxCH0_Connect(sensor);
 947              		.loc 1 1268 0
 948 003c FB79     		ldrb	r3, [r7, #7]	@ zero_extendqisi2
 949 003e 1846     		mov	r0, r3
 950 0040 FFF7FEFF 		bl	CapSense_CSD_AMuxCH0_Set
1269:.\Generated_Source\PSoC5/CapSense_CSD.c ****         #endif  /* CapSense_CSD_IS_COMPLEX_SCANSLOTS */
1270:.\Generated_Source\PSoC5/CapSense_CSD.c ****                 
1271:.\Generated_Source\PSoC5/CapSense_CSD.c ****     #else
ARM GAS  C:\Users\mark6\AppData\Local\Temp\ccG3DDgg.s 			page 40


1272:.\Generated_Source\PSoC5/CapSense_CSD.c ****         #if (CapSense_CSD_IS_COMPLEX_SCANSLOTS)
1273:.\Generated_Source\PSoC5/CapSense_CSD.c ****             if ((amuxCh & CapSense_CSD_CHANNEL1_FLAG) == 0u)
1274:.\Generated_Source\PSoC5/CapSense_CSD.c ****             {
1275:.\Generated_Source\PSoC5/CapSense_CSD.c ****                 CapSense_CSD_AMuxCH0_Connect(amuxCh);
1276:.\Generated_Source\PSoC5/CapSense_CSD.c ****             } 
1277:.\Generated_Source\PSoC5/CapSense_CSD.c ****             else
1278:.\Generated_Source\PSoC5/CapSense_CSD.c ****             {
1279:.\Generated_Source\PSoC5/CapSense_CSD.c ****                 amuxCh &= ~ CapSense_CSD_CHANNEL1_FLAG;
1280:.\Generated_Source\PSoC5/CapSense_CSD.c ****                 CapSense_CSD_AMuxCH1_Connect(amuxCh);
1281:.\Generated_Source\PSoC5/CapSense_CSD.c ****             }
1282:.\Generated_Source\PSoC5/CapSense_CSD.c ****             
1283:.\Generated_Source\PSoC5/CapSense_CSD.c ****         #else
1284:.\Generated_Source\PSoC5/CapSense_CSD.c ****             if (sensor < CapSense_CSD_TOTAL_SENSOR_COUNT__CH0) 
1285:.\Generated_Source\PSoC5/CapSense_CSD.c ****             {
1286:.\Generated_Source\PSoC5/CapSense_CSD.c ****                 CapSense_CSD_AMuxCH0_Connect(sensor);
1287:.\Generated_Source\PSoC5/CapSense_CSD.c ****             } 
1288:.\Generated_Source\PSoC5/CapSense_CSD.c ****             else
1289:.\Generated_Source\PSoC5/CapSense_CSD.c ****             {
1290:.\Generated_Source\PSoC5/CapSense_CSD.c ****                 CapSense_CSD_AMuxCH1_Connect(sensor - CapSense_CSD_TOTAL_SENSOR_COUNT__CH0);
1291:.\Generated_Source\PSoC5/CapSense_CSD.c ****             }
1292:.\Generated_Source\PSoC5/CapSense_CSD.c ****             
1293:.\Generated_Source\PSoC5/CapSense_CSD.c ****         #endif  /* CapSense_CSD_IS_COMPLEX_SCANSLOTS */
1294:.\Generated_Source\PSoC5/CapSense_CSD.c ****         
1295:.\Generated_Source\PSoC5/CapSense_CSD.c ****     #endif  /* CapSense_CSD_DESIGN_TYPE == CapSense_CSD_ONE_CHANNEL_DESIGN */
1296:.\Generated_Source\PSoC5/CapSense_CSD.c **** }
 951              		.loc 1 1296 0
 952 0044 1037     		adds	r7, r7, #16
 953              		.cfi_def_cfa_offset 8
 954 0046 BD46     		mov	sp, r7
 955              		.cfi_def_cfa_register 13
 956              		@ sp needed
 957 0048 80BD     		pop	{r7, pc}
 958              	.L45:
 959 004a 00BF     		.align	2
 960              	.L44:
 961 004c 2D500040 		.word	1073762349
 962 0050 00000000 		.word	CapSense_CSD_csTable
 963              		.cfi_endproc
 964              	.LFE11:
 965              		.size	CapSense_CSD_EnableSensor, .-CapSense_CSD_EnableSensor
 966              		.section	.text.CapSense_CSD_DisableSensor,"ax",%progbits
 967              		.align	2
 968              		.global	CapSense_CSD_DisableSensor
 969              		.thumb
 970              		.thumb_func
 971              		.type	CapSense_CSD_DisableSensor, %function
 972              	CapSense_CSD_DisableSensor:
 973              	.LFB12:
1297:.\Generated_Source\PSoC5/CapSense_CSD.c **** 
1298:.\Generated_Source\PSoC5/CapSense_CSD.c **** 
1299:.\Generated_Source\PSoC5/CapSense_CSD.c **** /*******************************************************************************
1300:.\Generated_Source\PSoC5/CapSense_CSD.c **** * Function Name: CapSense_CSD_DisableSensor
1301:.\Generated_Source\PSoC5/CapSense_CSD.c **** ********************************************************************************
1302:.\Generated_Source\PSoC5/CapSense_CSD.c **** *
1303:.\Generated_Source\PSoC5/CapSense_CSD.c **** * Summary:
1304:.\Generated_Source\PSoC5/CapSense_CSD.c **** *  Disables the selected sensor. The corresponding pin is disconnected from the
1305:.\Generated_Source\PSoC5/CapSense_CSD.c **** *  Analog Mux Bus and connected to GND, High_Z or Shield electrode.
ARM GAS  C:\Users\mark6\AppData\Local\Temp\ccG3DDgg.s 			page 41


1306:.\Generated_Source\PSoC5/CapSense_CSD.c **** *
1307:.\Generated_Source\PSoC5/CapSense_CSD.c **** * Parameters:
1308:.\Generated_Source\PSoC5/CapSense_CSD.c **** *  sensor:  Sensor number
1309:.\Generated_Source\PSoC5/CapSense_CSD.c **** *
1310:.\Generated_Source\PSoC5/CapSense_CSD.c **** * Return:
1311:.\Generated_Source\PSoC5/CapSense_CSD.c **** *  None
1312:.\Generated_Source\PSoC5/CapSense_CSD.c **** *
1313:.\Generated_Source\PSoC5/CapSense_CSD.c **** * Global Variables:
1314:.\Generated_Source\PSoC5/CapSense_CSD.c **** *  CapSense_CSD_portTable[] - used to store the port number that pin 
1315:.\Generated_Source\PSoC5/CapSense_CSD.c **** *  belongs to for every sensor.
1316:.\Generated_Source\PSoC5/CapSense_CSD.c **** *  CapSense_CSD_maskTable[] - used to store the pin within the port for 
1317:.\Generated_Source\PSoC5/CapSense_CSD.c **** *  every sensor.
1318:.\Generated_Source\PSoC5/CapSense_CSD.c **** *  CapSense_CSD_csTable[]   - used to store the pointers to CAPS_SEL 
1319:.\Generated_Source\PSoC5/CapSense_CSD.c **** *  registers for every port.
1320:.\Generated_Source\PSoC5/CapSense_CSD.c **** *  CapSense_CSD_pcTable[]   - used to store the pointers to PC pin 
1321:.\Generated_Source\PSoC5/CapSense_CSD.c **** *  register for every sensor.
1322:.\Generated_Source\PSoC5/CapSense_CSD.c **** *  CapSense_CSD_amuxIndex[] - used to store corrected AMUX index when 
1323:.\Generated_Source\PSoC5/CapSense_CSD.c **** *  complex sensors are defeined.
1324:.\Generated_Source\PSoC5/CapSense_CSD.c **** *
1325:.\Generated_Source\PSoC5/CapSense_CSD.c **** *******************************************************************************/
1326:.\Generated_Source\PSoC5/CapSense_CSD.c **** void CapSense_CSD_DisableSensor(uint8 sensor) CYREENTRANT
1327:.\Generated_Source\PSoC5/CapSense_CSD.c **** {
 974              		.loc 1 1327 0
 975              		.cfi_startproc
 976              		@ args = 0, pretend = 0, frame = 16
 977              		@ frame_needed = 1, uses_anonymous_args = 0
 978 0000 80B5     		push	{r7, lr}
 979              		.cfi_def_cfa_offset 8
 980              		.cfi_offset 7, -8
 981              		.cfi_offset 14, -4
 982 0002 84B0     		sub	sp, sp, #16
 983              		.cfi_def_cfa_offset 24
 984 0004 00AF     		add	r7, sp, #0
 985              		.cfi_def_cfa_register 7
 986 0006 0346     		mov	r3, r0
 987 0008 FB71     		strb	r3, [r7, #7]
1328:.\Generated_Source\PSoC5/CapSense_CSD.c ****     uint8 port = CapSense_CSD_portTable[sensor];
 988              		.loc 1 1328 0
 989 000a 0523     		movs	r3, #5
 990 000c FB73     		strb	r3, [r7, #15]
1329:.\Generated_Source\PSoC5/CapSense_CSD.c ****     uint8 mask = CapSense_CSD_maskTable[sensor];
 991              		.loc 1 1329 0
 992 000e 2023     		movs	r3, #32
 993 0010 BB73     		strb	r3, [r7, #14]
1330:.\Generated_Source\PSoC5/CapSense_CSD.c ****     
1331:.\Generated_Source\PSoC5/CapSense_CSD.c ****     #if ((CapSense_CSD_DESIGN_TYPE == CapSense_CSD_TWO_CHANNELS_DESIGN) && \
1332:.\Generated_Source\PSoC5/CapSense_CSD.c ****          (CapSense_CSD_IS_COMPLEX_SCANSLOTS))
1333:.\Generated_Source\PSoC5/CapSense_CSD.c ****         uint8 amuxCh = CapSense_CSD_amuxIndex[sensor];
1334:.\Generated_Source\PSoC5/CapSense_CSD.c ****     #endif  /* ((CapSense_CSD_DESIGN_TYPE == CapSense_CSD_TWO_CHANNELS_DESIGN) && \
1335:.\Generated_Source\PSoC5/CapSense_CSD.c ****             *   (CapSense_CSD_IS_COMPLEX_SCANSLOTS))
1336:.\Generated_Source\PSoC5/CapSense_CSD.c ****             */
1337:.\Generated_Source\PSoC5/CapSense_CSD.c ****     
1338:.\Generated_Source\PSoC5/CapSense_CSD.c ****     /* Disconnect from AMUX */
1339:.\Generated_Source\PSoC5/CapSense_CSD.c ****     #if (CapSense_CSD_DESIGN_TYPE == CapSense_CSD_ONE_CHANNEL_DESIGN)
1340:.\Generated_Source\PSoC5/CapSense_CSD.c ****         #if (CapSense_CSD_IS_COMPLEX_SCANSLOTS)
1341:.\Generated_Source\PSoC5/CapSense_CSD.c ****             CapSense_CSD_AMuxCH0_Disconnect(CapSense_CSD_amuxIndex[sensor]);
1342:.\Generated_Source\PSoC5/CapSense_CSD.c ****         #else
ARM GAS  C:\Users\mark6\AppData\Local\Temp\ccG3DDgg.s 			page 42


1343:.\Generated_Source\PSoC5/CapSense_CSD.c ****             CapSense_CSD_AMuxCH0_Disconnect(sensor);
 994              		.loc 1 1343 0
 995 0012 FB79     		ldrb	r3, [r7, #7]	@ zero_extendqisi2
 996 0014 1846     		mov	r0, r3
 997 0016 FFF7FEFF 		bl	CapSense_CSD_AMuxCH0_Unset
1344:.\Generated_Source\PSoC5/CapSense_CSD.c ****         #endif  /* CapSense_CSD_IS_COMPLEX_SCANSLOTS */
1345:.\Generated_Source\PSoC5/CapSense_CSD.c ****                 
1346:.\Generated_Source\PSoC5/CapSense_CSD.c ****     #else
1347:.\Generated_Source\PSoC5/CapSense_CSD.c ****         #if (CapSense_CSD_IS_COMPLEX_SCANSLOTS)
1348:.\Generated_Source\PSoC5/CapSense_CSD.c ****             if ((amuxCh & CapSense_CSD_CHANNEL1_FLAG) == 0u)
1349:.\Generated_Source\PSoC5/CapSense_CSD.c ****             {
1350:.\Generated_Source\PSoC5/CapSense_CSD.c ****                 CapSense_CSD_AMuxCH0_Disconnect(amuxCh);
1351:.\Generated_Source\PSoC5/CapSense_CSD.c ****             } 
1352:.\Generated_Source\PSoC5/CapSense_CSD.c ****             else
1353:.\Generated_Source\PSoC5/CapSense_CSD.c ****             {
1354:.\Generated_Source\PSoC5/CapSense_CSD.c ****                 amuxCh &= ~ CapSense_CSD_CHANNEL1_FLAG;
1355:.\Generated_Source\PSoC5/CapSense_CSD.c ****                 CapSense_CSD_AMuxCH1_Disconnect(amuxCh);
1356:.\Generated_Source\PSoC5/CapSense_CSD.c ****             }
1357:.\Generated_Source\PSoC5/CapSense_CSD.c ****             
1358:.\Generated_Source\PSoC5/CapSense_CSD.c ****         #else
1359:.\Generated_Source\PSoC5/CapSense_CSD.c ****             if (sensor < CapSense_CSD_TOTAL_SENSOR_COUNT__CH0) 
1360:.\Generated_Source\PSoC5/CapSense_CSD.c ****             {
1361:.\Generated_Source\PSoC5/CapSense_CSD.c ****                 CapSense_CSD_AMuxCH0_Disconnect(sensor);
1362:.\Generated_Source\PSoC5/CapSense_CSD.c ****             } 
1363:.\Generated_Source\PSoC5/CapSense_CSD.c ****             else
1364:.\Generated_Source\PSoC5/CapSense_CSD.c ****             {
1365:.\Generated_Source\PSoC5/CapSense_CSD.c ****                 CapSense_CSD_AMuxCH1_Disconnect(sensor - CapSense_CSD_TOTAL_SENSOR_COUNT__CH0);
1366:.\Generated_Source\PSoC5/CapSense_CSD.c ****             }
1367:.\Generated_Source\PSoC5/CapSense_CSD.c ****             
1368:.\Generated_Source\PSoC5/CapSense_CSD.c ****         #endif  /* CapSense_CSD_IS_COMPLEX_SCANSLOTS */
1369:.\Generated_Source\PSoC5/CapSense_CSD.c ****         
1370:.\Generated_Source\PSoC5/CapSense_CSD.c ****     #endif  /* CapSense_CSD_DESIGN_TYPE */
1371:.\Generated_Source\PSoC5/CapSense_CSD.c ****     
1372:.\Generated_Source\PSoC5/CapSense_CSD.c ****     /* Disconnect from DSI output */
1373:.\Generated_Source\PSoC5/CapSense_CSD.c **** 	if(port == 15u)
 998              		.loc 1 1373 0
 999 001a FB7B     		ldrb	r3, [r7, #15]	@ zero_extendqisi2
 1000 001c 0F2B     		cmp	r3, #15
 1001 001e 01D1     		bne	.L47
1374:.\Generated_Source\PSoC5/CapSense_CSD.c **** 	{
1375:.\Generated_Source\PSoC5/CapSense_CSD.c **** 		port = 7u;
 1002              		.loc 1 1375 0
 1003 0020 0723     		movs	r3, #7
 1004 0022 FB73     		strb	r3, [r7, #15]
 1005              	.L47:
1376:.\Generated_Source\PSoC5/CapSense_CSD.c **** 	}
1377:.\Generated_Source\PSoC5/CapSense_CSD.c ****     *CapSense_CSD_csTable[port] &= (uint8)~mask;
 1006              		.loc 1 1377 0
 1007 0024 FB7B     		ldrb	r3, [r7, #15]	@ zero_extendqisi2
 1008 0026 0A4A     		ldr	r2, .L48
 1009 0028 52F82330 		ldr	r3, [r2, r3, lsl #2]
 1010 002c FA7B     		ldrb	r2, [r7, #15]	@ zero_extendqisi2
 1011 002e 0849     		ldr	r1, .L48
 1012 0030 51F82220 		ldr	r2, [r1, r2, lsl #2]
 1013 0034 1178     		ldrb	r1, [r2]	@ zero_extendqisi2
 1014 0036 BA7B     		ldrb	r2, [r7, #14]
 1015 0038 D243     		mvns	r2, r2
ARM GAS  C:\Users\mark6\AppData\Local\Temp\ccG3DDgg.s 			page 43


 1016 003a D2B2     		uxtb	r2, r2
 1017 003c 0A40     		ands	r2, r2, r1
 1018 003e D2B2     		uxtb	r2, r2
 1019 0040 1A70     		strb	r2, [r3]
1378:.\Generated_Source\PSoC5/CapSense_CSD.c ****     
1379:.\Generated_Source\PSoC5/CapSense_CSD.c ****     /* Set sensor to inactive state */
1380:.\Generated_Source\PSoC5/CapSense_CSD.c ****     #if (CapSense_CSD_CONNECT_INACTIVE_SNS == CapSense_CSD_CIS_GND)
1381:.\Generated_Source\PSoC5/CapSense_CSD.c ****         *CapSense_CSD_pcTable[sensor] = CapSense_CSD_PRT_PC_GND;
 1020              		.loc 1 1381 0
 1021 0042 044B     		ldr	r3, .L48+4
 1022 0044 0822     		movs	r2, #8
 1023 0046 1A70     		strb	r2, [r3]
1382:.\Generated_Source\PSoC5/CapSense_CSD.c ****     #elif (CapSense_CSD_CONNECT_INACTIVE_SNS == CapSense_CSD_CIS_HIGHZ)
1383:.\Generated_Source\PSoC5/CapSense_CSD.c ****         *CapSense_CSD_pcTable[sensor] = CapSense_CSD_PRT_PC_HIGHZ;
1384:.\Generated_Source\PSoC5/CapSense_CSD.c ****     #else
1385:.\Generated_Source\PSoC5/CapSense_CSD.c ****         *CapSense_CSD_pcTable[sensor] = CapSense_CSD_PRT_PC_SHIELD;
1386:.\Generated_Source\PSoC5/CapSense_CSD.c ****     #endif  /* (CapSense_CSD_CONNECT_INACTIVE_SNS == CapSense_CSD_CIS_GND) */
1387:.\Generated_Source\PSoC5/CapSense_CSD.c **** }
 1024              		.loc 1 1387 0
 1025 0048 1037     		adds	r7, r7, #16
 1026              		.cfi_def_cfa_offset 8
 1027 004a BD46     		mov	sp, r7
 1028              		.cfi_def_cfa_register 13
 1029              		@ sp needed
 1030 004c 80BD     		pop	{r7, pc}
 1031              	.L49:
 1032 004e 00BF     		.align	2
 1033              	.L48:
 1034 0050 00000000 		.word	CapSense_CSD_csTable
 1035 0054 2D500040 		.word	1073762349
 1036              		.cfi_endproc
 1037              	.LFE12:
 1038              		.size	CapSense_CSD_DisableSensor, .-CapSense_CSD_DisableSensor
 1039              		.section	.text.CapSense_CSD_PreScan,"ax",%progbits
 1040              		.align	2
 1041              		.global	CapSense_CSD_PreScan
 1042              		.thumb
 1043              		.thumb_func
 1044              		.type	CapSense_CSD_PreScan, %function
 1045              	CapSense_CSD_PreScan:
 1046              	.LFB13:
1388:.\Generated_Source\PSoC5/CapSense_CSD.c **** 
1389:.\Generated_Source\PSoC5/CapSense_CSD.c **** 
1390:.\Generated_Source\PSoC5/CapSense_CSD.c **** /*******************************************************************************
1391:.\Generated_Source\PSoC5/CapSense_CSD.c **** * Function Name: CapSense_CSD_PreScan
1392:.\Generated_Source\PSoC5/CapSense_CSD.c **** ********************************************************************************
1393:.\Generated_Source\PSoC5/CapSense_CSD.c **** *
1394:.\Generated_Source\PSoC5/CapSense_CSD.c **** * Summary:
1395:.\Generated_Source\PSoC5/CapSense_CSD.c **** *  Set required settings, enable sensor, remove Vref from AMUX and start the 
1396:.\Generated_Source\PSoC5/CapSense_CSD.c **** *  scanning process of the sensor.
1397:.\Generated_Source\PSoC5/CapSense_CSD.c **** *
1398:.\Generated_Source\PSoC5/CapSense_CSD.c **** * Parameters:
1399:.\Generated_Source\PSoC5/CapSense_CSD.c **** *  sensor:  Sensor number.
1400:.\Generated_Source\PSoC5/CapSense_CSD.c **** *
1401:.\Generated_Source\PSoC5/CapSense_CSD.c **** * Return:
1402:.\Generated_Source\PSoC5/CapSense_CSD.c **** *  None
1403:.\Generated_Source\PSoC5/CapSense_CSD.c **** *
ARM GAS  C:\Users\mark6\AppData\Local\Temp\ccG3DDgg.s 			page 44


1404:.\Generated_Source\PSoC5/CapSense_CSD.c **** * Global Variables:
1405:.\Generated_Source\PSoC5/CapSense_CSD.c **** *  CapSense_CSD_rbTable[] - used to store pointers to PC pin registers for 
1406:.\Generated_Source\PSoC5/CapSense_CSD.c **** *  every bleed resistor (Rb). Only available when Current Source is External 
1407:.\Generated_Source\PSoC5/CapSense_CSD.c **** *  resistor.
1408:.\Generated_Source\PSoC5/CapSense_CSD.c **** *
1409:.\Generated_Source\PSoC5/CapSense_CSD.c **** *******************************************************************************/
1410:.\Generated_Source\PSoC5/CapSense_CSD.c **** void CapSense_CSD_PreScan(uint8 sensor) CYREENTRANT
1411:.\Generated_Source\PSoC5/CapSense_CSD.c **** {
 1047              		.loc 1 1411 0
 1048              		.cfi_startproc
 1049              		@ args = 0, pretend = 0, frame = 8
 1050              		@ frame_needed = 1, uses_anonymous_args = 0
 1051 0000 80B5     		push	{r7, lr}
 1052              		.cfi_def_cfa_offset 8
 1053              		.cfi_offset 7, -8
 1054              		.cfi_offset 14, -4
 1055 0002 82B0     		sub	sp, sp, #8
 1056              		.cfi_def_cfa_offset 16
 1057 0004 00AF     		add	r7, sp, #0
 1058              		.cfi_def_cfa_register 7
 1059 0006 0346     		mov	r3, r0
 1060 0008 FB71     		strb	r3, [r7, #7]
1412:.\Generated_Source\PSoC5/CapSense_CSD.c ****     /* Set Sensor Settings */
1413:.\Generated_Source\PSoC5/CapSense_CSD.c ****     CapSense_CSD_SetScanSlotSettings(sensor);
 1061              		.loc 1 1413 0
 1062 000a FB79     		ldrb	r3, [r7, #7]	@ zero_extendqisi2
 1063 000c 1846     		mov	r0, r3
 1064 000e FFF7FEFF 		bl	CapSense_CSD_SetScanSlotSettings
1414:.\Generated_Source\PSoC5/CapSense_CSD.c ****     
1415:.\Generated_Source\PSoC5/CapSense_CSD.c ****     /* Place disable interrupts here to eliminate influence on start of scanning */
1416:.\Generated_Source\PSoC5/CapSense_CSD.c ****     /* `#START CapSense_CSD_PreScan_DisableInt` */
1417:.\Generated_Source\PSoC5/CapSense_CSD.c **** 
1418:.\Generated_Source\PSoC5/CapSense_CSD.c ****     /* `#END` */
1419:.\Generated_Source\PSoC5/CapSense_CSD.c ****     
1420:.\Generated_Source\PSoC5/CapSense_CSD.c ****     #ifdef CapSense_CSD_PRE_SCAN_DISABLE_INT_CALLBACK
1421:.\Generated_Source\PSoC5/CapSense_CSD.c ****     CapSense_CSD_PreScan_DisableInt_Callback();
1422:.\Generated_Source\PSoC5/CapSense_CSD.c ****     #endif /* CapSense_CSD_PRE_SCAN_DISABLE_INT_CALLBACK */
1423:.\Generated_Source\PSoC5/CapSense_CSD.c **** 
1424:.\Generated_Source\PSoC5/CapSense_CSD.c ****     /* Resets digital and pre-charge clocks */
1425:.\Generated_Source\PSoC5/CapSense_CSD.c ****     CapSense_CSD_CONTROL_REG |= CapSense_CSD_CTRL_SYNC_EN;
 1065              		.loc 1 1425 0
 1066 0012 0F4A     		ldr	r2, .L51
 1067 0014 0E4B     		ldr	r3, .L51
 1068 0016 1B78     		ldrb	r3, [r3]
 1069 0018 DBB2     		uxtb	r3, r3
 1070 001a 43F00103 		orr	r3, r3, #1
 1071 001e DBB2     		uxtb	r3, r3
 1072 0020 1370     		strb	r3, [r2]
1426:.\Generated_Source\PSoC5/CapSense_CSD.c ****         
1427:.\Generated_Source\PSoC5/CapSense_CSD.c ****     #if (CapSense_CSD_DESIGN_TYPE == CapSense_CSD_ONE_CHANNEL_DESIGN)
1428:.\Generated_Source\PSoC5/CapSense_CSD.c ****         #if (CapSense_CSD_CURRENT_SOURCE == CapSense_CSD_IDAC_SOURCE)
1429:.\Generated_Source\PSoC5/CapSense_CSD.c ****             /* Disable Vref from AMux */
1430:.\Generated_Source\PSoC5/CapSense_CSD.c ****             #if (CapSense_CSD_VREF_VDAC == CapSense_CSD_VREF_OPTIONS)
1431:.\Generated_Source\PSoC5/CapSense_CSD.c ****                 CapSense_CSD_AMuxCH0_Disconnect(CapSense_CSD_AMuxCH0_VREF_CHANNEL);
1432:.\Generated_Source\PSoC5/CapSense_CSD.c ****             #else
1433:.\Generated_Source\PSoC5/CapSense_CSD.c ****                 CapSense_CSD_BufCH0_CAPS_CFG0_REG &= ~CapSense_CSD_CSBUF_ENABLE;
 1073              		.loc 1 1433 0
ARM GAS  C:\Users\mark6\AppData\Local\Temp\ccG3DDgg.s 			page 45


 1074 0022 0C4A     		ldr	r2, .L51+4
 1075 0024 0B4B     		ldr	r3, .L51+4
 1076 0026 1B78     		ldrb	r3, [r3]
 1077 0028 DBB2     		uxtb	r3, r3
 1078 002a 23F00103 		bic	r3, r3, #1
 1079 002e DBB2     		uxtb	r3, r3
 1080 0030 1370     		strb	r3, [r2]
1434:.\Generated_Source\PSoC5/CapSense_CSD.c ****             #endif  /* (CapSense_CSD_VREF_VDAC != CapSense_CSD_VREF_OPTIONS) */
1435:.\Generated_Source\PSoC5/CapSense_CSD.c **** 
1436:.\Generated_Source\PSoC5/CapSense_CSD.c ****             /* Enable Sensor */
1437:.\Generated_Source\PSoC5/CapSense_CSD.c ****             CapSense_CSD_EnableScanSlot(sensor);
 1081              		.loc 1 1437 0
 1082 0032 FB79     		ldrb	r3, [r7, #7]	@ zero_extendqisi2
 1083 0034 1846     		mov	r0, r3
 1084 0036 FFF7FEFF 		bl	CapSense_CSD_EnableSensor
1438:.\Generated_Source\PSoC5/CapSense_CSD.c ****             
1439:.\Generated_Source\PSoC5/CapSense_CSD.c ****         #elif (CapSense_CSD_CURRENT_SOURCE == CapSense_CSD_IDAC_SINK)
1440:.\Generated_Source\PSoC5/CapSense_CSD.c ****             /* Connect IDAC */
1441:.\Generated_Source\PSoC5/CapSense_CSD.c ****             CapSense_CSD_AMuxCH0_Connect(CapSense_CSD_AMuxCH0_IDAC_CHANNEL);
1442:.\Generated_Source\PSoC5/CapSense_CSD.c ****             
1443:.\Generated_Source\PSoC5/CapSense_CSD.c ****             /* Enable Sensor */
1444:.\Generated_Source\PSoC5/CapSense_CSD.c ****             CapSense_CSD_EnableScanSlot(sensor);
1445:.\Generated_Source\PSoC5/CapSense_CSD.c ****                 
1446:.\Generated_Source\PSoC5/CapSense_CSD.c ****             /* Disable CapSense Buffer */
1447:.\Generated_Source\PSoC5/CapSense_CSD.c ****             CapSense_CSD_BufCH0_CAPS_CFG0_REG &= (uint8)~CapSense_CSD_CSBUF_ENABLE;
1448:.\Generated_Source\PSoC5/CapSense_CSD.c ****             
1449:.\Generated_Source\PSoC5/CapSense_CSD.c ****         #else
1450:.\Generated_Source\PSoC5/CapSense_CSD.c ****             /* Connect DSI output to Rb */
1451:.\Generated_Source\PSoC5/CapSense_CSD.c ****             *CapSense_CSD_rbTable[CapSense_CSD_extRbCh0Cur] |= CapSense_CSD_BYP_MASK;
1452:.\Generated_Source\PSoC5/CapSense_CSD.c ****             
1453:.\Generated_Source\PSoC5/CapSense_CSD.c ****             /* Enable Sensor */
1454:.\Generated_Source\PSoC5/CapSense_CSD.c ****             CapSense_CSD_EnableScanSlot(sensor);
1455:.\Generated_Source\PSoC5/CapSense_CSD.c ****              
1456:.\Generated_Source\PSoC5/CapSense_CSD.c ****             /* Disable CapSense Buffer */
1457:.\Generated_Source\PSoC5/CapSense_CSD.c ****             CapSense_CSD_BufCH0_CAPS_CFG0_REG &= ~CapSense_CSD_CSBUF_ENABLE;
1458:.\Generated_Source\PSoC5/CapSense_CSD.c ****         
1459:.\Generated_Source\PSoC5/CapSense_CSD.c ****         #endif  /* (CapSense_CSD_CURRENT_SOURCE == CapSense_CSD_IDAC_SOURCE) */
1460:.\Generated_Source\PSoC5/CapSense_CSD.c ****         
1461:.\Generated_Source\PSoC5/CapSense_CSD.c ****     #else
1462:.\Generated_Source\PSoC5/CapSense_CSD.c **** 
1463:.\Generated_Source\PSoC5/CapSense_CSD.c ****         if((CapSense_CSD_CONTROL_REG & CapSense_CSD_CTRL_WINDOW_EN__CH0) != 0u)
1464:.\Generated_Source\PSoC5/CapSense_CSD.c ****         {
1465:.\Generated_Source\PSoC5/CapSense_CSD.c ****             #if (CapSense_CSD_CURRENT_SOURCE == CapSense_CSD_IDAC_SOURCE)
1466:.\Generated_Source\PSoC5/CapSense_CSD.c ****                 /* Disable Vref from AMux */
1467:.\Generated_Source\PSoC5/CapSense_CSD.c ****                 #if (CapSense_CSD_VREF_VDAC == CapSense_CSD_VREF_OPTIONS)
1468:.\Generated_Source\PSoC5/CapSense_CSD.c ****                     CapSense_CSD_AMuxCH0_Disconnect(CapSense_CSD_AMuxCH0_VREF_CHANNEL);
1469:.\Generated_Source\PSoC5/CapSense_CSD.c ****                 #else
1470:.\Generated_Source\PSoC5/CapSense_CSD.c ****                     CapSense_CSD_BufCH0_CAPS_CFG0_REG &= ~CapSense_CSD_CSBUF_ENABLE;
1471:.\Generated_Source\PSoC5/CapSense_CSD.c ****                 #endif  /* (CapSense_CSD_VREF_VDAC != CapSense_CSD_VREF_OPTIONS) */
1472:.\Generated_Source\PSoC5/CapSense_CSD.c ****                 
1473:.\Generated_Source\PSoC5/CapSense_CSD.c ****                 /* Enable Sensor */
1474:.\Generated_Source\PSoC5/CapSense_CSD.c ****                 CapSense_CSD_EnableScanSlot(sensor);
1475:.\Generated_Source\PSoC5/CapSense_CSD.c ****                 
1476:.\Generated_Source\PSoC5/CapSense_CSD.c ****             #elif (CapSense_CSD_CURRENT_SOURCE == CapSense_CSD_IDAC_SINK)
1477:.\Generated_Source\PSoC5/CapSense_CSD.c ****                 /* Connect IDAC */
1478:.\Generated_Source\PSoC5/CapSense_CSD.c ****                 CapSense_CSD_AMuxCH0_Connect(CapSense_CSD_AMuxCH0_IDAC_CHANNEL);
1479:.\Generated_Source\PSoC5/CapSense_CSD.c ****                 
ARM GAS  C:\Users\mark6\AppData\Local\Temp\ccG3DDgg.s 			page 46


1480:.\Generated_Source\PSoC5/CapSense_CSD.c ****                 /* Enable Sensor */
1481:.\Generated_Source\PSoC5/CapSense_CSD.c ****                 CapSense_CSD_EnableScanSlot(sensor);
1482:.\Generated_Source\PSoC5/CapSense_CSD.c ****                     
1483:.\Generated_Source\PSoC5/CapSense_CSD.c ****                 /* Disable Vref from AMux */
1484:.\Generated_Source\PSoC5/CapSense_CSD.c ****                 CapSense_CSD_BufCH0_CAPS_CFG0_REG &= ~CapSense_CSD_CSBUF_ENABLE;
1485:.\Generated_Source\PSoC5/CapSense_CSD.c ****                 
1486:.\Generated_Source\PSoC5/CapSense_CSD.c ****             #else
1487:.\Generated_Source\PSoC5/CapSense_CSD.c ****                 /* Connect DSI output to Rb */
1488:.\Generated_Source\PSoC5/CapSense_CSD.c ****                 *CapSense_CSD_rbTable[CapSense_CSD_extRbCh0Cur] |= CapSense_CSD_BYP_MASK;
1489:.\Generated_Source\PSoC5/CapSense_CSD.c ****                 
1490:.\Generated_Source\PSoC5/CapSense_CSD.c ****                 /* Enable Sensor */
1491:.\Generated_Source\PSoC5/CapSense_CSD.c ****                 CapSense_CSD_EnableScanSlot(sensor);
1492:.\Generated_Source\PSoC5/CapSense_CSD.c ****                     
1493:.\Generated_Source\PSoC5/CapSense_CSD.c ****                 /* Disable Vref from AMux */
1494:.\Generated_Source\PSoC5/CapSense_CSD.c ****                 CapSense_CSD_BufCH0_CAPS_CFG0_REG &= ~CapSense_CSD_CSBUF_ENABLE;
1495:.\Generated_Source\PSoC5/CapSense_CSD.c ****             
1496:.\Generated_Source\PSoC5/CapSense_CSD.c ****             #endif  /* (CapSense_CSD_CURRENT_SOURCE == CapSense_CSD_IDAC_SOURCE) */
1497:.\Generated_Source\PSoC5/CapSense_CSD.c ****             
1498:.\Generated_Source\PSoC5/CapSense_CSD.c ****         }
1499:.\Generated_Source\PSoC5/CapSense_CSD.c ****         
1500:.\Generated_Source\PSoC5/CapSense_CSD.c ****         if((CapSense_CSD_CONTROL_REG & CapSense_CSD_CTRL_WINDOW_EN__CH1) != 0u)
1501:.\Generated_Source\PSoC5/CapSense_CSD.c ****         {
1502:.\Generated_Source\PSoC5/CapSense_CSD.c ****             sensor += CapSense_CSD_TOTAL_SENSOR_COUNT__CH0;
1503:.\Generated_Source\PSoC5/CapSense_CSD.c ****             
1504:.\Generated_Source\PSoC5/CapSense_CSD.c ****             #if (CapSense_CSD_CURRENT_SOURCE == CapSense_CSD_IDAC_SOURCE)
1505:.\Generated_Source\PSoC5/CapSense_CSD.c ****                 /* Disable Vref from AMux */
1506:.\Generated_Source\PSoC5/CapSense_CSD.c ****                 #if (CapSense_CSD_VREF_VDAC == CapSense_CSD_VREF_OPTIONS)
1507:.\Generated_Source\PSoC5/CapSense_CSD.c ****                    CapSense_CSD_AMuxCH1_Disconnect(CapSense_CSD_AMuxCH1_VREF_CHANNEL);
1508:.\Generated_Source\PSoC5/CapSense_CSD.c ****                 #else 
1509:.\Generated_Source\PSoC5/CapSense_CSD.c ****                     CapSense_CSD_BufCH1_CAPS_CFG0_REG &= ~CapSense_CSD_CSBUF_ENABLE;
1510:.\Generated_Source\PSoC5/CapSense_CSD.c ****                 #endif  /* (CapSense_CSD_VREF_VDAC == CapSense_CSD_VREF_OPTIONS) */
1511:.\Generated_Source\PSoC5/CapSense_CSD.c ****                 
1512:.\Generated_Source\PSoC5/CapSense_CSD.c ****                 /* Enable Sensor */
1513:.\Generated_Source\PSoC5/CapSense_CSD.c ****                 CapSense_CSD_EnableScanSlot(sensor);
1514:.\Generated_Source\PSoC5/CapSense_CSD.c ****                 
1515:.\Generated_Source\PSoC5/CapSense_CSD.c ****             #elif (CapSense_CSD_CURRENT_SOURCE == CapSense_CSD_IDAC_SINK)
1516:.\Generated_Source\PSoC5/CapSense_CSD.c ****                 /* Connect IDAC */
1517:.\Generated_Source\PSoC5/CapSense_CSD.c ****                 CapSense_CSD_AMuxCH1_Connect(CapSense_CSD_AMuxCH1_IDAC_CHANNEL);
1518:.\Generated_Source\PSoC5/CapSense_CSD.c ****                 
1519:.\Generated_Source\PSoC5/CapSense_CSD.c ****                 /* Enable Sensor */
1520:.\Generated_Source\PSoC5/CapSense_CSD.c ****                 CapSense_CSD_EnableScanSlot(sensor);
1521:.\Generated_Source\PSoC5/CapSense_CSD.c ****                     
1522:.\Generated_Source\PSoC5/CapSense_CSD.c ****                 /* Disable Vref from AMux */
1523:.\Generated_Source\PSoC5/CapSense_CSD.c ****                 CapSense_CSD_BufCH1_CAPS_CFG0_REG &= ~CapSense_CSD_CSBUF_ENABLE;
1524:.\Generated_Source\PSoC5/CapSense_CSD.c ****                 
1525:.\Generated_Source\PSoC5/CapSense_CSD.c ****             #else
1526:.\Generated_Source\PSoC5/CapSense_CSD.c ****                 /* Connect DSI output to Rb */
1527:.\Generated_Source\PSoC5/CapSense_CSD.c ****                 *CapSense_CSD_rbTable[CapSense_CSD_extRbCh1Cur] |= CapSense_CSD_BYP_MASK;
1528:.\Generated_Source\PSoC5/CapSense_CSD.c ****                 
1529:.\Generated_Source\PSoC5/CapSense_CSD.c ****                 /* Enable Sensor */
1530:.\Generated_Source\PSoC5/CapSense_CSD.c ****                 CapSense_CSD_EnableScanSlot(sensor);
1531:.\Generated_Source\PSoC5/CapSense_CSD.c ****                 
1532:.\Generated_Source\PSoC5/CapSense_CSD.c ****                 /* Disable Vref from AMux */
1533:.\Generated_Source\PSoC5/CapSense_CSD.c ****                 CapSense_CSD_BufCH1_CAPS_CFG0_REG &= ~CapSense_CSD_CSBUF_ENABLE;
1534:.\Generated_Source\PSoC5/CapSense_CSD.c ****             
1535:.\Generated_Source\PSoC5/CapSense_CSD.c ****             #endif  /* (CapSense_CSD_CURRENT_SOURCE == CapSense_CSD_IDAC_SOURCE) */
1536:.\Generated_Source\PSoC5/CapSense_CSD.c ****         }
ARM GAS  C:\Users\mark6\AppData\Local\Temp\ccG3DDgg.s 			page 47


1537:.\Generated_Source\PSoC5/CapSense_CSD.c ****     
1538:.\Generated_Source\PSoC5/CapSense_CSD.c ****     #endif  /* (CapSense_CSD_DESIGN_TYPE == CapSense_CSD_ONE_CHANNEL_DESIGN) */
1539:.\Generated_Source\PSoC5/CapSense_CSD.c ****     
1540:.\Generated_Source\PSoC5/CapSense_CSD.c ****     /* Start measurament, pre-charge clocks are running and PRS as well */
1541:.\Generated_Source\PSoC5/CapSense_CSD.c ****     CapSense_CSD_CONTROL_REG |= CapSense_CSD_CTRL_START;
 1085              		.loc 1 1541 0
 1086 003a 054A     		ldr	r2, .L51
 1087 003c 044B     		ldr	r3, .L51
 1088 003e 1B78     		ldrb	r3, [r3]
 1089 0040 DBB2     		uxtb	r3, r3
 1090 0042 43F00203 		orr	r3, r3, #2
 1091 0046 DBB2     		uxtb	r3, r3
 1092 0048 1370     		strb	r3, [r2]
1542:.\Generated_Source\PSoC5/CapSense_CSD.c ****     
1543:.\Generated_Source\PSoC5/CapSense_CSD.c ****     /* Place enable interrupts here to eliminate influence on start of scanning */
1544:.\Generated_Source\PSoC5/CapSense_CSD.c ****     /* `#START CapSense_CSD_PreScan_EnableInt` */
1545:.\Generated_Source\PSoC5/CapSense_CSD.c **** 
1546:.\Generated_Source\PSoC5/CapSense_CSD.c ****     /* `#END` */
1547:.\Generated_Source\PSoC5/CapSense_CSD.c **** 
1548:.\Generated_Source\PSoC5/CapSense_CSD.c ****     #ifdef CapSense_CSD_PRE_SCAN_ENABLE_INT_CALLBACK
1549:.\Generated_Source\PSoC5/CapSense_CSD.c ****         CapSense_CSD_PreScan_EnableInt_Callback();
1550:.\Generated_Source\PSoC5/CapSense_CSD.c ****     #endif /* CapSense_CSD_PRE_SCAN_ENABLE_INT_CALLBACK */
1551:.\Generated_Source\PSoC5/CapSense_CSD.c **** }
 1093              		.loc 1 1551 0
 1094 004a 0837     		adds	r7, r7, #8
 1095              		.cfi_def_cfa_offset 8
 1096 004c BD46     		mov	sp, r7
 1097              		.cfi_def_cfa_register 13
 1098              		@ sp needed
 1099 004e 80BD     		pop	{r7, pc}
 1100              	.L52:
 1101              		.align	2
 1102              	.L51:
 1103 0050 7D640040 		.word	1073767549
 1104 0054 70580040 		.word	1073764464
 1105              		.cfi_endproc
 1106              	.LFE13:
 1107              		.size	CapSense_CSD_PreScan, .-CapSense_CSD_PreScan
 1108              		.section	.text.CapSense_CSD_PostScan,"ax",%progbits
 1109              		.align	2
 1110              		.global	CapSense_CSD_PostScan
 1111              		.thumb
 1112              		.thumb_func
 1113              		.type	CapSense_CSD_PostScan, %function
 1114              	CapSense_CSD_PostScan:
 1115              	.LFB14:
1552:.\Generated_Source\PSoC5/CapSense_CSD.c **** 
1553:.\Generated_Source\PSoC5/CapSense_CSD.c **** 
1554:.\Generated_Source\PSoC5/CapSense_CSD.c **** #if (CapSense_CSD_DESIGN_TYPE == CapSense_CSD_ONE_CHANNEL_DESIGN)
1555:.\Generated_Source\PSoC5/CapSense_CSD.c ****     /*******************************************************************************
1556:.\Generated_Source\PSoC5/CapSense_CSD.c ****     * Function Name: CapSense_CSD_PostScan
1557:.\Generated_Source\PSoC5/CapSense_CSD.c ****     ********************************************************************************
1558:.\Generated_Source\PSoC5/CapSense_CSD.c ****     *
1559:.\Generated_Source\PSoC5/CapSense_CSD.c ****     * Summary:
1560:.\Generated_Source\PSoC5/CapSense_CSD.c ****     *  Store results of measurament in CapSense_CSD_SensorResult[] array,
1561:.\Generated_Source\PSoC5/CapSense_CSD.c ****     *  sets scan sensor in none sampling state, turn off Idac(Current Source IDAC),
1562:.\Generated_Source\PSoC5/CapSense_CSD.c ****     *  disconnect IDAC(Sink mode) or bleed resistor (Rb) and apply Vref on AMUX.
ARM GAS  C:\Users\mark6\AppData\Local\Temp\ccG3DDgg.s 			page 48


1563:.\Generated_Source\PSoC5/CapSense_CSD.c ****     *  Only one channel designs.
1564:.\Generated_Source\PSoC5/CapSense_CSD.c ****     *
1565:.\Generated_Source\PSoC5/CapSense_CSD.c ****     * Parameters:
1566:.\Generated_Source\PSoC5/CapSense_CSD.c ****     *  sensor:  Sensor number.
1567:.\Generated_Source\PSoC5/CapSense_CSD.c ****     *
1568:.\Generated_Source\PSoC5/CapSense_CSD.c ****     * Return:
1569:.\Generated_Source\PSoC5/CapSense_CSD.c ****     *  None
1570:.\Generated_Source\PSoC5/CapSense_CSD.c ****     *
1571:.\Generated_Source\PSoC5/CapSense_CSD.c ****     * Global Variables:
1572:.\Generated_Source\PSoC5/CapSense_CSD.c ****     *  CapSense_CSD_sensorRaw[] - used to store sensors raw data.
1573:.\Generated_Source\PSoC5/CapSense_CSD.c ****     *
1574:.\Generated_Source\PSoC5/CapSense_CSD.c ****     * Reentrant:
1575:.\Generated_Source\PSoC5/CapSense_CSD.c ****     *  No
1576:.\Generated_Source\PSoC5/CapSense_CSD.c ****     *
1577:.\Generated_Source\PSoC5/CapSense_CSD.c ****     *******************************************************************************/
1578:.\Generated_Source\PSoC5/CapSense_CSD.c ****     void CapSense_CSD_PostScan(uint8 sensor) CYREENTRANT
1579:.\Generated_Source\PSoC5/CapSense_CSD.c ****     {
 1116              		.loc 1 1579 0
 1117              		.cfi_startproc
 1118              		@ args = 0, pretend = 0, frame = 8
 1119              		@ frame_needed = 1, uses_anonymous_args = 0
 1120 0000 80B5     		push	{r7, lr}
 1121              		.cfi_def_cfa_offset 8
 1122              		.cfi_offset 7, -8
 1123              		.cfi_offset 14, -4
 1124 0002 82B0     		sub	sp, sp, #8
 1125              		.cfi_def_cfa_offset 16
 1126 0004 00AF     		add	r7, sp, #0
 1127              		.cfi_def_cfa_register 7
 1128 0006 0346     		mov	r3, r0
 1129 0008 FB71     		strb	r3, [r7, #7]
1580:.\Generated_Source\PSoC5/CapSense_CSD.c ****         /* Stop Capsensing and rearm sync */
1581:.\Generated_Source\PSoC5/CapSense_CSD.c ****         CapSense_CSD_CONTROL_REG &= (uint8)~(CapSense_CSD_CTRL_START | CapSense_CSD_CTRL_SYNC_EN);
 1130              		.loc 1 1581 0
 1131 000a 1E4A     		ldr	r2, .L54
 1132 000c 1D4B     		ldr	r3, .L54
 1133 000e 1B78     		ldrb	r3, [r3]
 1134 0010 DBB2     		uxtb	r3, r3
 1135 0012 23F00303 		bic	r3, r3, #3
 1136 0016 DBB2     		uxtb	r3, r3
 1137 0018 1370     		strb	r3, [r2]
1582:.\Generated_Source\PSoC5/CapSense_CSD.c ****         
1583:.\Generated_Source\PSoC5/CapSense_CSD.c ****         /* Read SlotResult from Raw Counter */
1584:.\Generated_Source\PSoC5/CapSense_CSD.c ****         #if (CapSense_CSD_IMPLEMENTATION_CH0 == CapSense_CSD_MEASURE_IMPLEMENTATION_FF)
1585:.\Generated_Source\PSoC5/CapSense_CSD.c ****             CapSense_CSD_sensorRaw[sensor]  = CapSense_CSD_MEASURE_FULL_RANGE - 
1586:.\Generated_Source\PSoC5/CapSense_CSD.c ****                                                       CY_GET_REG16(CapSense_CSD_RAW_CH0_COUNTER_PTR
1587:.\Generated_Source\PSoC5/CapSense_CSD.c ****         #else
1588:.\Generated_Source\PSoC5/CapSense_CSD.c ****             CapSense_CSD_sensorRaw[sensor]  = ((uint16) CapSense_CSD_RAW_CH0_COUNTER_HI_REG << 8u);
 1138              		.loc 1 1588 0
 1139 001a FB79     		ldrb	r3, [r7, #7]	@ zero_extendqisi2
 1140 001c 1A4A     		ldr	r2, .L54+4
 1141 001e 1278     		ldrb	r2, [r2]
 1142 0020 D2B2     		uxtb	r2, r2
 1143 0022 92B2     		uxth	r2, r2
 1144 0024 1202     		lsls	r2, r2, #8
 1145 0026 91B2     		uxth	r1, r2
 1146 0028 184A     		ldr	r2, .L54+8
ARM GAS  C:\Users\mark6\AppData\Local\Temp\ccG3DDgg.s 			page 49


 1147 002a 22F81310 		strh	r1, [r2, r3, lsl #1]	@ movhi
1589:.\Generated_Source\PSoC5/CapSense_CSD.c ****             CapSense_CSD_sensorRaw[sensor] |= (uint16) CapSense_CSD_RAW_CH0_COUNTER_LO_REG;
 1148              		.loc 1 1589 0
 1149 002e 184B     		ldr	r3, .L54+12
 1150 0030 1B78     		ldrb	r3, [r3]
 1151 0032 DBB2     		uxtb	r3, r3
 1152 0034 9AB2     		uxth	r2, r3
 1153 0036 FB79     		ldrb	r3, [r7, #7]	@ zero_extendqisi2
 1154 0038 F979     		ldrb	r1, [r7, #7]	@ zero_extendqisi2
 1155 003a 1448     		ldr	r0, .L54+8
 1156 003c 30F81110 		ldrh	r1, [r0, r1, lsl #1]
 1157 0040 0A43     		orrs	r2, r2, r1
 1158 0042 91B2     		uxth	r1, r2
 1159 0044 114A     		ldr	r2, .L54+8
 1160 0046 22F81310 		strh	r1, [r2, r3, lsl #1]	@ movhi
1590:.\Generated_Source\PSoC5/CapSense_CSD.c ****             CapSense_CSD_sensorRaw[sensor]  = CapSense_CSD_MEASURE_FULL_RANGE -
 1161              		.loc 1 1590 0
 1162 004a FB79     		ldrb	r3, [r7, #7]	@ zero_extendqisi2
1591:.\Generated_Source\PSoC5/CapSense_CSD.c ****                                                       CapSense_CSD_sensorRaw[sensor];
 1163              		.loc 1 1591 0
 1164 004c FA79     		ldrb	r2, [r7, #7]	@ zero_extendqisi2
 1165 004e 0F49     		ldr	r1, .L54+8
 1166 0050 31F81220 		ldrh	r2, [r1, r2, lsl #1]
1590:.\Generated_Source\PSoC5/CapSense_CSD.c ****             CapSense_CSD_sensorRaw[sensor]  = CapSense_CSD_MEASURE_FULL_RANGE -
 1167              		.loc 1 1590 0
 1168 0054 D243     		mvns	r2, r2
 1169 0056 91B2     		uxth	r1, r2
 1170 0058 0C4A     		ldr	r2, .L54+8
 1171 005a 22F81310 		strh	r1, [r2, r3, lsl #1]	@ movhi
1592:.\Generated_Source\PSoC5/CapSense_CSD.c ****         #endif  /* (CapSense_CSD_IMPLEMENTATION == CapSense_CSD_MEASURE_IMPLEMENTATION_FF) */
1593:.\Generated_Source\PSoC5/CapSense_CSD.c ****         
1594:.\Generated_Source\PSoC5/CapSense_CSD.c ****         /* Disable Sensor */
1595:.\Generated_Source\PSoC5/CapSense_CSD.c ****         CapSense_CSD_DisableScanSlot(sensor);
 1172              		.loc 1 1595 0
 1173 005e FB79     		ldrb	r3, [r7, #7]	@ zero_extendqisi2
 1174 0060 1846     		mov	r0, r3
 1175 0062 FFF7FEFF 		bl	CapSense_CSD_DisableSensor
1596:.\Generated_Source\PSoC5/CapSense_CSD.c ****         
1597:.\Generated_Source\PSoC5/CapSense_CSD.c ****         #if(CapSense_CSD_CURRENT_SOURCE)
1598:.\Generated_Source\PSoC5/CapSense_CSD.c ****             /* Turn off IDAC */
1599:.\Generated_Source\PSoC5/CapSense_CSD.c ****             CapSense_CSD_IdacCH0_SetValue(CapSense_CSD_TURN_OFF_IDAC);
 1176              		.loc 1 1599 0
 1177 0066 0020     		movs	r0, #0
 1178 0068 FFF7FEFF 		bl	CapSense_CSD_IdacCH0_SetValue
1600:.\Generated_Source\PSoC5/CapSense_CSD.c ****             #if (CapSense_CSD_CURRENT_SOURCE == CapSense_CSD_IDAC_SINK)
1601:.\Generated_Source\PSoC5/CapSense_CSD.c ****                 /* Disconnect IDAC */
1602:.\Generated_Source\PSoC5/CapSense_CSD.c ****                 CapSense_CSD_AMuxCH0_Disconnect(CapSense_CSD_AMuxCH0_IDAC_CHANNEL);
1603:.\Generated_Source\PSoC5/CapSense_CSD.c ****             #endif  /* (CapSense_CSD_CURRENT_SOURCE == CapSense_CSD_IDAC_SINK) */
1604:.\Generated_Source\PSoC5/CapSense_CSD.c ****         #else
1605:.\Generated_Source\PSoC5/CapSense_CSD.c ****             /* Disconnect DSI output from Rb */
1606:.\Generated_Source\PSoC5/CapSense_CSD.c ****             *CapSense_CSD_rbTable[CapSense_CSD_extRbCh0Cur] &= ~CapSense_CSD_BYP_MASK; 
1607:.\Generated_Source\PSoC5/CapSense_CSD.c ****         #endif  /* (CapSense_CSD_CURRENT_SOURCE)*/
1608:.\Generated_Source\PSoC5/CapSense_CSD.c ****             
1609:.\Generated_Source\PSoC5/CapSense_CSD.c ****         /* Enable Vref on AMUX */
1610:.\Generated_Source\PSoC5/CapSense_CSD.c ****         #if (CapSense_CSD_VREF_OPTIONS == CapSense_CSD_VREF_VDAC)
1611:.\Generated_Source\PSoC5/CapSense_CSD.c ****             CapSense_CSD_AMuxCH0_Connect(CapSense_CSD_AMuxCH0_VREF_CHANNEL);
1612:.\Generated_Source\PSoC5/CapSense_CSD.c ****         #else
ARM GAS  C:\Users\mark6\AppData\Local\Temp\ccG3DDgg.s 			page 50


1613:.\Generated_Source\PSoC5/CapSense_CSD.c ****             CapSense_CSD_BufCH0_CAPS_CFG0_REG |= CapSense_CSD_CSBUF_ENABLE;
 1179              		.loc 1 1613 0
 1180 006c 094A     		ldr	r2, .L54+16
 1181 006e 094B     		ldr	r3, .L54+16
 1182 0070 1B78     		ldrb	r3, [r3]
 1183 0072 DBB2     		uxtb	r3, r3
 1184 0074 43F00103 		orr	r3, r3, #1
 1185 0078 DBB2     		uxtb	r3, r3
 1186 007a 1370     		strb	r3, [r2]
1614:.\Generated_Source\PSoC5/CapSense_CSD.c ****         #endif  /* (CapSense_CSD_VREF_VDAC == CapSense_CSD_VREF_OPTIONS) */
1615:.\Generated_Source\PSoC5/CapSense_CSD.c ****     }
 1187              		.loc 1 1615 0
 1188 007c 0837     		adds	r7, r7, #8
 1189              		.cfi_def_cfa_offset 8
 1190 007e BD46     		mov	sp, r7
 1191              		.cfi_def_cfa_register 13
 1192              		@ sp needed
 1193 0080 80BD     		pop	{r7, pc}
 1194              	.L55:
 1195 0082 00BF     		.align	2
 1196              	.L54:
 1197 0084 7D640040 		.word	1073767549
 1198 0088 1A640040 		.word	1073767450
 1199 008c 00000000 		.word	CapSense_CSD_sensorRaw
 1200 0090 0A640040 		.word	1073767434
 1201 0094 70580040 		.word	1073764464
 1202              		.cfi_endproc
 1203              	.LFE14:
 1204              		.size	CapSense_CSD_PostScan, .-CapSense_CSD_PostScan
 1205              		.section	.text.CapSense_CSD_SetPrescaler,"ax",%progbits
 1206              		.align	2
 1207              		.global	CapSense_CSD_SetPrescaler
 1208              		.thumb
 1209              		.thumb_func
 1210              		.type	CapSense_CSD_SetPrescaler, %function
 1211              	CapSense_CSD_SetPrescaler:
 1212              	.LFB15:
1616:.\Generated_Source\PSoC5/CapSense_CSD.c ****     
1617:.\Generated_Source\PSoC5/CapSense_CSD.c **** #else
1618:.\Generated_Source\PSoC5/CapSense_CSD.c **** 
1619:.\Generated_Source\PSoC5/CapSense_CSD.c ****     /*******************************************************************************
1620:.\Generated_Source\PSoC5/CapSense_CSD.c ****     * Function Name: CapSense_CSD_PostScan
1621:.\Generated_Source\PSoC5/CapSense_CSD.c ****     ********************************************************************************
1622:.\Generated_Source\PSoC5/CapSense_CSD.c ****     *
1623:.\Generated_Source\PSoC5/CapSense_CSD.c ****     * Summary:
1624:.\Generated_Source\PSoC5/CapSense_CSD.c ****     *  Store results of measurament in CapSense_CSD_SensorResult[] array,
1625:.\Generated_Source\PSoC5/CapSense_CSD.c ****     *  sets scan sensor in none sampling state, turn off Idac(Current Source IDAC),
1626:.\Generated_Source\PSoC5/CapSense_CSD.c ****     *  disconnect IDAC(Sink mode) or bleed resistor (Rb) and apply Vref on AMUX.
1627:.\Generated_Source\PSoC5/CapSense_CSD.c ****     *  Only used for channel 0 in two channes designs.
1628:.\Generated_Source\PSoC5/CapSense_CSD.c ****     *
1629:.\Generated_Source\PSoC5/CapSense_CSD.c ****     * Parameters:
1630:.\Generated_Source\PSoC5/CapSense_CSD.c ****     *  sensor:  Sensor number.
1631:.\Generated_Source\PSoC5/CapSense_CSD.c ****     *
1632:.\Generated_Source\PSoC5/CapSense_CSD.c ****     * Return:
1633:.\Generated_Source\PSoC5/CapSense_CSD.c ****     *  None
1634:.\Generated_Source\PSoC5/CapSense_CSD.c ****     *
1635:.\Generated_Source\PSoC5/CapSense_CSD.c ****     * Global Variables:
ARM GAS  C:\Users\mark6\AppData\Local\Temp\ccG3DDgg.s 			page 51


1636:.\Generated_Source\PSoC5/CapSense_CSD.c ****     *  CapSense_CSD_sensorRaw[] - used to store sensors raw data.
1637:.\Generated_Source\PSoC5/CapSense_CSD.c ****     *
1638:.\Generated_Source\PSoC5/CapSense_CSD.c ****     * Reentrant:
1639:.\Generated_Source\PSoC5/CapSense_CSD.c ****     *  No
1640:.\Generated_Source\PSoC5/CapSense_CSD.c ****     *
1641:.\Generated_Source\PSoC5/CapSense_CSD.c ****     *******************************************************************************/
1642:.\Generated_Source\PSoC5/CapSense_CSD.c ****     void CapSense_CSD_PostScanCh0(uint8 sensor) CYREENTRANT
1643:.\Generated_Source\PSoC5/CapSense_CSD.c ****     {
1644:.\Generated_Source\PSoC5/CapSense_CSD.c ****         if (((CapSense_CSD_CONTROL_REG & CapSense_CSD_CTRL_WINDOW_EN__CH0) == 0u) && 
1645:.\Generated_Source\PSoC5/CapSense_CSD.c ****             ((CapSense_CSD_CONTROL_REG & CapSense_CSD_CTRL_WINDOW_EN__CH1) == 0u)) 
1646:.\Generated_Source\PSoC5/CapSense_CSD.c ****         {
1647:.\Generated_Source\PSoC5/CapSense_CSD.c ****             /* Stop Capsensing and rearm sync */
1648:.\Generated_Source\PSoC5/CapSense_CSD.c ****             CapSense_CSD_CONTROL_REG &= ~(CapSense_CSD_CTRL_START | CapSense_CSD_CTRL_SYNC_EN);
1649:.\Generated_Source\PSoC5/CapSense_CSD.c ****         }
1650:.\Generated_Source\PSoC5/CapSense_CSD.c ****         
1651:.\Generated_Source\PSoC5/CapSense_CSD.c ****         /* Read SlotResult from Raw Counter */
1652:.\Generated_Source\PSoC5/CapSense_CSD.c ****         #if (CapSense_CSD_IMPLEMENTATION_CH0 == CapSense_CSD_MEASURE_IMPLEMENTATION_FF)
1653:.\Generated_Source\PSoC5/CapSense_CSD.c ****             CapSense_CSD_sensorRaw[sensor]  = CapSense_CSD_MEASURE_FULL_RANGE - 
1654:.\Generated_Source\PSoC5/CapSense_CSD.c ****                                                       CY_GET_REG16(CapSense_CSD_RAW_CH0_COUNTER_PTR
1655:.\Generated_Source\PSoC5/CapSense_CSD.c ****         #else
1656:.\Generated_Source\PSoC5/CapSense_CSD.c ****             CapSense_CSD_sensorRaw[sensor]  = ((uint16) CapSense_CSD_RAW_CH0_COUNTER_HI_REG << 8u);
1657:.\Generated_Source\PSoC5/CapSense_CSD.c ****             CapSense_CSD_sensorRaw[sensor] |= (uint16) CapSense_CSD_RAW_CH0_COUNTER_LO_REG;
1658:.\Generated_Source\PSoC5/CapSense_CSD.c ****             CapSense_CSD_sensorRaw[sensor]  = CapSense_CSD_MEASURE_FULL_RANGE - 
1659:.\Generated_Source\PSoC5/CapSense_CSD.c ****                                                       CapSense_CSD_sensorRaw[sensor];
1660:.\Generated_Source\PSoC5/CapSense_CSD.c ****         #endif  /* (CapSense_CSD_IMPLEMENTATION_CH0 == CapSense_CSD_MEASURE_IMPLEMENTATION_FF)*/
1661:.\Generated_Source\PSoC5/CapSense_CSD.c ****         
1662:.\Generated_Source\PSoC5/CapSense_CSD.c ****         /* Disable Sensor */
1663:.\Generated_Source\PSoC5/CapSense_CSD.c ****         CapSense_CSD_DisableScanSlot(sensor);
1664:.\Generated_Source\PSoC5/CapSense_CSD.c ****         
1665:.\Generated_Source\PSoC5/CapSense_CSD.c ****         #if (CapSense_CSD_CURRENT_SOURCE)
1666:.\Generated_Source\PSoC5/CapSense_CSD.c ****             /* Turn off IDAC */
1667:.\Generated_Source\PSoC5/CapSense_CSD.c ****             CapSense_CSD_IdacCH0_SetValue(CapSense_CSD_TURN_OFF_IDAC);
1668:.\Generated_Source\PSoC5/CapSense_CSD.c ****             #if (CapSense_CSD_CURRENT_SOURCE == CapSense_CSD_IDAC_SINK)
1669:.\Generated_Source\PSoC5/CapSense_CSD.c ****                 /* Disconnect IDAC */
1670:.\Generated_Source\PSoC5/CapSense_CSD.c ****                 CapSense_CSD_AMuxCH0_Disconnect(CapSense_CSD_AMuxCH0_IDAC_CHANNEL);
1671:.\Generated_Source\PSoC5/CapSense_CSD.c ****             #endif  /* (CapSense_CSD_CURRENT_SOURCE == CapSense_CSD_IDAC_SINK) */
1672:.\Generated_Source\PSoC5/CapSense_CSD.c ****         #else
1673:.\Generated_Source\PSoC5/CapSense_CSD.c ****             /* Disconnect DSI output from Rb */
1674:.\Generated_Source\PSoC5/CapSense_CSD.c ****             *CapSense_CSD_rbTable[CapSense_CSD_extRbCh0Cur] &= ~CapSense_CSD_BYP_MASK; 
1675:.\Generated_Source\PSoC5/CapSense_CSD.c ****         #endif  /* (CapSense_CSD_CURRENT_SOURCE)*/
1676:.\Generated_Source\PSoC5/CapSense_CSD.c ****         
1677:.\Generated_Source\PSoC5/CapSense_CSD.c ****         /* Enable Vref on AMUX */
1678:.\Generated_Source\PSoC5/CapSense_CSD.c ****         #if (CapSense_CSD_VREF_OPTIONS == CapSense_CSD_VREF_VDAC)
1679:.\Generated_Source\PSoC5/CapSense_CSD.c ****             CapSense_CSD_AMuxCH0_Connect(CapSense_CSD_AMuxCH0_VREF_CHANNEL);
1680:.\Generated_Source\PSoC5/CapSense_CSD.c ****         #else
1681:.\Generated_Source\PSoC5/CapSense_CSD.c ****             CapSense_CSD_BufCH0_CAPS_CFG0_REG |= CapSense_CSD_CSBUF_ENABLE;
1682:.\Generated_Source\PSoC5/CapSense_CSD.c ****         #endif  /* (CapSense_CSD_VREF_VDAC == CapSense_CSD_VREF_OPTIONS) */
1683:.\Generated_Source\PSoC5/CapSense_CSD.c ****     }
1684:.\Generated_Source\PSoC5/CapSense_CSD.c ****     
1685:.\Generated_Source\PSoC5/CapSense_CSD.c ****     
1686:.\Generated_Source\PSoC5/CapSense_CSD.c ****     /*******************************************************************************
1687:.\Generated_Source\PSoC5/CapSense_CSD.c ****     * Function Name: CapSense_CSD_PostScanCh1
1688:.\Generated_Source\PSoC5/CapSense_CSD.c ****     ********************************************************************************
1689:.\Generated_Source\PSoC5/CapSense_CSD.c ****     *
1690:.\Generated_Source\PSoC5/CapSense_CSD.c ****     * Summary:
1691:.\Generated_Source\PSoC5/CapSense_CSD.c ****     *  Store results of measurament in CapSense_CSD_SensorResult[] array,
1692:.\Generated_Source\PSoC5/CapSense_CSD.c ****     *  sets scan sensor in none sampling state, turn off Idac(Current Source IDAC), 
ARM GAS  C:\Users\mark6\AppData\Local\Temp\ccG3DDgg.s 			page 52


1693:.\Generated_Source\PSoC5/CapSense_CSD.c ****     *  disconnect IDAC(Sink mode) or bleed resistor (Rb) and apply Vref on AMUX.
1694:.\Generated_Source\PSoC5/CapSense_CSD.c ****     *  Only used for channel 1 in two channes designs.
1695:.\Generated_Source\PSoC5/CapSense_CSD.c ****     *
1696:.\Generated_Source\PSoC5/CapSense_CSD.c ****     * Parameters:
1697:.\Generated_Source\PSoC5/CapSense_CSD.c ****     *  sensor:  Sensor number.
1698:.\Generated_Source\PSoC5/CapSense_CSD.c ****     *
1699:.\Generated_Source\PSoC5/CapSense_CSD.c ****     * Return:
1700:.\Generated_Source\PSoC5/CapSense_CSD.c ****     *  None
1701:.\Generated_Source\PSoC5/CapSense_CSD.c ****     *
1702:.\Generated_Source\PSoC5/CapSense_CSD.c ****     * Global Variables:
1703:.\Generated_Source\PSoC5/CapSense_CSD.c ****     *  CapSense_CSD_sensorRaw[] - used to store sensors raw data.
1704:.\Generated_Source\PSoC5/CapSense_CSD.c ****     *
1705:.\Generated_Source\PSoC5/CapSense_CSD.c ****     * Reentrant:
1706:.\Generated_Source\PSoC5/CapSense_CSD.c ****     *  No
1707:.\Generated_Source\PSoC5/CapSense_CSD.c ****     *
1708:.\Generated_Source\PSoC5/CapSense_CSD.c ****     *******************************************************************************/
1709:.\Generated_Source\PSoC5/CapSense_CSD.c ****     void CapSense_CSD_PostScanCh1(uint8 sensor) CYREENTRANT
1710:.\Generated_Source\PSoC5/CapSense_CSD.c ****     {
1711:.\Generated_Source\PSoC5/CapSense_CSD.c ****         if (((CapSense_CSD_CONTROL_REG & CapSense_CSD_CTRL_WINDOW_EN__CH0) == 0u) && 
1712:.\Generated_Source\PSoC5/CapSense_CSD.c ****             ((CapSense_CSD_CONTROL_REG & CapSense_CSD_CTRL_WINDOW_EN__CH1) == 0u))
1713:.\Generated_Source\PSoC5/CapSense_CSD.c ****         {
1714:.\Generated_Source\PSoC5/CapSense_CSD.c ****             /* Stop Capsensing and rearm sync */
1715:.\Generated_Source\PSoC5/CapSense_CSD.c ****             CapSense_CSD_CONTROL_REG &= ~(CapSense_CSD_CTRL_START | CapSense_CSD_CTRL_SYNC_EN);
1716:.\Generated_Source\PSoC5/CapSense_CSD.c ****         }
1717:.\Generated_Source\PSoC5/CapSense_CSD.c ****         
1718:.\Generated_Source\PSoC5/CapSense_CSD.c ****         /* Read SlotResult from Raw Counter */
1719:.\Generated_Source\PSoC5/CapSense_CSD.c ****         #if (CapSense_CSD_IMPLEMENTATION_CH1 == CapSense_CSD_MEASURE_IMPLEMENTATION_FF)
1720:.\Generated_Source\PSoC5/CapSense_CSD.c ****             CapSense_CSD_sensorRaw[sensor]  = CapSense_CSD_MEASURE_FULL_RANGE - 
1721:.\Generated_Source\PSoC5/CapSense_CSD.c ****                                                       CY_GET_REG16(CapSense_CSD_RAW_CH1_COUNTER_PTR
1722:.\Generated_Source\PSoC5/CapSense_CSD.c ****         #else
1723:.\Generated_Source\PSoC5/CapSense_CSD.c ****             CapSense_CSD_sensorRaw[sensor]  = ((uint16) CapSense_CSD_RAW_CH1_COUNTER_HI_REG << 8u);
1724:.\Generated_Source\PSoC5/CapSense_CSD.c ****             CapSense_CSD_sensorRaw[sensor] |= (uint16) CapSense_CSD_RAW_CH1_COUNTER_LO_REG;
1725:.\Generated_Source\PSoC5/CapSense_CSD.c ****             CapSense_CSD_sensorRaw[sensor]  = CapSense_CSD_MEASURE_FULL_RANGE - 
1726:.\Generated_Source\PSoC5/CapSense_CSD.c ****                                                       CapSense_CSD_sensorRaw[sensor];
1727:.\Generated_Source\PSoC5/CapSense_CSD.c ****         #endif  /* (CapSense_CSD_IMPLEMENTATION_CH1 == CapSense_CSD_MEASURE_IMPLEMENTATION_FF)*/
1728:.\Generated_Source\PSoC5/CapSense_CSD.c ****         
1729:.\Generated_Source\PSoC5/CapSense_CSD.c ****         /* Disable Sensor */
1730:.\Generated_Source\PSoC5/CapSense_CSD.c ****         CapSense_CSD_DisableScanSlot(sensor);
1731:.\Generated_Source\PSoC5/CapSense_CSD.c ****         
1732:.\Generated_Source\PSoC5/CapSense_CSD.c ****         #if (CapSense_CSD_CURRENT_SOURCE)
1733:.\Generated_Source\PSoC5/CapSense_CSD.c ****             /* Turn off IDAC */
1734:.\Generated_Source\PSoC5/CapSense_CSD.c ****             CapSense_CSD_IdacCH1_SetValue(CapSense_CSD_TURN_OFF_IDAC);
1735:.\Generated_Source\PSoC5/CapSense_CSD.c ****             #if (CapSense_CSD_CURRENT_SOURCE == CapSense_CSD_IDAC_SINK)
1736:.\Generated_Source\PSoC5/CapSense_CSD.c ****                 /* Disconnect IDAC */
1737:.\Generated_Source\PSoC5/CapSense_CSD.c ****                 CapSense_CSD_AMuxCH1_Disconnect(CapSense_CSD_AMuxCH1_IDAC_CHANNEL);
1738:.\Generated_Source\PSoC5/CapSense_CSD.c ****             #endif  /* (CapSense_CSD_CURRENT_SOURCE == CapSense_CSD_IDAC_SINK) */
1739:.\Generated_Source\PSoC5/CapSense_CSD.c ****         #else
1740:.\Generated_Source\PSoC5/CapSense_CSD.c ****             /* Disconnect DSI output from Rb */
1741:.\Generated_Source\PSoC5/CapSense_CSD.c ****             *CapSense_CSD_rbTable[CapSense_CSD_extRbCh1Cur] &= ~CapSense_CSD_BYP_MASK; 
1742:.\Generated_Source\PSoC5/CapSense_CSD.c ****         #endif  /* (CapSense_CSD_CURRENT_SOURCE)*/
1743:.\Generated_Source\PSoC5/CapSense_CSD.c **** 
1744:.\Generated_Source\PSoC5/CapSense_CSD.c ****         /* Enable Vref on AMUX */
1745:.\Generated_Source\PSoC5/CapSense_CSD.c ****         #if (CapSense_CSD_VREF_OPTIONS == CapSense_CSD_VREF_VDAC)
1746:.\Generated_Source\PSoC5/CapSense_CSD.c ****             CapSense_CSD_AMuxCH1_Connect(CapSense_CSD_AMuxCH1_VREF_CHANNEL);
1747:.\Generated_Source\PSoC5/CapSense_CSD.c ****         #else
1748:.\Generated_Source\PSoC5/CapSense_CSD.c ****             CapSense_CSD_BufCH1_CAPS_CFG0_REG |= CapSense_CSD_CSBUF_ENABLE;
1749:.\Generated_Source\PSoC5/CapSense_CSD.c ****         #endif  /* (CapSense_CSD_VREF_VDAC == CapSense_CSD_VREF_OPTIONS) */
ARM GAS  C:\Users\mark6\AppData\Local\Temp\ccG3DDgg.s 			page 53


1750:.\Generated_Source\PSoC5/CapSense_CSD.c ****     }
1751:.\Generated_Source\PSoC5/CapSense_CSD.c ****     
1752:.\Generated_Source\PSoC5/CapSense_CSD.c **** #endif  /* CapSense_CSD_DESIGN_TYPE */
1753:.\Generated_Source\PSoC5/CapSense_CSD.c **** 
1754:.\Generated_Source\PSoC5/CapSense_CSD.c **** 
1755:.\Generated_Source\PSoC5/CapSense_CSD.c **** #if (CapSense_CSD_CURRENT_SOURCE == CapSense_CSD_EXTERNAL_RB)
1756:.\Generated_Source\PSoC5/CapSense_CSD.c ****     /*******************************************************************************
1757:.\Generated_Source\PSoC5/CapSense_CSD.c ****     * Function Name:  CapSense_CSD_InitRb
1758:.\Generated_Source\PSoC5/CapSense_CSD.c ****     ********************************************************************************
1759:.\Generated_Source\PSoC5/CapSense_CSD.c ****     *
1760:.\Generated_Source\PSoC5/CapSense_CSD.c ****     * Summary:
1761:.\Generated_Source\PSoC5/CapSense_CSD.c ****     *  Sets all Rbleed resistor to High-Z mode. The first Rbleed resistor is active
1762:.\Generated_Source\PSoC5/CapSense_CSD.c ****     *  while next measure.
1763:.\Generated_Source\PSoC5/CapSense_CSD.c ****     *  This function is available only if Current Source is External Resistor.
1764:.\Generated_Source\PSoC5/CapSense_CSD.c ****     *
1765:.\Generated_Source\PSoC5/CapSense_CSD.c ****     * Parameters:
1766:.\Generated_Source\PSoC5/CapSense_CSD.c ****     *  None
1767:.\Generated_Source\PSoC5/CapSense_CSD.c ****     *
1768:.\Generated_Source\PSoC5/CapSense_CSD.c ****     * Return:
1769:.\Generated_Source\PSoC5/CapSense_CSD.c ****     *  None
1770:.\Generated_Source\PSoC5/CapSense_CSD.c ****     *
1771:.\Generated_Source\PSoC5/CapSense_CSD.c ****     ********************************************************************************/
1772:.\Generated_Source\PSoC5/CapSense_CSD.c ****     void CapSense_CSD_InitRb(void) 
1773:.\Generated_Source\PSoC5/CapSense_CSD.c ****     {
1774:.\Generated_Source\PSoC5/CapSense_CSD.c ****         uint8 i;
1775:.\Generated_Source\PSoC5/CapSense_CSD.c ****         
1776:.\Generated_Source\PSoC5/CapSense_CSD.c ****         /* Disable all Rb */
1777:.\Generated_Source\PSoC5/CapSense_CSD.c ****         for(i = 0u; i < CapSense_CSD_TOTAL_RB_NUMBER; i++)
1778:.\Generated_Source\PSoC5/CapSense_CSD.c ****         {
1779:.\Generated_Source\PSoC5/CapSense_CSD.c ****             /* Make High-Z */
1780:.\Generated_Source\PSoC5/CapSense_CSD.c ****             *CapSense_CSD_rbTable[i] = CapSense_CSD_PRT_PC_HIGHZ;
1781:.\Generated_Source\PSoC5/CapSense_CSD.c ****         }
1782:.\Generated_Source\PSoC5/CapSense_CSD.c ****     }
1783:.\Generated_Source\PSoC5/CapSense_CSD.c ****     
1784:.\Generated_Source\PSoC5/CapSense_CSD.c ****     
1785:.\Generated_Source\PSoC5/CapSense_CSD.c ****     /*******************************************************************************
1786:.\Generated_Source\PSoC5/CapSense_CSD.c ****     * Function Name: CapSense_CSD_SetRBleed
1787:.\Generated_Source\PSoC5/CapSense_CSD.c ****     ********************************************************************************
1788:.\Generated_Source\PSoC5/CapSense_CSD.c ****     *
1789:.\Generated_Source\PSoC5/CapSense_CSD.c ****     * Summary:
1790:.\Generated_Source\PSoC5/CapSense_CSD.c ****     *  Sets the pin to use for the bleed resistor (Rb) connection. This function
1791:.\Generated_Source\PSoC5/CapSense_CSD.c ****     *  can be called at runtime to select the current Rb pin setting from those 
1792:.\Generated_Source\PSoC5/CapSense_CSD.c ****     *  defined customizer. The function overwrites the component parameter setting. 
1793:.\Generated_Source\PSoC5/CapSense_CSD.c ****     *  This function is available only if Current Source is External Resistor.
1794:.\Generated_Source\PSoC5/CapSense_CSD.c ****     * 
1795:.\Generated_Source\PSoC5/CapSense_CSD.c ****     * Parameters:
1796:.\Generated_Source\PSoC5/CapSense_CSD.c ****     *  rbleed:  Ordering number for bleed resistor terminal defined in CapSense
1797:.\Generated_Source\PSoC5/CapSense_CSD.c ****     *  customizer.
1798:.\Generated_Source\PSoC5/CapSense_CSD.c ****     *
1799:.\Generated_Source\PSoC5/CapSense_CSD.c ****     * Return:
1800:.\Generated_Source\PSoC5/CapSense_CSD.c ****     *  None
1801:.\Generated_Source\PSoC5/CapSense_CSD.c ****     *
1802:.\Generated_Source\PSoC5/CapSense_CSD.c ****     * Global Variables:
1803:.\Generated_Source\PSoC5/CapSense_CSD.c ****     *  CapSense_CSD_extRbCh0Cur - used to store current number of active 
1804:.\Generated_Source\PSoC5/CapSense_CSD.c ****     *  bleed resistor (Rb) of channel 0.
1805:.\Generated_Source\PSoC5/CapSense_CSD.c ****     *  CapSense_CSD_extRbCh1Cur - used to store current number of active 
1806:.\Generated_Source\PSoC5/CapSense_CSD.c ****     *  bleed resistor (Rb) of channel 1.
ARM GAS  C:\Users\mark6\AppData\Local\Temp\ccG3DDgg.s 			page 54


1807:.\Generated_Source\PSoC5/CapSense_CSD.c ****     *  The active bleed resistor (Rb) pin will be used while next measurement  
1808:.\Generated_Source\PSoC5/CapSense_CSD.c ****     *  cycle.
1809:.\Generated_Source\PSoC5/CapSense_CSD.c ****     *
1810:.\Generated_Source\PSoC5/CapSense_CSD.c ****     * Reentrant:
1811:.\Generated_Source\PSoC5/CapSense_CSD.c ****     *  No
1812:.\Generated_Source\PSoC5/CapSense_CSD.c ****     *
1813:.\Generated_Source\PSoC5/CapSense_CSD.c ****     *******************************************************************************/
1814:.\Generated_Source\PSoC5/CapSense_CSD.c ****     void CapSense_CSD_SetRBleed(uint8 rbleed) 
1815:.\Generated_Source\PSoC5/CapSense_CSD.c ****     {
1816:.\Generated_Source\PSoC5/CapSense_CSD.c ****         #if (CapSense_CSD_DESIGN_TYPE == CapSense_CSD_ONE_CHANNEL_DESIGN)
1817:.\Generated_Source\PSoC5/CapSense_CSD.c ****             CapSense_CSD_extRbCh0Cur = rbleed;
1818:.\Generated_Source\PSoC5/CapSense_CSD.c ****             
1819:.\Generated_Source\PSoC5/CapSense_CSD.c ****         #else
1820:.\Generated_Source\PSoC5/CapSense_CSD.c ****             if(rbleed < CapSense_CSD_TOTAL_RB_NUMBER__CH0)
1821:.\Generated_Source\PSoC5/CapSense_CSD.c ****             {
1822:.\Generated_Source\PSoC5/CapSense_CSD.c ****                 CapSense_CSD_extRbCh0Cur = rbleed;
1823:.\Generated_Source\PSoC5/CapSense_CSD.c ****             }
1824:.\Generated_Source\PSoC5/CapSense_CSD.c ****             else
1825:.\Generated_Source\PSoC5/CapSense_CSD.c ****             {
1826:.\Generated_Source\PSoC5/CapSense_CSD.c ****                 CapSense_CSD_extRbCh1Cur = (rbleed - CapSense_CSD_TOTAL_RB_NUMBER__CH0);   
1827:.\Generated_Source\PSoC5/CapSense_CSD.c ****             }
1828:.\Generated_Source\PSoC5/CapSense_CSD.c ****     
1829:.\Generated_Source\PSoC5/CapSense_CSD.c ****         #endif  /* CapSense_CSD_DESIGN_TYPE == CapSense_CSD_ONE_CHANNEL_DESIGN */ 
1830:.\Generated_Source\PSoC5/CapSense_CSD.c ****     }
1831:.\Generated_Source\PSoC5/CapSense_CSD.c **** #endif /* CapSense_CSD_CURRENT_SOURCE == CapSense_CSD_EXTERNAL_RB */ 
1832:.\Generated_Source\PSoC5/CapSense_CSD.c **** 
1833:.\Generated_Source\PSoC5/CapSense_CSD.c **** #if (CapSense_CSD_PRESCALER_OPTIONS)
1834:.\Generated_Source\PSoC5/CapSense_CSD.c ****     /*******************************************************************************
1835:.\Generated_Source\PSoC5/CapSense_CSD.c ****     * Function Name: CapSense_CSD_SetPrescaler
1836:.\Generated_Source\PSoC5/CapSense_CSD.c ****     ********************************************************************************
1837:.\Generated_Source\PSoC5/CapSense_CSD.c ****     *
1838:.\Generated_Source\PSoC5/CapSense_CSD.c ****     * Summary:
1839:.\Generated_Source\PSoC5/CapSense_CSD.c ****     *  Sets analog switch divider.
1840:.\Generated_Source\PSoC5/CapSense_CSD.c ****     *
1841:.\Generated_Source\PSoC5/CapSense_CSD.c ****     * Parameters:
1842:.\Generated_Source\PSoC5/CapSense_CSD.c ****     *  prescaler:  Sets prescaler divider values.
1843:.\Generated_Source\PSoC5/CapSense_CSD.c ****     *
1844:.\Generated_Source\PSoC5/CapSense_CSD.c ****     * Return:
1845:.\Generated_Source\PSoC5/CapSense_CSD.c ****     *  None
1846:.\Generated_Source\PSoC5/CapSense_CSD.c ****     *
1847:.\Generated_Source\PSoC5/CapSense_CSD.c ****     *******************************************************************************/
1848:.\Generated_Source\PSoC5/CapSense_CSD.c ****     void CapSense_CSD_SetPrescaler(uint8 prescaler) CYREENTRANT
1849:.\Generated_Source\PSoC5/CapSense_CSD.c ****     {
 1213              		.loc 1 1849 0
 1214              		.cfi_startproc
 1215              		@ args = 0, pretend = 0, frame = 8
 1216              		@ frame_needed = 1, uses_anonymous_args = 0
 1217              		@ link register save eliminated.
 1218 0000 80B4     		push	{r7}
 1219              		.cfi_def_cfa_offset 4
 1220              		.cfi_offset 7, -4
 1221 0002 83B0     		sub	sp, sp, #12
 1222              		.cfi_def_cfa_offset 16
 1223 0004 00AF     		add	r7, sp, #0
 1224              		.cfi_def_cfa_register 7
 1225 0006 0346     		mov	r3, r0
 1226 0008 FB71     		strb	r3, [r7, #7]
ARM GAS  C:\Users\mark6\AppData\Local\Temp\ccG3DDgg.s 			page 55


1850:.\Generated_Source\PSoC5/CapSense_CSD.c ****         /* Set Prescaler */
1851:.\Generated_Source\PSoC5/CapSense_CSD.c ****         #if (CapSense_CSD_PRESCALER_OPTIONS == CapSense_CSD_PRESCALER_UDB)
1852:.\Generated_Source\PSoC5/CapSense_CSD.c ****             CapSense_CSD_PRESCALER_PERIOD_REG = prescaler;
 1227              		.loc 1 1852 0
 1228 000a 064A     		ldr	r2, .L57
 1229 000c FB79     		ldrb	r3, [r7, #7]
 1230 000e 1370     		strb	r3, [r2]
1853:.\Generated_Source\PSoC5/CapSense_CSD.c ****             CapSense_CSD_PRESCALER_COMPARE_REG = (prescaler >> 1u);
 1231              		.loc 1 1853 0
 1232 0010 054A     		ldr	r2, .L57+4
 1233 0012 FB79     		ldrb	r3, [r7, #7]	@ zero_extendqisi2
 1234 0014 5B08     		lsrs	r3, r3, #1
 1235 0016 DBB2     		uxtb	r3, r3
 1236 0018 1370     		strb	r3, [r2]
1854:.\Generated_Source\PSoC5/CapSense_CSD.c ****         #elif (CapSense_CSD_PRESCALER_OPTIONS == CapSense_CSD_PRESCALER_FF)
1855:.\Generated_Source\PSoC5/CapSense_CSD.c ****             CY_SET_REG16(CapSense_CSD_PRESCALER_PERIOD_PTR, (uint16) prescaler);
1856:.\Generated_Source\PSoC5/CapSense_CSD.c ****             CY_SET_REG16(CapSense_CSD_PRESCALER_COMPARE_PTR, (uint16) (prescaler >> 1u));
1857:.\Generated_Source\PSoC5/CapSense_CSD.c ****         #else
1858:.\Generated_Source\PSoC5/CapSense_CSD.c ****             /* Do nothing = config without prescaler */
1859:.\Generated_Source\PSoC5/CapSense_CSD.c ****         #endif  /* (CapSense_CSD_PRESCALER_OPTIONS == CapSense_CSD_PRESCALER_UDB) */
1860:.\Generated_Source\PSoC5/CapSense_CSD.c ****     }
 1237              		.loc 1 1860 0
 1238 001a 0C37     		adds	r7, r7, #12
 1239              		.cfi_def_cfa_offset 4
 1240 001c BD46     		mov	sp, r7
 1241              		.cfi_def_cfa_register 13
 1242              		@ sp needed
 1243 001e 5DF8047B 		ldr	r7, [sp], #4
 1244              		.cfi_restore 7
 1245              		.cfi_def_cfa_offset 0
 1246 0022 7047     		bx	lr
 1247              	.L58:
 1248              		.align	2
 1249              	.L57:
 1250 0024 2D640040 		.word	1073767469
 1251 0028 3D640040 		.word	1073767485
 1252              		.cfi_endproc
 1253              	.LFE15:
 1254              		.size	CapSense_CSD_SetPrescaler, .-CapSense_CSD_SetPrescaler
 1255              		.section	.text.CapSense_CSD_GetPrescaler,"ax",%progbits
 1256              		.align	2
 1257              		.global	CapSense_CSD_GetPrescaler
 1258              		.thumb
 1259              		.thumb_func
 1260              		.type	CapSense_CSD_GetPrescaler, %function
 1261              	CapSense_CSD_GetPrescaler:
 1262              	.LFB16:
1861:.\Generated_Source\PSoC5/CapSense_CSD.c **** 
1862:.\Generated_Source\PSoC5/CapSense_CSD.c **** 
1863:.\Generated_Source\PSoC5/CapSense_CSD.c ****     /*******************************************************************************
1864:.\Generated_Source\PSoC5/CapSense_CSD.c ****     * Function Name: CapSense_CSD_GetPrescaler
1865:.\Generated_Source\PSoC5/CapSense_CSD.c ****     ********************************************************************************
1866:.\Generated_Source\PSoC5/CapSense_CSD.c ****     *
1867:.\Generated_Source\PSoC5/CapSense_CSD.c ****     * Summary:
1868:.\Generated_Source\PSoC5/CapSense_CSD.c ****     *  Gets analog switch divider.
1869:.\Generated_Source\PSoC5/CapSense_CSD.c ****     *
1870:.\Generated_Source\PSoC5/CapSense_CSD.c ****     * Parameters:
ARM GAS  C:\Users\mark6\AppData\Local\Temp\ccG3DDgg.s 			page 56


1871:.\Generated_Source\PSoC5/CapSense_CSD.c ****     *  None
1872:.\Generated_Source\PSoC5/CapSense_CSD.c ****     *
1873:.\Generated_Source\PSoC5/CapSense_CSD.c ****     * Return:
1874:.\Generated_Source\PSoC5/CapSense_CSD.c ****     *   Returns the prescaler divider value.
1875:.\Generated_Source\PSoC5/CapSense_CSD.c ****     *
1876:.\Generated_Source\PSoC5/CapSense_CSD.c ****     *******************************************************************************/
1877:.\Generated_Source\PSoC5/CapSense_CSD.c ****     uint8 CapSense_CSD_GetPrescaler(void) 
1878:.\Generated_Source\PSoC5/CapSense_CSD.c ****     {
 1263              		.loc 1 1878 0
 1264              		.cfi_startproc
 1265              		@ args = 0, pretend = 0, frame = 8
 1266              		@ frame_needed = 1, uses_anonymous_args = 0
 1267              		@ link register save eliminated.
 1268 0000 80B4     		push	{r7}
 1269              		.cfi_def_cfa_offset 4
 1270              		.cfi_offset 7, -4
 1271 0002 83B0     		sub	sp, sp, #12
 1272              		.cfi_def_cfa_offset 16
 1273 0004 00AF     		add	r7, sp, #0
 1274              		.cfi_def_cfa_register 7
1879:.\Generated_Source\PSoC5/CapSense_CSD.c ****         uint8 prescaler = 0u;
 1275              		.loc 1 1879 0
 1276 0006 0023     		movs	r3, #0
 1277 0008 FB71     		strb	r3, [r7, #7]
1880:.\Generated_Source\PSoC5/CapSense_CSD.c **** 
1881:.\Generated_Source\PSoC5/CapSense_CSD.c ****         /* Get Prescaler */
1882:.\Generated_Source\PSoC5/CapSense_CSD.c ****         #if (CapSense_CSD_PRESCALER_OPTIONS == CapSense_CSD_PRESCALER_UDB)
1883:.\Generated_Source\PSoC5/CapSense_CSD.c ****             prescaler = CapSense_CSD_PRESCALER_PERIOD_REG;
 1278              		.loc 1 1883 0
 1279 000a 054B     		ldr	r3, .L61
 1280 000c 1B78     		ldrb	r3, [r3]
 1281 000e FB71     		strb	r3, [r7, #7]
1884:.\Generated_Source\PSoC5/CapSense_CSD.c ****             
1885:.\Generated_Source\PSoC5/CapSense_CSD.c ****         #elif (CapSense_CSD_PRESCALER_OPTIONS == CapSense_CSD_PRESCALER_FF)
1886:.\Generated_Source\PSoC5/CapSense_CSD.c ****             prescaler = (uint8) CY_GET_REG16(CapSense_CSD_PRESCALER_PERIOD_PTR);
1887:.\Generated_Source\PSoC5/CapSense_CSD.c ****             
1888:.\Generated_Source\PSoC5/CapSense_CSD.c ****         #else
1889:.\Generated_Source\PSoC5/CapSense_CSD.c ****             /* Do nothing = config without prescaler */
1890:.\Generated_Source\PSoC5/CapSense_CSD.c ****         #endif  /* (CapSense_CSD_PRESCALER_OPTIONS == CapSense_CSD_PRESCALER_UDB) */
1891:.\Generated_Source\PSoC5/CapSense_CSD.c ****         
1892:.\Generated_Source\PSoC5/CapSense_CSD.c ****         return (prescaler);
 1282              		.loc 1 1892 0
 1283 0010 FB79     		ldrb	r3, [r7, #7]	@ zero_extendqisi2
1893:.\Generated_Source\PSoC5/CapSense_CSD.c ****     }
 1284              		.loc 1 1893 0
 1285 0012 1846     		mov	r0, r3
 1286 0014 0C37     		adds	r7, r7, #12
 1287              		.cfi_def_cfa_offset 4
 1288 0016 BD46     		mov	sp, r7
 1289              		.cfi_def_cfa_register 13
 1290              		@ sp needed
 1291 0018 5DF8047B 		ldr	r7, [sp], #4
 1292              		.cfi_restore 7
 1293              		.cfi_def_cfa_offset 0
 1294 001c 7047     		bx	lr
 1295              	.L62:
 1296 001e 00BF     		.align	2
ARM GAS  C:\Users\mark6\AppData\Local\Temp\ccG3DDgg.s 			page 57


 1297              	.L61:
 1298 0020 2D640040 		.word	1073767469
 1299              		.cfi_endproc
 1300              	.LFE16:
 1301              		.size	CapSense_CSD_GetPrescaler, .-CapSense_CSD_GetPrescaler
 1302              		.section	.text.CapSense_CSD_SetScanSpeed,"ax",%progbits
 1303              		.align	2
 1304              		.global	CapSense_CSD_SetScanSpeed
 1305              		.thumb
 1306              		.thumb_func
 1307              		.type	CapSense_CSD_SetScanSpeed, %function
 1308              	CapSense_CSD_SetScanSpeed:
 1309              	.LFB17:
1894:.\Generated_Source\PSoC5/CapSense_CSD.c **** #endif  /* CapSense_CSD_PRESCALER_OPTIONS */
1895:.\Generated_Source\PSoC5/CapSense_CSD.c **** 
1896:.\Generated_Source\PSoC5/CapSense_CSD.c **** 
1897:.\Generated_Source\PSoC5/CapSense_CSD.c **** /*******************************************************************************
1898:.\Generated_Source\PSoC5/CapSense_CSD.c **** * Function Name: CapSense_CSD_SetScanSpeed
1899:.\Generated_Source\PSoC5/CapSense_CSD.c **** ********************************************************************************
1900:.\Generated_Source\PSoC5/CapSense_CSD.c **** *
1901:.\Generated_Source\PSoC5/CapSense_CSD.c **** * Summary:
1902:.\Generated_Source\PSoC5/CapSense_CSD.c **** *  Sets ScanSpeed divider.
1903:.\Generated_Source\PSoC5/CapSense_CSD.c **** *
1904:.\Generated_Source\PSoC5/CapSense_CSD.c **** * Parameters:
1905:.\Generated_Source\PSoC5/CapSense_CSD.c **** *  scanspeed:  Sets ScanSpeed divider.
1906:.\Generated_Source\PSoC5/CapSense_CSD.c **** *
1907:.\Generated_Source\PSoC5/CapSense_CSD.c **** * Return:
1908:.\Generated_Source\PSoC5/CapSense_CSD.c **** *  None
1909:.\Generated_Source\PSoC5/CapSense_CSD.c **** *
1910:.\Generated_Source\PSoC5/CapSense_CSD.c **** *******************************************************************************/
1911:.\Generated_Source\PSoC5/CapSense_CSD.c **** void CapSense_CSD_SetScanSpeed(uint8 scanSpeed) 
1912:.\Generated_Source\PSoC5/CapSense_CSD.c **** {
 1310              		.loc 1 1912 0
 1311              		.cfi_startproc
 1312              		@ args = 0, pretend = 0, frame = 8
 1313              		@ frame_needed = 1, uses_anonymous_args = 0
 1314              		@ link register save eliminated.
 1315 0000 80B4     		push	{r7}
 1316              		.cfi_def_cfa_offset 4
 1317              		.cfi_offset 7, -4
 1318 0002 83B0     		sub	sp, sp, #12
 1319              		.cfi_def_cfa_offset 16
 1320 0004 00AF     		add	r7, sp, #0
 1321              		.cfi_def_cfa_register 7
 1322 0006 0346     		mov	r3, r0
 1323 0008 FB71     		strb	r3, [r7, #7]
1913:.\Generated_Source\PSoC5/CapSense_CSD.c ****     CapSense_CSD_SCANSPEED_PERIOD_REG = scanSpeed; 
 1324              		.loc 1 1913 0
 1325 000a 044A     		ldr	r2, .L64
 1326 000c FB79     		ldrb	r3, [r7, #7]
 1327 000e 1370     		strb	r3, [r2]
1914:.\Generated_Source\PSoC5/CapSense_CSD.c **** }
 1328              		.loc 1 1914 0
 1329 0010 0C37     		adds	r7, r7, #12
 1330              		.cfi_def_cfa_offset 4
 1331 0012 BD46     		mov	sp, r7
 1332              		.cfi_def_cfa_register 13
ARM GAS  C:\Users\mark6\AppData\Local\Temp\ccG3DDgg.s 			page 58


 1333              		@ sp needed
 1334 0014 5DF8047B 		ldr	r7, [sp], #4
 1335              		.cfi_restore 7
 1336              		.cfi_def_cfa_offset 0
 1337 0018 7047     		bx	lr
 1338              	.L65:
 1339 001a 00BF     		.align	2
 1340              	.L64:
 1341 001c 8E640040 		.word	1073767566
 1342              		.cfi_endproc
 1343              	.LFE17:
 1344              		.size	CapSense_CSD_SetScanSpeed, .-CapSense_CSD_SetScanSpeed
 1345              		.section	.text.CapSense_CSD_SetAnalogSwitchesSource,"ax",%progbits
 1346              		.align	2
 1347              		.global	CapSense_CSD_SetAnalogSwitchesSource
 1348              		.thumb
 1349              		.thumb_func
 1350              		.type	CapSense_CSD_SetAnalogSwitchesSource, %function
 1351              	CapSense_CSD_SetAnalogSwitchesSource:
 1352              	.LFB18:
1915:.\Generated_Source\PSoC5/CapSense_CSD.c **** 
1916:.\Generated_Source\PSoC5/CapSense_CSD.c **** 
1917:.\Generated_Source\PSoC5/CapSense_CSD.c **** #if (CapSense_CSD_PRS_OPTIONS)
1918:.\Generated_Source\PSoC5/CapSense_CSD.c ****     /*******************************************************************************
1919:.\Generated_Source\PSoC5/CapSense_CSD.c ****     * Function Name: CapSense_CSD_SetAnalogSwitchesSource
1920:.\Generated_Source\PSoC5/CapSense_CSD.c ****     ********************************************************************************
1921:.\Generated_Source\PSoC5/CapSense_CSD.c ****     *
1922:.\Generated_Source\PSoC5/CapSense_CSD.c ****     * Summary:
1923:.\Generated_Source\PSoC5/CapSense_CSD.c ****     *  Selects the Analog switches source between PRS and prescaler. It is useful
1924:.\Generated_Source\PSoC5/CapSense_CSD.c ****     *  for sensor capacitance determination for sensors with low self-capacitance.
1925:.\Generated_Source\PSoC5/CapSense_CSD.c ****     *  This function is used in auto-tuning procedure.
1926:.\Generated_Source\PSoC5/CapSense_CSD.c ****     *
1927:.\Generated_Source\PSoC5/CapSense_CSD.c ****     * Parameters:
1928:.\Generated_Source\PSoC5/CapSense_CSD.c ****     *  src:  analog switches source:
1929:.\Generated_Source\PSoC5/CapSense_CSD.c ****     *           CapSense_CSD_ANALOG_SWITCHES_SRC_PRESCALER - selects prescaler
1930:.\Generated_Source\PSoC5/CapSense_CSD.c ****     *           CapSense_CSD_ANALOG_SWITCHES_SRC_PRS - selects PRS
1931:.\Generated_Source\PSoC5/CapSense_CSD.c ****     *
1932:.\Generated_Source\PSoC5/CapSense_CSD.c ****     * Return:
1933:.\Generated_Source\PSoC5/CapSense_CSD.c ****     *  None
1934:.\Generated_Source\PSoC5/CapSense_CSD.c ****     *
1935:.\Generated_Source\PSoC5/CapSense_CSD.c ****     * Reentrant:
1936:.\Generated_Source\PSoC5/CapSense_CSD.c ****     *  No
1937:.\Generated_Source\PSoC5/CapSense_CSD.c ****     *******************************************************************************/
1938:.\Generated_Source\PSoC5/CapSense_CSD.c ****     void CapSense_CSD_SetAnalogSwitchesSource(uint8 src)
1939:.\Generated_Source\PSoC5/CapSense_CSD.c ****                       
1940:.\Generated_Source\PSoC5/CapSense_CSD.c ****     {
 1353              		.loc 1 1940 0
 1354              		.cfi_startproc
 1355              		@ args = 0, pretend = 0, frame = 8
 1356              		@ frame_needed = 1, uses_anonymous_args = 0
 1357              		@ link register save eliminated.
 1358 0000 80B4     		push	{r7}
 1359              		.cfi_def_cfa_offset 4
 1360              		.cfi_offset 7, -4
 1361 0002 83B0     		sub	sp, sp, #12
 1362              		.cfi_def_cfa_offset 16
 1363 0004 00AF     		add	r7, sp, #0
ARM GAS  C:\Users\mark6\AppData\Local\Temp\ccG3DDgg.s 			page 59


 1364              		.cfi_def_cfa_register 7
 1365 0006 0346     		mov	r3, r0
 1366 0008 FB71     		strb	r3, [r7, #7]
1941:.\Generated_Source\PSoC5/CapSense_CSD.c ****         if(src == CapSense_CSD_ANALOG_SWITCHES_SRC_PRESCALER)
 1367              		.loc 1 1941 0
 1368 000a FB79     		ldrb	r3, [r7, #7]	@ zero_extendqisi2
 1369 000c 012B     		cmp	r3, #1
 1370 000e 08D1     		bne	.L67
1942:.\Generated_Source\PSoC5/CapSense_CSD.c ****         {
1943:.\Generated_Source\PSoC5/CapSense_CSD.c ****             CapSense_CSD_CONTROL_REG &= (uint8)~0x10u;
 1371              		.loc 1 1943 0
 1372 0010 0A4A     		ldr	r2, .L69
 1373 0012 0A4B     		ldr	r3, .L69
 1374 0014 1B78     		ldrb	r3, [r3]
 1375 0016 DBB2     		uxtb	r3, r3
 1376 0018 23F01003 		bic	r3, r3, #16
 1377 001c DBB2     		uxtb	r3, r3
 1378 001e 1370     		strb	r3, [r2]
 1379 0020 07E0     		b	.L66
 1380              	.L67:
1944:.\Generated_Source\PSoC5/CapSense_CSD.c ****         }
1945:.\Generated_Source\PSoC5/CapSense_CSD.c ****         else
1946:.\Generated_Source\PSoC5/CapSense_CSD.c ****         {
1947:.\Generated_Source\PSoC5/CapSense_CSD.c ****             CapSense_CSD_CONTROL_REG |= 0x10u;
 1381              		.loc 1 1947 0
 1382 0022 064A     		ldr	r2, .L69
 1383 0024 054B     		ldr	r3, .L69
 1384 0026 1B78     		ldrb	r3, [r3]
 1385 0028 DBB2     		uxtb	r3, r3
 1386 002a 43F01003 		orr	r3, r3, #16
 1387 002e DBB2     		uxtb	r3, r3
 1388 0030 1370     		strb	r3, [r2]
 1389              	.L66:
1948:.\Generated_Source\PSoC5/CapSense_CSD.c ****         }
1949:.\Generated_Source\PSoC5/CapSense_CSD.c ****     }
 1390              		.loc 1 1949 0
 1391 0032 0C37     		adds	r7, r7, #12
 1392              		.cfi_def_cfa_offset 4
 1393 0034 BD46     		mov	sp, r7
 1394              		.cfi_def_cfa_register 13
 1395              		@ sp needed
 1396 0036 5DF8047B 		ldr	r7, [sp], #4
 1397              		.cfi_restore 7
 1398              		.cfi_def_cfa_offset 0
 1399 003a 7047     		bx	lr
 1400              	.L70:
 1401              		.align	2
 1402              	.L69:
 1403 003c 7D640040 		.word	1073767549
 1404              		.cfi_endproc
 1405              	.LFE18:
 1406              		.size	CapSense_CSD_SetAnalogSwitchesSource, .-CapSense_CSD_SetAnalogSwitchesSource
 1407              		.text
 1408              	.Letext0:
 1409              		.file 2 ".\\Generated_Source\\PSoC5\\cytypes.h"
 1410              		.section	.debug_info,"",%progbits
 1411              	.Ldebug_info0:
ARM GAS  C:\Users\mark6\AppData\Local\Temp\ccG3DDgg.s 			page 60


 1412 0000 1C050000 		.4byte	0x51c
 1413 0004 0400     		.2byte	0x4
 1414 0006 00000000 		.4byte	.Ldebug_abbrev0
 1415 000a 04       		.byte	0x4
 1416 000b 01       		.uleb128 0x1
 1417 000c ED020000 		.4byte	.LASF61
 1418 0010 01       		.byte	0x1
 1419 0011 61040000 		.4byte	.LASF62
 1420 0015 41000000 		.4byte	.LASF63
 1421 0019 00000000 		.4byte	.Ldebug_ranges0+0
 1422 001d 00000000 		.4byte	0
 1423 0021 00000000 		.4byte	.Ldebug_line0
 1424 0025 02       		.uleb128 0x2
 1425 0026 01       		.byte	0x1
 1426 0027 06       		.byte	0x6
 1427 0028 CF000000 		.4byte	.LASF0
 1428 002c 02       		.uleb128 0x2
 1429 002d 01       		.byte	0x1
 1430 002e 08       		.byte	0x8
 1431 002f AA030000 		.4byte	.LASF1
 1432 0033 02       		.uleb128 0x2
 1433 0034 02       		.byte	0x2
 1434 0035 05       		.byte	0x5
 1435 0036 B8030000 		.4byte	.LASF2
 1436 003a 02       		.uleb128 0x2
 1437 003b 02       		.byte	0x2
 1438 003c 07       		.byte	0x7
 1439 003d 05020000 		.4byte	.LASF3
 1440 0041 02       		.uleb128 0x2
 1441 0042 04       		.byte	0x4
 1442 0043 05       		.byte	0x5
 1443 0044 06010000 		.4byte	.LASF4
 1444 0048 02       		.uleb128 0x2
 1445 0049 04       		.byte	0x4
 1446 004a 07       		.byte	0x7
 1447 004b D3010000 		.4byte	.LASF5
 1448 004f 02       		.uleb128 0x2
 1449 0050 08       		.byte	0x8
 1450 0051 05       		.byte	0x5
 1451 0052 C1000000 		.4byte	.LASF6
 1452 0056 02       		.uleb128 0x2
 1453 0057 08       		.byte	0x8
 1454 0058 07       		.byte	0x7
 1455 0059 2A000000 		.4byte	.LASF7
 1456 005d 03       		.uleb128 0x3
 1457 005e 04       		.byte	0x4
 1458 005f 05       		.byte	0x5
 1459 0060 696E7400 		.ascii	"int\000"
 1460 0064 02       		.uleb128 0x2
 1461 0065 04       		.byte	0x4
 1462 0066 07       		.byte	0x7
 1463 0067 C6010000 		.4byte	.LASF8
 1464 006b 04       		.uleb128 0x4
 1465 006c 44010000 		.4byte	.LASF9
 1466 0070 02       		.byte	0x2
 1467 0071 C2       		.byte	0xc2
 1468 0072 2C000000 		.4byte	0x2c
ARM GAS  C:\Users\mark6\AppData\Local\Temp\ccG3DDgg.s 			page 61


 1469 0076 04       		.uleb128 0x4
 1470 0077 00000000 		.4byte	.LASF10
 1471 007b 02       		.byte	0x2
 1472 007c C3       		.byte	0xc3
 1473 007d 3A000000 		.4byte	0x3a
 1474 0081 04       		.uleb128 0x4
 1475 0082 66010000 		.4byte	.LASF11
 1476 0086 02       		.byte	0x2
 1477 0087 C4       		.byte	0xc4
 1478 0088 48000000 		.4byte	0x48
 1479 008c 02       		.uleb128 0x2
 1480 008d 04       		.byte	0x4
 1481 008e 04       		.byte	0x4
 1482 008f 7B030000 		.4byte	.LASF12
 1483 0093 02       		.uleb128 0x2
 1484 0094 08       		.byte	0x8
 1485 0095 04       		.byte	0x4
 1486 0096 4A010000 		.4byte	.LASF13
 1487 009a 02       		.uleb128 0x2
 1488 009b 01       		.byte	0x1
 1489 009c 08       		.byte	0x8
 1490 009d 20040000 		.4byte	.LASF14
 1491 00a1 05       		.uleb128 0x5
 1492 00a2 A5030000 		.4byte	.LASF15
 1493 00a6 02       		.byte	0x2
 1494 00a7 6C01     		.2byte	0x16c
 1495 00a9 AD000000 		.4byte	0xad
 1496 00ad 06       		.uleb128 0x6
 1497 00ae 6B000000 		.4byte	0x6b
 1498 00b2 05       		.uleb128 0x5
 1499 00b3 3E010000 		.4byte	.LASF16
 1500 00b7 02       		.byte	0x2
 1501 00b8 6D01     		.2byte	0x16d
 1502 00ba BE000000 		.4byte	0xbe
 1503 00be 06       		.uleb128 0x6
 1504 00bf 76000000 		.4byte	0x76
 1505 00c3 05       		.uleb128 0x5
 1506 00c4 82020000 		.4byte	.LASF17
 1507 00c8 02       		.byte	0x2
 1508 00c9 6E01     		.2byte	0x16e
 1509 00cb CF000000 		.4byte	0xcf
 1510 00cf 06       		.uleb128 0x6
 1511 00d0 81000000 		.4byte	0x81
 1512 00d4 02       		.uleb128 0x2
 1513 00d5 04       		.byte	0x4
 1514 00d6 07       		.byte	0x7
 1515 00d7 A2020000 		.4byte	.LASF18
 1516 00db 07       		.uleb128 0x7
 1517 00dc F4000000 		.4byte	.LASF19
 1518 00e0 01       		.byte	0x1
 1519 00e1 60       		.byte	0x60
 1520 00e2 00000000 		.4byte	.LFB0
 1521 00e6 48010000 		.4byte	.LFE0-.LFB0
 1522 00ea 01       		.uleb128 0x1
 1523 00eb 9C       		.byte	0x9c
 1524 00ec FF000000 		.4byte	0xff
 1525 00f0 08       		.uleb128 0x8
ARM GAS  C:\Users\mark6\AppData\Local\Temp\ccG3DDgg.s 			page 62


 1526 00f1 D5040000 		.4byte	.LASF21
 1527 00f5 01       		.byte	0x1
 1528 00f6 67       		.byte	0x67
 1529 00f7 6B000000 		.4byte	0x6b
 1530 00fb 02       		.uleb128 0x2
 1531 00fc 91       		.byte	0x91
 1532 00fd 77       		.sleb128 -9
 1533 00fe 00       		.byte	0
 1534 00ff 09       		.uleb128 0x9
 1535 0100 C1040000 		.4byte	.LASF20
 1536 0104 01       		.byte	0x1
 1537 0105 4101     		.2byte	0x141
 1538 0107 00000000 		.4byte	.LFB1
 1539 010b 98000000 		.4byte	.LFE1-.LFB1
 1540 010f 01       		.uleb128 0x1
 1541 0110 9C       		.byte	0x9c
 1542 0111 25010000 		.4byte	0x125
 1543 0115 0A       		.uleb128 0xa
 1544 0116 D5040000 		.4byte	.LASF21
 1545 011a 01       		.byte	0x1
 1546 011b 4301     		.2byte	0x143
 1547 011d 6B000000 		.4byte	0x6b
 1548 0121 02       		.uleb128 0x2
 1549 0122 91       		.byte	0x91
 1550 0123 77       		.sleb128 -9
 1551 0124 00       		.byte	0
 1552 0125 0B       		.uleb128 0xb
 1553 0126 AB020000 		.4byte	.LASF22
 1554 012a 01       		.byte	0x1
 1555 012b DA01     		.2byte	0x1da
 1556 012d 00000000 		.4byte	.LFB2
 1557 0131 30000000 		.4byte	.LFE2-.LFB2
 1558 0135 01       		.uleb128 0x1
 1559 0136 9C       		.byte	0x9c
 1560 0137 0B       		.uleb128 0xb
 1561 0138 0E040000 		.4byte	.LASF23
 1562 013c 01       		.byte	0x1
 1563 013d FF01     		.2byte	0x1ff
 1564 013f 00000000 		.4byte	.LFB3
 1565 0143 94000000 		.4byte	.LFE3-.LFB3
 1566 0147 01       		.uleb128 0x1
 1567 0148 9C       		.byte	0x9c
 1568 0149 0C       		.uleb128 0xc
 1569 014a E6040000 		.4byte	.LASF32
 1570 014e 01       		.byte	0x1
 1571 014f 8902     		.2byte	0x289
 1572 0151 6B000000 		.4byte	0x6b
 1573 0155 00000000 		.4byte	.LFB4
 1574 0159 50000000 		.4byte	.LFE4-.LFB4
 1575 015d 01       		.uleb128 0x1
 1576 015e 9C       		.byte	0x9c
 1577 015f 91010000 		.4byte	0x191
 1578 0163 0D       		.uleb128 0xd
 1579 0164 07000000 		.4byte	.LASF26
 1580 0168 01       		.byte	0x1
 1581 0169 8902     		.2byte	0x289
 1582 016b 6B000000 		.4byte	0x6b
ARM GAS  C:\Users\mark6\AppData\Local\Temp\ccG3DDgg.s 			page 63


 1583 016f 02       		.uleb128 0x2
 1584 0170 91       		.byte	0x91
 1585 0171 6F       		.sleb128 -17
 1586 0172 0E       		.uleb128 0xe
 1587 0173 706F7300 		.ascii	"pos\000"
 1588 0177 01       		.byte	0x1
 1589 0178 8B02     		.2byte	0x28b
 1590 017a 6B000000 		.4byte	0x6b
 1591 017e 02       		.uleb128 0x2
 1592 017f 91       		.byte	0x91
 1593 0180 77       		.sleb128 -9
 1594 0181 0A       		.uleb128 0xa
 1595 0182 C8020000 		.4byte	.LASF24
 1596 0186 01       		.byte	0x1
 1597 0187 8C02     		.2byte	0x28c
 1598 0189 6B000000 		.4byte	0x6b
 1599 018d 02       		.uleb128 0x2
 1600 018e 91       		.byte	0x91
 1601 018f 76       		.sleb128 -10
 1602 0190 00       		.byte	0
 1603 0191 09       		.uleb128 0x9
 1604 0192 25040000 		.4byte	.LASF25
 1605 0196 01       		.byte	0x1
 1606 0197 2303     		.2byte	0x323
 1607 0199 00000000 		.4byte	.LFB5
 1608 019d 48000000 		.4byte	.LFE5-.LFB5
 1609 01a1 01       		.uleb128 0x1
 1610 01a2 9C       		.byte	0x9c
 1611 01a3 C6010000 		.4byte	0x1c6
 1612 01a7 0D       		.uleb128 0xd
 1613 01a8 50020000 		.4byte	.LASF27
 1614 01ac 01       		.byte	0x1
 1615 01ad 2303     		.2byte	0x323
 1616 01af 6B000000 		.4byte	0x6b
 1617 01b3 02       		.uleb128 0x2
 1618 01b4 91       		.byte	0x91
 1619 01b5 6F       		.sleb128 -17
 1620 01b6 0A       		.uleb128 0xa
 1621 01b7 C2030000 		.4byte	.LASF28
 1622 01bb 01       		.byte	0x1
 1623 01bc 2503     		.2byte	0x325
 1624 01be 6B000000 		.4byte	0x6b
 1625 01c2 02       		.uleb128 0x2
 1626 01c3 91       		.byte	0x91
 1627 01c4 77       		.sleb128 -9
 1628 01c5 00       		.byte	0
 1629 01c6 09       		.uleb128 0x9
 1630 01c7 6A020000 		.4byte	.LASF29
 1631 01cb 01       		.byte	0x1
 1632 01cc 9303     		.2byte	0x393
 1633 01ce 00000000 		.4byte	.LFB6
 1634 01d2 34000000 		.4byte	.LFE6-.LFB6
 1635 01d6 01       		.uleb128 0x1
 1636 01d7 9C       		.byte	0x9c
 1637 01d8 EC010000 		.4byte	0x1ec
 1638 01dc 0D       		.uleb128 0xd
 1639 01dd 18020000 		.4byte	.LASF30
ARM GAS  C:\Users\mark6\AppData\Local\Temp\ccG3DDgg.s 			page 64


 1640 01e1 01       		.byte	0x1
 1641 01e2 9303     		.2byte	0x393
 1642 01e4 6B000000 		.4byte	0x6b
 1643 01e8 02       		.uleb128 0x2
 1644 01e9 91       		.byte	0x91
 1645 01ea 77       		.sleb128 -9
 1646 01eb 00       		.byte	0
 1647 01ec 0B       		.uleb128 0xb
 1648 01ed 6D010000 		.4byte	.LASF31
 1649 01f1 01       		.byte	0x1
 1650 01f2 E003     		.2byte	0x3e0
 1651 01f4 00000000 		.4byte	.LFB7
 1652 01f8 54000000 		.4byte	.LFE7-.LFB7
 1653 01fc 01       		.uleb128 0x1
 1654 01fd 9C       		.byte	0x9c
 1655 01fe 0F       		.uleb128 0xf
 1656 01ff C9030000 		.4byte	.LASF64
 1657 0203 01       		.byte	0x1
 1658 0204 1504     		.2byte	0x415
 1659 0206 6B000000 		.4byte	0x6b
 1660 020a 00000000 		.4byte	.LFB8
 1661 020e 20000000 		.4byte	.LFE8-.LFB8
 1662 0212 01       		.uleb128 0x1
 1663 0213 9C       		.byte	0x9c
 1664 0214 0C       		.uleb128 0xc
 1665 0215 46040000 		.4byte	.LASF33
 1666 0219 01       		.byte	0x1
 1667 021a 2E04     		.2byte	0x42e
 1668 021c 76000000 		.4byte	0x76
 1669 0220 00000000 		.4byte	.LFB9
 1670 0224 24000000 		.4byte	.LFE9-.LFB9
 1671 0228 01       		.uleb128 0x1
 1672 0229 9C       		.byte	0x9c
 1673 022a 3E020000 		.4byte	0x23e
 1674 022e 0D       		.uleb128 0xd
 1675 022f 18020000 		.4byte	.LASF30
 1676 0233 01       		.byte	0x1
 1677 0234 2E04     		.2byte	0x42e
 1678 0236 6B000000 		.4byte	0x6b
 1679 023a 02       		.uleb128 0x2
 1680 023b 91       		.byte	0x91
 1681 023c 77       		.sleb128 -9
 1682 023d 00       		.byte	0
 1683 023e 09       		.uleb128 0x9
 1684 023f 92010000 		.4byte	.LASF34
 1685 0243 01       		.byte	0x1
 1686 0244 4304     		.2byte	0x443
 1687 0246 00000000 		.4byte	.LFB10
 1688 024a 26000000 		.4byte	.LFE10-.LFB10
 1689 024e 01       		.uleb128 0x1
 1690 024f 9C       		.byte	0x9c
 1691 0250 62020000 		.4byte	0x262
 1692 0254 0E       		.uleb128 0xe
 1693 0255 6900     		.ascii	"i\000"
 1694 0257 01       		.byte	0x1
 1695 0258 4504     		.2byte	0x445
 1696 025a 6B000000 		.4byte	0x6b
ARM GAS  C:\Users\mark6\AppData\Local\Temp\ccG3DDgg.s 			page 65


 1697 025e 02       		.uleb128 0x2
 1698 025f 91       		.byte	0x91
 1699 0260 77       		.sleb128 -9
 1700 0261 00       		.byte	0
 1701 0262 09       		.uleb128 0x9
 1702 0263 88020000 		.4byte	.LASF35
 1703 0267 01       		.byte	0x1
 1704 0268 D904     		.2byte	0x4d9
 1705 026a 00000000 		.4byte	.LFB11
 1706 026e 54000000 		.4byte	.LFE11-.LFB11
 1707 0272 01       		.uleb128 0x1
 1708 0273 9C       		.byte	0x9c
 1709 0274 A6020000 		.4byte	0x2a6
 1710 0278 0D       		.uleb128 0xd
 1711 0279 18020000 		.4byte	.LASF30
 1712 027d 01       		.byte	0x1
 1713 027e D904     		.2byte	0x4d9
 1714 0280 6B000000 		.4byte	0x6b
 1715 0284 02       		.uleb128 0x2
 1716 0285 91       		.byte	0x91
 1717 0286 6F       		.sleb128 -17
 1718 0287 0A       		.uleb128 0xa
 1719 0288 AC010000 		.4byte	.LASF36
 1720 028c 01       		.byte	0x1
 1721 028d DB04     		.2byte	0x4db
 1722 028f 6B000000 		.4byte	0x6b
 1723 0293 02       		.uleb128 0x2
 1724 0294 91       		.byte	0x91
 1725 0295 77       		.sleb128 -9
 1726 0296 0A       		.uleb128 0xa
 1727 0297 8D010000 		.4byte	.LASF37
 1728 029b 01       		.byte	0x1
 1729 029c DC04     		.2byte	0x4dc
 1730 029e 6B000000 		.4byte	0x6b
 1731 02a2 02       		.uleb128 0x2
 1732 02a3 91       		.byte	0x91
 1733 02a4 76       		.sleb128 -10
 1734 02a5 00       		.byte	0
 1735 02a6 09       		.uleb128 0x9
 1736 02a7 1F020000 		.4byte	.LASF38
 1737 02ab 01       		.byte	0x1
 1738 02ac 2E05     		.2byte	0x52e
 1739 02ae 00000000 		.4byte	.LFB12
 1740 02b2 58000000 		.4byte	.LFE12-.LFB12
 1741 02b6 01       		.uleb128 0x1
 1742 02b7 9C       		.byte	0x9c
 1743 02b8 EA020000 		.4byte	0x2ea
 1744 02bc 0D       		.uleb128 0xd
 1745 02bd 18020000 		.4byte	.LASF30
 1746 02c1 01       		.byte	0x1
 1747 02c2 2E05     		.2byte	0x52e
 1748 02c4 6B000000 		.4byte	0x6b
 1749 02c8 02       		.uleb128 0x2
 1750 02c9 91       		.byte	0x91
 1751 02ca 6F       		.sleb128 -17
 1752 02cb 0A       		.uleb128 0xa
 1753 02cc AC010000 		.4byte	.LASF36
ARM GAS  C:\Users\mark6\AppData\Local\Temp\ccG3DDgg.s 			page 66


 1754 02d0 01       		.byte	0x1
 1755 02d1 3005     		.2byte	0x530
 1756 02d3 6B000000 		.4byte	0x6b
 1757 02d7 02       		.uleb128 0x2
 1758 02d8 91       		.byte	0x91
 1759 02d9 77       		.sleb128 -9
 1760 02da 0A       		.uleb128 0xa
 1761 02db 8D010000 		.4byte	.LASF37
 1762 02df 01       		.byte	0x1
 1763 02e0 3105     		.2byte	0x531
 1764 02e2 6B000000 		.4byte	0x6b
 1765 02e6 02       		.uleb128 0x2
 1766 02e7 91       		.byte	0x91
 1767 02e8 76       		.sleb128 -10
 1768 02e9 00       		.byte	0
 1769 02ea 09       		.uleb128 0x9
 1770 02eb B1010000 		.4byte	.LASF39
 1771 02ef 01       		.byte	0x1
 1772 02f0 8205     		.2byte	0x582
 1773 02f2 00000000 		.4byte	.LFB13
 1774 02f6 58000000 		.4byte	.LFE13-.LFB13
 1775 02fa 01       		.uleb128 0x1
 1776 02fb 9C       		.byte	0x9c
 1777 02fc 10030000 		.4byte	0x310
 1778 0300 0D       		.uleb128 0xd
 1779 0301 18020000 		.4byte	.LASF30
 1780 0305 01       		.byte	0x1
 1781 0306 8205     		.2byte	0x582
 1782 0308 6B000000 		.4byte	0x6b
 1783 030c 02       		.uleb128 0x2
 1784 030d 91       		.byte	0x91
 1785 030e 77       		.sleb128 -9
 1786 030f 00       		.byte	0
 1787 0310 09       		.uleb128 0x9
 1788 0311 3A020000 		.4byte	.LASF40
 1789 0315 01       		.byte	0x1
 1790 0316 2A06     		.2byte	0x62a
 1791 0318 00000000 		.4byte	.LFB14
 1792 031c 98000000 		.4byte	.LFE14-.LFB14
 1793 0320 01       		.uleb128 0x1
 1794 0321 9C       		.byte	0x9c
 1795 0322 36030000 		.4byte	0x336
 1796 0326 0D       		.uleb128 0xd
 1797 0327 18020000 		.4byte	.LASF30
 1798 032b 01       		.byte	0x1
 1799 032c 2A06     		.2byte	0x62a
 1800 032e 6B000000 		.4byte	0x6b
 1801 0332 02       		.uleb128 0x2
 1802 0333 91       		.byte	0x91
 1803 0334 77       		.sleb128 -9
 1804 0335 00       		.byte	0
 1805 0336 10       		.uleb128 0x10
 1806 0337 10000000 		.4byte	.LASF41
 1807 033b 01       		.byte	0x1
 1808 033c 3807     		.2byte	0x738
 1809 033e 00000000 		.4byte	.LFB15
 1810 0342 2C000000 		.4byte	.LFE15-.LFB15
ARM GAS  C:\Users\mark6\AppData\Local\Temp\ccG3DDgg.s 			page 67


 1811 0346 01       		.uleb128 0x1
 1812 0347 9C       		.byte	0x9c
 1813 0348 5C030000 		.4byte	0x35c
 1814 034c 0D       		.uleb128 0xd
 1815 034d 81030000 		.4byte	.LASF42
 1816 0351 01       		.byte	0x1
 1817 0352 3807     		.2byte	0x738
 1818 0354 6B000000 		.4byte	0x6b
 1819 0358 02       		.uleb128 0x2
 1820 0359 91       		.byte	0x91
 1821 035a 77       		.sleb128 -9
 1822 035b 00       		.byte	0
 1823 035c 0C       		.uleb128 0xc
 1824 035d 8B030000 		.4byte	.LASF43
 1825 0361 01       		.byte	0x1
 1826 0362 5507     		.2byte	0x755
 1827 0364 6B000000 		.4byte	0x6b
 1828 0368 00000000 		.4byte	.LFB16
 1829 036c 24000000 		.4byte	.LFE16-.LFB16
 1830 0370 01       		.uleb128 0x1
 1831 0371 9C       		.byte	0x9c
 1832 0372 86030000 		.4byte	0x386
 1833 0376 0A       		.uleb128 0xa
 1834 0377 81030000 		.4byte	.LASF42
 1835 037b 01       		.byte	0x1
 1836 037c 5707     		.2byte	0x757
 1837 037e 6B000000 		.4byte	0x6b
 1838 0382 02       		.uleb128 0x2
 1839 0383 91       		.byte	0x91
 1840 0384 77       		.sleb128 -9
 1841 0385 00       		.byte	0
 1842 0386 10       		.uleb128 0x10
 1843 0387 F4030000 		.4byte	.LASF44
 1844 038b 01       		.byte	0x1
 1845 038c 7707     		.2byte	0x777
 1846 038e 00000000 		.4byte	.LFB17
 1847 0392 20000000 		.4byte	.LFE17-.LFB17
 1848 0396 01       		.uleb128 0x1
 1849 0397 9C       		.byte	0x9c
 1850 0398 AC030000 		.4byte	0x3ac
 1851 039c 0D       		.uleb128 0xd
 1852 039d BE020000 		.4byte	.LASF45
 1853 03a1 01       		.byte	0x1
 1854 03a2 7707     		.2byte	0x777
 1855 03a4 6B000000 		.4byte	0x6b
 1856 03a8 02       		.uleb128 0x2
 1857 03a9 91       		.byte	0x91
 1858 03aa 77       		.sleb128 -9
 1859 03ab 00       		.byte	0
 1860 03ac 10       		.uleb128 0x10
 1861 03ad 02050000 		.4byte	.LASF46
 1862 03b1 01       		.byte	0x1
 1863 03b2 9207     		.2byte	0x792
 1864 03b4 00000000 		.4byte	.LFB18
 1865 03b8 40000000 		.4byte	.LFE18-.LFB18
 1866 03bc 01       		.uleb128 0x1
 1867 03bd 9C       		.byte	0x9c
ARM GAS  C:\Users\mark6\AppData\Local\Temp\ccG3DDgg.s 			page 68


 1868 03be D2030000 		.4byte	0x3d2
 1869 03c2 11       		.uleb128 0x11
 1870 03c3 73726300 		.ascii	"src\000"
 1871 03c7 01       		.byte	0x1
 1872 03c8 9207     		.2byte	0x792
 1873 03ca 6B000000 		.4byte	0x6b
 1874 03ce 02       		.uleb128 0x2
 1875 03cf 91       		.byte	0x91
 1876 03d0 77       		.sleb128 -9
 1877 03d1 00       		.byte	0
 1878 03d2 08       		.uleb128 0x8
 1879 03d3 51010000 		.4byte	.LASF47
 1880 03d7 01       		.byte	0x1
 1881 03d8 16       		.byte	0x16
 1882 03d9 6B000000 		.4byte	0x6b
 1883 03dd 05       		.uleb128 0x5
 1884 03de 03       		.byte	0x3
 1885 03df 00000000 		.4byte	CapSense_CSD_initVar
 1886 03e3 12       		.uleb128 0x12
 1887 03e4 E5010000 		.4byte	.LASF48
 1888 03e8 01       		.byte	0x1
 1889 03e9 1E       		.byte	0x1e
 1890 03ea 6B000000 		.4byte	0x6b
 1891 03ee 05       		.uleb128 0x5
 1892 03ef 03       		.byte	0x3
 1893 03f0 00000000 		.4byte	CapSense_CSD_lowLevelTuningDone
 1894 03f4 12       		.uleb128 0x12
 1895 03f5 48050000 		.4byte	.LASF49
 1896 03f9 01       		.byte	0x1
 1897 03fa 19       		.byte	0x19
 1898 03fb AD000000 		.4byte	0xad
 1899 03ff 05       		.uleb128 0x5
 1900 0400 03       		.byte	0x3
 1901 0401 00000000 		.4byte	CapSense_CSD_csv
 1902 0405 12       		.uleb128 0x12
 1903 0406 DB000000 		.4byte	.LASF50
 1904 040a 01       		.byte	0x1
 1905 040b 1A       		.byte	0x1a
 1906 040c AD000000 		.4byte	0xad
 1907 0410 05       		.uleb128 0x5
 1908 0411 03       		.byte	0x3
 1909 0412 00000000 		.4byte	CapSense_CSD_sensorIndex
 1910 0416 13       		.uleb128 0x13
 1911 0417 76000000 		.4byte	0x76
 1912 041b 26040000 		.4byte	0x426
 1913 041f 14       		.uleb128 0x14
 1914 0420 D4000000 		.4byte	0xd4
 1915 0424 00       		.byte	0
 1916 0425 00       		.byte	0
 1917 0426 12       		.uleb128 0x12
 1918 0427 DD030000 		.4byte	.LASF51
 1919 042b 01       		.byte	0x1
 1920 042c 29       		.byte	0x29
 1921 042d 16040000 		.4byte	0x416
 1922 0431 05       		.uleb128 0x5
 1923 0432 03       		.byte	0x3
 1924 0433 00000000 		.4byte	CapSense_CSD_sensorRaw
ARM GAS  C:\Users\mark6\AppData\Local\Temp\ccG3DDgg.s 			page 69


 1925 0437 13       		.uleb128 0x13
 1926 0438 6B000000 		.4byte	0x6b
 1927 043c 47040000 		.4byte	0x447
 1928 0440 14       		.uleb128 0x14
 1929 0441 D4000000 		.4byte	0xd4
 1930 0445 00       		.byte	0
 1931 0446 00       		.byte	0
 1932 0447 12       		.uleb128 0x12
 1933 0448 CF020000 		.4byte	.LASF52
 1934 044c 01       		.byte	0x1
 1935 044d 2B       		.byte	0x2b
 1936 044e 37040000 		.4byte	0x437
 1937 0452 05       		.uleb128 0x5
 1938 0453 03       		.byte	0x3
 1939 0454 00000000 		.4byte	CapSense_CSD_sensorEnableMask
 1940 0458 13       		.uleb128 0x13
 1941 0459 68040000 		.4byte	0x468
 1942 045d 68040000 		.4byte	0x468
 1943 0461 14       		.uleb128 0x14
 1944 0462 D4000000 		.4byte	0xd4
 1945 0466 00       		.byte	0
 1946 0467 00       		.byte	0
 1947 0468 15       		.uleb128 0x15
 1948 0469 04       		.byte	0x4
 1949 046a 6B000000 		.4byte	0x6b
 1950 046e 12       		.uleb128 0x12
 1951 046f 55020000 		.4byte	.LASF53
 1952 0473 01       		.byte	0x1
 1953 0474 2E       		.byte	0x2e
 1954 0475 7F040000 		.4byte	0x47f
 1955 0479 05       		.uleb128 0x5
 1956 047a 03       		.byte	0x3
 1957 047b 00000000 		.4byte	CapSense_CSD_pcTable
 1958 047f 16       		.uleb128 0x16
 1959 0480 58040000 		.4byte	0x458
 1960 0484 12       		.uleb128 0x12
 1961 0485 AA000000 		.4byte	.LASF54
 1962 0489 01       		.byte	0x1
 1963 048a 32       		.byte	0x32
 1964 048b 95040000 		.4byte	0x495
 1965 048f 05       		.uleb128 0x5
 1966 0490 03       		.byte	0x3
 1967 0491 00000000 		.4byte	CapSense_CSD_portTable
 1968 0495 16       		.uleb128 0x16
 1969 0496 37040000 		.4byte	0x437
 1970 049a 12       		.uleb128 0x12
 1971 049b 93000000 		.4byte	.LASF55
 1972 049f 01       		.byte	0x1
 1973 04a0 36       		.byte	0x36
 1974 04a1 AB040000 		.4byte	0x4ab
 1975 04a5 05       		.uleb128 0x5
 1976 04a6 03       		.byte	0x3
 1977 04a7 00000000 		.4byte	CapSense_CSD_maskTable
 1978 04ab 16       		.uleb128 0x16
 1979 04ac 37040000 		.4byte	0x437
 1980 04b0 13       		.uleb128 0x13
 1981 04b1 68040000 		.4byte	0x468
ARM GAS  C:\Users\mark6\AppData\Local\Temp\ccG3DDgg.s 			page 70


 1982 04b5 C0040000 		.4byte	0x4c0
 1983 04b9 14       		.uleb128 0x14
 1984 04ba D4000000 		.4byte	0xd4
 1985 04be 07       		.byte	0x7
 1986 04bf 00       		.byte	0
 1987 04c0 12       		.uleb128 0x12
 1988 04c1 29010000 		.4byte	.LASF56
 1989 04c5 01       		.byte	0x1
 1990 04c6 3A       		.byte	0x3a
 1991 04c7 D1040000 		.4byte	0x4d1
 1992 04cb 05       		.uleb128 0x5
 1993 04cc 03       		.byte	0x3
 1994 04cd 00000000 		.4byte	CapSense_CSD_csTable
 1995 04d1 16       		.uleb128 0x16
 1996 04d2 B0040000 		.4byte	0x4b0
 1997 04d6 12       		.uleb128 0x12
 1998 04d7 A7040000 		.4byte	.LASF57
 1999 04db 01       		.byte	0x1
 2000 04dc 40       		.byte	0x40
 2001 04dd 37040000 		.4byte	0x437
 2002 04e1 05       		.uleb128 0x5
 2003 04e2 03       		.byte	0x3
 2004 04e3 00000000 		.4byte	CapSense_CSD_idacSettings
 2005 04e7 12       		.uleb128 0x12
 2006 04e8 89040000 		.4byte	.LASF58
 2007 04ec 01       		.byte	0x1
 2008 04ed 44       		.byte	0x44
 2009 04ee 37040000 		.4byte	0x437
 2010 04f2 05       		.uleb128 0x5
 2011 04f3 03       		.byte	0x3
 2012 04f4 00000000 		.4byte	CapSense_CSD_widgetResolution
 2013 04f8 12       		.uleb128 0x12
 2014 04f9 27050000 		.4byte	.LASF59
 2015 04fd 01       		.byte	0x1
 2016 04fe 48       		.byte	0x48
 2017 04ff 37040000 		.4byte	0x437
 2018 0503 05       		.uleb128 0x5
 2019 0504 03       		.byte	0x3
 2020 0505 00000000 		.4byte	CapSense_CSD_analogSwitchDivider
 2021 0509 12       		.uleb128 0x12
 2022 050a 0F010000 		.4byte	.LASF60
 2023 050e 01       		.byte	0x1
 2024 050f 49       		.byte	0x49
 2025 0510 1A050000 		.4byte	0x51a
 2026 0514 05       		.uleb128 0x5
 2027 0515 03       		.byte	0x3
 2028 0516 00000000 		.4byte	CapSense_CSD_widgetNumber
 2029 051a 16       		.uleb128 0x16
 2030 051b 37040000 		.4byte	0x437
 2031 051f 00       		.byte	0
 2032              		.section	.debug_abbrev,"",%progbits
 2033              	.Ldebug_abbrev0:
 2034 0000 01       		.uleb128 0x1
 2035 0001 11       		.uleb128 0x11
 2036 0002 01       		.byte	0x1
 2037 0003 25       		.uleb128 0x25
 2038 0004 0E       		.uleb128 0xe
ARM GAS  C:\Users\mark6\AppData\Local\Temp\ccG3DDgg.s 			page 71


 2039 0005 13       		.uleb128 0x13
 2040 0006 0B       		.uleb128 0xb
 2041 0007 03       		.uleb128 0x3
 2042 0008 0E       		.uleb128 0xe
 2043 0009 1B       		.uleb128 0x1b
 2044 000a 0E       		.uleb128 0xe
 2045 000b 55       		.uleb128 0x55
 2046 000c 17       		.uleb128 0x17
 2047 000d 11       		.uleb128 0x11
 2048 000e 01       		.uleb128 0x1
 2049 000f 10       		.uleb128 0x10
 2050 0010 17       		.uleb128 0x17
 2051 0011 00       		.byte	0
 2052 0012 00       		.byte	0
 2053 0013 02       		.uleb128 0x2
 2054 0014 24       		.uleb128 0x24
 2055 0015 00       		.byte	0
 2056 0016 0B       		.uleb128 0xb
 2057 0017 0B       		.uleb128 0xb
 2058 0018 3E       		.uleb128 0x3e
 2059 0019 0B       		.uleb128 0xb
 2060 001a 03       		.uleb128 0x3
 2061 001b 0E       		.uleb128 0xe
 2062 001c 00       		.byte	0
 2063 001d 00       		.byte	0
 2064 001e 03       		.uleb128 0x3
 2065 001f 24       		.uleb128 0x24
 2066 0020 00       		.byte	0
 2067 0021 0B       		.uleb128 0xb
 2068 0022 0B       		.uleb128 0xb
 2069 0023 3E       		.uleb128 0x3e
 2070 0024 0B       		.uleb128 0xb
 2071 0025 03       		.uleb128 0x3
 2072 0026 08       		.uleb128 0x8
 2073 0027 00       		.byte	0
 2074 0028 00       		.byte	0
 2075 0029 04       		.uleb128 0x4
 2076 002a 16       		.uleb128 0x16
 2077 002b 00       		.byte	0
 2078 002c 03       		.uleb128 0x3
 2079 002d 0E       		.uleb128 0xe
 2080 002e 3A       		.uleb128 0x3a
 2081 002f 0B       		.uleb128 0xb
 2082 0030 3B       		.uleb128 0x3b
 2083 0031 0B       		.uleb128 0xb
 2084 0032 49       		.uleb128 0x49
 2085 0033 13       		.uleb128 0x13
 2086 0034 00       		.byte	0
 2087 0035 00       		.byte	0
 2088 0036 05       		.uleb128 0x5
 2089 0037 16       		.uleb128 0x16
 2090 0038 00       		.byte	0
 2091 0039 03       		.uleb128 0x3
 2092 003a 0E       		.uleb128 0xe
 2093 003b 3A       		.uleb128 0x3a
 2094 003c 0B       		.uleb128 0xb
 2095 003d 3B       		.uleb128 0x3b
ARM GAS  C:\Users\mark6\AppData\Local\Temp\ccG3DDgg.s 			page 72


 2096 003e 05       		.uleb128 0x5
 2097 003f 49       		.uleb128 0x49
 2098 0040 13       		.uleb128 0x13
 2099 0041 00       		.byte	0
 2100 0042 00       		.byte	0
 2101 0043 06       		.uleb128 0x6
 2102 0044 35       		.uleb128 0x35
 2103 0045 00       		.byte	0
 2104 0046 49       		.uleb128 0x49
 2105 0047 13       		.uleb128 0x13
 2106 0048 00       		.byte	0
 2107 0049 00       		.byte	0
 2108 004a 07       		.uleb128 0x7
 2109 004b 2E       		.uleb128 0x2e
 2110 004c 01       		.byte	0x1
 2111 004d 3F       		.uleb128 0x3f
 2112 004e 19       		.uleb128 0x19
 2113 004f 03       		.uleb128 0x3
 2114 0050 0E       		.uleb128 0xe
 2115 0051 3A       		.uleb128 0x3a
 2116 0052 0B       		.uleb128 0xb
 2117 0053 3B       		.uleb128 0x3b
 2118 0054 0B       		.uleb128 0xb
 2119 0055 27       		.uleb128 0x27
 2120 0056 19       		.uleb128 0x19
 2121 0057 11       		.uleb128 0x11
 2122 0058 01       		.uleb128 0x1
 2123 0059 12       		.uleb128 0x12
 2124 005a 06       		.uleb128 0x6
 2125 005b 40       		.uleb128 0x40
 2126 005c 18       		.uleb128 0x18
 2127 005d 9642     		.uleb128 0x2116
 2128 005f 19       		.uleb128 0x19
 2129 0060 01       		.uleb128 0x1
 2130 0061 13       		.uleb128 0x13
 2131 0062 00       		.byte	0
 2132 0063 00       		.byte	0
 2133 0064 08       		.uleb128 0x8
 2134 0065 34       		.uleb128 0x34
 2135 0066 00       		.byte	0
 2136 0067 03       		.uleb128 0x3
 2137 0068 0E       		.uleb128 0xe
 2138 0069 3A       		.uleb128 0x3a
 2139 006a 0B       		.uleb128 0xb
 2140 006b 3B       		.uleb128 0x3b
 2141 006c 0B       		.uleb128 0xb
 2142 006d 49       		.uleb128 0x49
 2143 006e 13       		.uleb128 0x13
 2144 006f 02       		.uleb128 0x2
 2145 0070 18       		.uleb128 0x18
 2146 0071 00       		.byte	0
 2147 0072 00       		.byte	0
 2148 0073 09       		.uleb128 0x9
 2149 0074 2E       		.uleb128 0x2e
 2150 0075 01       		.byte	0x1
 2151 0076 3F       		.uleb128 0x3f
 2152 0077 19       		.uleb128 0x19
ARM GAS  C:\Users\mark6\AppData\Local\Temp\ccG3DDgg.s 			page 73


 2153 0078 03       		.uleb128 0x3
 2154 0079 0E       		.uleb128 0xe
 2155 007a 3A       		.uleb128 0x3a
 2156 007b 0B       		.uleb128 0xb
 2157 007c 3B       		.uleb128 0x3b
 2158 007d 05       		.uleb128 0x5
 2159 007e 27       		.uleb128 0x27
 2160 007f 19       		.uleb128 0x19
 2161 0080 11       		.uleb128 0x11
 2162 0081 01       		.uleb128 0x1
 2163 0082 12       		.uleb128 0x12
 2164 0083 06       		.uleb128 0x6
 2165 0084 40       		.uleb128 0x40
 2166 0085 18       		.uleb128 0x18
 2167 0086 9642     		.uleb128 0x2116
 2168 0088 19       		.uleb128 0x19
 2169 0089 01       		.uleb128 0x1
 2170 008a 13       		.uleb128 0x13
 2171 008b 00       		.byte	0
 2172 008c 00       		.byte	0
 2173 008d 0A       		.uleb128 0xa
 2174 008e 34       		.uleb128 0x34
 2175 008f 00       		.byte	0
 2176 0090 03       		.uleb128 0x3
 2177 0091 0E       		.uleb128 0xe
 2178 0092 3A       		.uleb128 0x3a
 2179 0093 0B       		.uleb128 0xb
 2180 0094 3B       		.uleb128 0x3b
 2181 0095 05       		.uleb128 0x5
 2182 0096 49       		.uleb128 0x49
 2183 0097 13       		.uleb128 0x13
 2184 0098 02       		.uleb128 0x2
 2185 0099 18       		.uleb128 0x18
 2186 009a 00       		.byte	0
 2187 009b 00       		.byte	0
 2188 009c 0B       		.uleb128 0xb
 2189 009d 2E       		.uleb128 0x2e
 2190 009e 00       		.byte	0
 2191 009f 3F       		.uleb128 0x3f
 2192 00a0 19       		.uleb128 0x19
 2193 00a1 03       		.uleb128 0x3
 2194 00a2 0E       		.uleb128 0xe
 2195 00a3 3A       		.uleb128 0x3a
 2196 00a4 0B       		.uleb128 0xb
 2197 00a5 3B       		.uleb128 0x3b
 2198 00a6 05       		.uleb128 0x5
 2199 00a7 27       		.uleb128 0x27
 2200 00a8 19       		.uleb128 0x19
 2201 00a9 11       		.uleb128 0x11
 2202 00aa 01       		.uleb128 0x1
 2203 00ab 12       		.uleb128 0x12
 2204 00ac 06       		.uleb128 0x6
 2205 00ad 40       		.uleb128 0x40
 2206 00ae 18       		.uleb128 0x18
 2207 00af 9642     		.uleb128 0x2116
 2208 00b1 19       		.uleb128 0x19
 2209 00b2 00       		.byte	0
ARM GAS  C:\Users\mark6\AppData\Local\Temp\ccG3DDgg.s 			page 74


 2210 00b3 00       		.byte	0
 2211 00b4 0C       		.uleb128 0xc
 2212 00b5 2E       		.uleb128 0x2e
 2213 00b6 01       		.byte	0x1
 2214 00b7 3F       		.uleb128 0x3f
 2215 00b8 19       		.uleb128 0x19
 2216 00b9 03       		.uleb128 0x3
 2217 00ba 0E       		.uleb128 0xe
 2218 00bb 3A       		.uleb128 0x3a
 2219 00bc 0B       		.uleb128 0xb
 2220 00bd 3B       		.uleb128 0x3b
 2221 00be 05       		.uleb128 0x5
 2222 00bf 27       		.uleb128 0x27
 2223 00c0 19       		.uleb128 0x19
 2224 00c1 49       		.uleb128 0x49
 2225 00c2 13       		.uleb128 0x13
 2226 00c3 11       		.uleb128 0x11
 2227 00c4 01       		.uleb128 0x1
 2228 00c5 12       		.uleb128 0x12
 2229 00c6 06       		.uleb128 0x6
 2230 00c7 40       		.uleb128 0x40
 2231 00c8 18       		.uleb128 0x18
 2232 00c9 9742     		.uleb128 0x2117
 2233 00cb 19       		.uleb128 0x19
 2234 00cc 01       		.uleb128 0x1
 2235 00cd 13       		.uleb128 0x13
 2236 00ce 00       		.byte	0
 2237 00cf 00       		.byte	0
 2238 00d0 0D       		.uleb128 0xd
 2239 00d1 05       		.uleb128 0x5
 2240 00d2 00       		.byte	0
 2241 00d3 03       		.uleb128 0x3
 2242 00d4 0E       		.uleb128 0xe
 2243 00d5 3A       		.uleb128 0x3a
 2244 00d6 0B       		.uleb128 0xb
 2245 00d7 3B       		.uleb128 0x3b
 2246 00d8 05       		.uleb128 0x5
 2247 00d9 49       		.uleb128 0x49
 2248 00da 13       		.uleb128 0x13
 2249 00db 02       		.uleb128 0x2
 2250 00dc 18       		.uleb128 0x18
 2251 00dd 00       		.byte	0
 2252 00de 00       		.byte	0
 2253 00df 0E       		.uleb128 0xe
 2254 00e0 34       		.uleb128 0x34
 2255 00e1 00       		.byte	0
 2256 00e2 03       		.uleb128 0x3
 2257 00e3 08       		.uleb128 0x8
 2258 00e4 3A       		.uleb128 0x3a
 2259 00e5 0B       		.uleb128 0xb
 2260 00e6 3B       		.uleb128 0x3b
 2261 00e7 05       		.uleb128 0x5
 2262 00e8 49       		.uleb128 0x49
 2263 00e9 13       		.uleb128 0x13
 2264 00ea 02       		.uleb128 0x2
 2265 00eb 18       		.uleb128 0x18
 2266 00ec 00       		.byte	0
ARM GAS  C:\Users\mark6\AppData\Local\Temp\ccG3DDgg.s 			page 75


 2267 00ed 00       		.byte	0
 2268 00ee 0F       		.uleb128 0xf
 2269 00ef 2E       		.uleb128 0x2e
 2270 00f0 00       		.byte	0
 2271 00f1 3F       		.uleb128 0x3f
 2272 00f2 19       		.uleb128 0x19
 2273 00f3 03       		.uleb128 0x3
 2274 00f4 0E       		.uleb128 0xe
 2275 00f5 3A       		.uleb128 0x3a
 2276 00f6 0B       		.uleb128 0xb
 2277 00f7 3B       		.uleb128 0x3b
 2278 00f8 05       		.uleb128 0x5
 2279 00f9 27       		.uleb128 0x27
 2280 00fa 19       		.uleb128 0x19
 2281 00fb 49       		.uleb128 0x49
 2282 00fc 13       		.uleb128 0x13
 2283 00fd 11       		.uleb128 0x11
 2284 00fe 01       		.uleb128 0x1
 2285 00ff 12       		.uleb128 0x12
 2286 0100 06       		.uleb128 0x6
 2287 0101 40       		.uleb128 0x40
 2288 0102 18       		.uleb128 0x18
 2289 0103 9742     		.uleb128 0x2117
 2290 0105 19       		.uleb128 0x19
 2291 0106 00       		.byte	0
 2292 0107 00       		.byte	0
 2293 0108 10       		.uleb128 0x10
 2294 0109 2E       		.uleb128 0x2e
 2295 010a 01       		.byte	0x1
 2296 010b 3F       		.uleb128 0x3f
 2297 010c 19       		.uleb128 0x19
 2298 010d 03       		.uleb128 0x3
 2299 010e 0E       		.uleb128 0xe
 2300 010f 3A       		.uleb128 0x3a
 2301 0110 0B       		.uleb128 0xb
 2302 0111 3B       		.uleb128 0x3b
 2303 0112 05       		.uleb128 0x5
 2304 0113 27       		.uleb128 0x27
 2305 0114 19       		.uleb128 0x19
 2306 0115 11       		.uleb128 0x11
 2307 0116 01       		.uleb128 0x1
 2308 0117 12       		.uleb128 0x12
 2309 0118 06       		.uleb128 0x6
 2310 0119 40       		.uleb128 0x40
 2311 011a 18       		.uleb128 0x18
 2312 011b 9742     		.uleb128 0x2117
 2313 011d 19       		.uleb128 0x19
 2314 011e 01       		.uleb128 0x1
 2315 011f 13       		.uleb128 0x13
 2316 0120 00       		.byte	0
 2317 0121 00       		.byte	0
 2318 0122 11       		.uleb128 0x11
 2319 0123 05       		.uleb128 0x5
 2320 0124 00       		.byte	0
 2321 0125 03       		.uleb128 0x3
 2322 0126 08       		.uleb128 0x8
 2323 0127 3A       		.uleb128 0x3a
ARM GAS  C:\Users\mark6\AppData\Local\Temp\ccG3DDgg.s 			page 76


 2324 0128 0B       		.uleb128 0xb
 2325 0129 3B       		.uleb128 0x3b
 2326 012a 05       		.uleb128 0x5
 2327 012b 49       		.uleb128 0x49
 2328 012c 13       		.uleb128 0x13
 2329 012d 02       		.uleb128 0x2
 2330 012e 18       		.uleb128 0x18
 2331 012f 00       		.byte	0
 2332 0130 00       		.byte	0
 2333 0131 12       		.uleb128 0x12
 2334 0132 34       		.uleb128 0x34
 2335 0133 00       		.byte	0
 2336 0134 03       		.uleb128 0x3
 2337 0135 0E       		.uleb128 0xe
 2338 0136 3A       		.uleb128 0x3a
 2339 0137 0B       		.uleb128 0xb
 2340 0138 3B       		.uleb128 0x3b
 2341 0139 0B       		.uleb128 0xb
 2342 013a 49       		.uleb128 0x49
 2343 013b 13       		.uleb128 0x13
 2344 013c 3F       		.uleb128 0x3f
 2345 013d 19       		.uleb128 0x19
 2346 013e 02       		.uleb128 0x2
 2347 013f 18       		.uleb128 0x18
 2348 0140 00       		.byte	0
 2349 0141 00       		.byte	0
 2350 0142 13       		.uleb128 0x13
 2351 0143 01       		.uleb128 0x1
 2352 0144 01       		.byte	0x1
 2353 0145 49       		.uleb128 0x49
 2354 0146 13       		.uleb128 0x13
 2355 0147 01       		.uleb128 0x1
 2356 0148 13       		.uleb128 0x13
 2357 0149 00       		.byte	0
 2358 014a 00       		.byte	0
 2359 014b 14       		.uleb128 0x14
 2360 014c 21       		.uleb128 0x21
 2361 014d 00       		.byte	0
 2362 014e 49       		.uleb128 0x49
 2363 014f 13       		.uleb128 0x13
 2364 0150 2F       		.uleb128 0x2f
 2365 0151 0B       		.uleb128 0xb
 2366 0152 00       		.byte	0
 2367 0153 00       		.byte	0
 2368 0154 15       		.uleb128 0x15
 2369 0155 0F       		.uleb128 0xf
 2370 0156 00       		.byte	0
 2371 0157 0B       		.uleb128 0xb
 2372 0158 0B       		.uleb128 0xb
 2373 0159 49       		.uleb128 0x49
 2374 015a 13       		.uleb128 0x13
 2375 015b 00       		.byte	0
 2376 015c 00       		.byte	0
 2377 015d 16       		.uleb128 0x16
 2378 015e 26       		.uleb128 0x26
 2379 015f 00       		.byte	0
 2380 0160 49       		.uleb128 0x49
ARM GAS  C:\Users\mark6\AppData\Local\Temp\ccG3DDgg.s 			page 77


 2381 0161 13       		.uleb128 0x13
 2382 0162 00       		.byte	0
 2383 0163 00       		.byte	0
 2384 0164 00       		.byte	0
 2385              		.section	.debug_aranges,"",%progbits
 2386 0000 AC000000 		.4byte	0xac
 2387 0004 0200     		.2byte	0x2
 2388 0006 00000000 		.4byte	.Ldebug_info0
 2389 000a 04       		.byte	0x4
 2390 000b 00       		.byte	0
 2391 000c 0000     		.2byte	0
 2392 000e 0000     		.2byte	0
 2393 0010 00000000 		.4byte	.LFB0
 2394 0014 48010000 		.4byte	.LFE0-.LFB0
 2395 0018 00000000 		.4byte	.LFB1
 2396 001c 98000000 		.4byte	.LFE1-.LFB1
 2397 0020 00000000 		.4byte	.LFB2
 2398 0024 30000000 		.4byte	.LFE2-.LFB2
 2399 0028 00000000 		.4byte	.LFB3
 2400 002c 94000000 		.4byte	.LFE3-.LFB3
 2401 0030 00000000 		.4byte	.LFB4
 2402 0034 50000000 		.4byte	.LFE4-.LFB4
 2403 0038 00000000 		.4byte	.LFB5
 2404 003c 48000000 		.4byte	.LFE5-.LFB5
 2405 0040 00000000 		.4byte	.LFB6
 2406 0044 34000000 		.4byte	.LFE6-.LFB6
 2407 0048 00000000 		.4byte	.LFB7
 2408 004c 54000000 		.4byte	.LFE7-.LFB7
 2409 0050 00000000 		.4byte	.LFB8
 2410 0054 20000000 		.4byte	.LFE8-.LFB8
 2411 0058 00000000 		.4byte	.LFB9
 2412 005c 24000000 		.4byte	.LFE9-.LFB9
 2413 0060 00000000 		.4byte	.LFB10
 2414 0064 26000000 		.4byte	.LFE10-.LFB10
 2415 0068 00000000 		.4byte	.LFB11
 2416 006c 54000000 		.4byte	.LFE11-.LFB11
 2417 0070 00000000 		.4byte	.LFB12
 2418 0074 58000000 		.4byte	.LFE12-.LFB12
 2419 0078 00000000 		.4byte	.LFB13
 2420 007c 58000000 		.4byte	.LFE13-.LFB13
 2421 0080 00000000 		.4byte	.LFB14
 2422 0084 98000000 		.4byte	.LFE14-.LFB14
 2423 0088 00000000 		.4byte	.LFB15
 2424 008c 2C000000 		.4byte	.LFE15-.LFB15
 2425 0090 00000000 		.4byte	.LFB16
 2426 0094 24000000 		.4byte	.LFE16-.LFB16
 2427 0098 00000000 		.4byte	.LFB17
 2428 009c 20000000 		.4byte	.LFE17-.LFB17
 2429 00a0 00000000 		.4byte	.LFB18
 2430 00a4 40000000 		.4byte	.LFE18-.LFB18
 2431 00a8 00000000 		.4byte	0
 2432 00ac 00000000 		.4byte	0
 2433              		.section	.debug_ranges,"",%progbits
 2434              	.Ldebug_ranges0:
 2435 0000 00000000 		.4byte	.LFB0
 2436 0004 48010000 		.4byte	.LFE0
 2437 0008 00000000 		.4byte	.LFB1
ARM GAS  C:\Users\mark6\AppData\Local\Temp\ccG3DDgg.s 			page 78


 2438 000c 98000000 		.4byte	.LFE1
 2439 0010 00000000 		.4byte	.LFB2
 2440 0014 30000000 		.4byte	.LFE2
 2441 0018 00000000 		.4byte	.LFB3
 2442 001c 94000000 		.4byte	.LFE3
 2443 0020 00000000 		.4byte	.LFB4
 2444 0024 50000000 		.4byte	.LFE4
 2445 0028 00000000 		.4byte	.LFB5
 2446 002c 48000000 		.4byte	.LFE5
 2447 0030 00000000 		.4byte	.LFB6
 2448 0034 34000000 		.4byte	.LFE6
 2449 0038 00000000 		.4byte	.LFB7
 2450 003c 54000000 		.4byte	.LFE7
 2451 0040 00000000 		.4byte	.LFB8
 2452 0044 20000000 		.4byte	.LFE8
 2453 0048 00000000 		.4byte	.LFB9
 2454 004c 24000000 		.4byte	.LFE9
 2455 0050 00000000 		.4byte	.LFB10
 2456 0054 26000000 		.4byte	.LFE10
 2457 0058 00000000 		.4byte	.LFB11
 2458 005c 54000000 		.4byte	.LFE11
 2459 0060 00000000 		.4byte	.LFB12
 2460 0064 58000000 		.4byte	.LFE12
 2461 0068 00000000 		.4byte	.LFB13
 2462 006c 58000000 		.4byte	.LFE13
 2463 0070 00000000 		.4byte	.LFB14
 2464 0074 98000000 		.4byte	.LFE14
 2465 0078 00000000 		.4byte	.LFB15
 2466 007c 2C000000 		.4byte	.LFE15
 2467 0080 00000000 		.4byte	.LFB16
 2468 0084 24000000 		.4byte	.LFE16
 2469 0088 00000000 		.4byte	.LFB17
 2470 008c 20000000 		.4byte	.LFE17
 2471 0090 00000000 		.4byte	.LFB18
 2472 0094 40000000 		.4byte	.LFE18
 2473 0098 00000000 		.4byte	0
 2474 009c 00000000 		.4byte	0
 2475              		.section	.debug_line,"",%progbits
 2476              	.Ldebug_line0:
 2477 0000 59020000 		.section	.debug_str,"MS",%progbits,1
 2477      02004B00 
 2477      00000201 
 2477      FB0E0D00 
 2477      01010101 
 2478              	.LASF10:
 2479 0000 75696E74 		.ascii	"uint16\000"
 2479      313600
 2480              	.LASF26:
 2481 0007 736E7349 		.ascii	"snsIndex\000"
 2481      6E646578 
 2481      00
 2482              	.LASF41:
 2483 0010 43617053 		.ascii	"CapSense_CSD_SetPrescaler\000"
 2483      656E7365 
 2483      5F435344 
 2483      5F536574 
 2483      50726573 
ARM GAS  C:\Users\mark6\AppData\Local\Temp\ccG3DDgg.s 			page 79


 2484              	.LASF7:
 2485 002a 6C6F6E67 		.ascii	"long long unsigned int\000"
 2485      206C6F6E 
 2485      6720756E 
 2485      7369676E 
 2485      65642069 
 2486              	.LASF63:
 2487 0041 433A5C55 		.ascii	"C:\\Users\\mark6\\Google Drive\\College-MIT\\S6Spri"
 2487      73657273 
 2487      5C6D6172 
 2487      6B365C47 
 2487      6F6F676C 
 2488 006f 6E673230 		.ascii	"ng2020\\6.115\\Lab5Kovid2\\RS232.cydsn\000"
 2488      32305C36 
 2488      2E313135 
 2488      5C4C6162 
 2488      354B6F76 
 2489              	.LASF55:
 2490 0093 43617053 		.ascii	"CapSense_CSD_maskTable\000"
 2490      656E7365 
 2490      5F435344 
 2490      5F6D6173 
 2490      6B546162 
 2491              	.LASF54:
 2492 00aa 43617053 		.ascii	"CapSense_CSD_portTable\000"
 2492      656E7365 
 2492      5F435344 
 2492      5F706F72 
 2492      74546162 
 2493              	.LASF6:
 2494 00c1 6C6F6E67 		.ascii	"long long int\000"
 2494      206C6F6E 
 2494      6720696E 
 2494      7400
 2495              	.LASF0:
 2496 00cf 7369676E 		.ascii	"signed char\000"
 2496      65642063 
 2496      68617200 
 2497              	.LASF50:
 2498 00db 43617053 		.ascii	"CapSense_CSD_sensorIndex\000"
 2498      656E7365 
 2498      5F435344 
 2498      5F73656E 
 2498      736F7249 
 2499              	.LASF19:
 2500 00f4 43617053 		.ascii	"CapSense_CSD_Init\000"
 2500      656E7365 
 2500      5F435344 
 2500      5F496E69 
 2500      7400
 2501              	.LASF4:
 2502 0106 6C6F6E67 		.ascii	"long int\000"
 2502      20696E74 
 2502      00
 2503              	.LASF60:
 2504 010f 43617053 		.ascii	"CapSense_CSD_widgetNumber\000"
 2504      656E7365 
ARM GAS  C:\Users\mark6\AppData\Local\Temp\ccG3DDgg.s 			page 80


 2504      5F435344 
 2504      5F776964 
 2504      6765744E 
 2505              	.LASF56:
 2506 0129 43617053 		.ascii	"CapSense_CSD_csTable\000"
 2506      656E7365 
 2506      5F435344 
 2506      5F637354 
 2506      61626C65 
 2507              	.LASF16:
 2508 013e 72656731 		.ascii	"reg16\000"
 2508      3600
 2509              	.LASF9:
 2510 0144 75696E74 		.ascii	"uint8\000"
 2510      3800
 2511              	.LASF13:
 2512 014a 646F7562 		.ascii	"double\000"
 2512      6C6500
 2513              	.LASF47:
 2514 0151 43617053 		.ascii	"CapSense_CSD_initVar\000"
 2514      656E7365 
 2514      5F435344 
 2514      5F696E69 
 2514      74566172 
 2515              	.LASF11:
 2516 0166 75696E74 		.ascii	"uint32\000"
 2516      333200
 2517              	.LASF31:
 2518 016d 43617053 		.ascii	"CapSense_CSD_ScanEnabledWidgets\000"
 2518      656E7365 
 2518      5F435344 
 2518      5F536361 
 2518      6E456E61 
 2519              	.LASF37:
 2520 018d 6D61736B 		.ascii	"mask\000"
 2520      00
 2521              	.LASF34:
 2522 0192 43617053 		.ascii	"CapSense_CSD_ClearSensors\000"
 2522      656E7365 
 2522      5F435344 
 2522      5F436C65 
 2522      61725365 
 2523              	.LASF36:
 2524 01ac 706F7274 		.ascii	"port\000"
 2524      00
 2525              	.LASF39:
 2526 01b1 43617053 		.ascii	"CapSense_CSD_PreScan\000"
 2526      656E7365 
 2526      5F435344 
 2526      5F507265 
 2526      5363616E 
 2527              	.LASF8:
 2528 01c6 756E7369 		.ascii	"unsigned int\000"
 2528      676E6564 
 2528      20696E74 
 2528      00
 2529              	.LASF5:
ARM GAS  C:\Users\mark6\AppData\Local\Temp\ccG3DDgg.s 			page 81


 2530 01d3 6C6F6E67 		.ascii	"long unsigned int\000"
 2530      20756E73 
 2530      69676E65 
 2530      6420696E 
 2530      7400
 2531              	.LASF48:
 2532 01e5 43617053 		.ascii	"CapSense_CSD_lowLevelTuningDone\000"
 2532      656E7365 
 2532      5F435344 
 2532      5F6C6F77 
 2532      4C657665 
 2533              	.LASF3:
 2534 0205 73686F72 		.ascii	"short unsigned int\000"
 2534      7420756E 
 2534      7369676E 
 2534      65642069 
 2534      6E7400
 2535              	.LASF30:
 2536 0218 73656E73 		.ascii	"sensor\000"
 2536      6F7200
 2537              	.LASF38:
 2538 021f 43617053 		.ascii	"CapSense_CSD_DisableSensor\000"
 2538      656E7365 
 2538      5F435344 
 2538      5F446973 
 2538      61626C65 
 2539              	.LASF40:
 2540 023a 43617053 		.ascii	"CapSense_CSD_PostScan\000"
 2540      656E7365 
 2540      5F435344 
 2540      5F506F73 
 2540      74536361 
 2541              	.LASF27:
 2542 0250 736C6F74 		.ascii	"slot\000"
 2542      00
 2543              	.LASF53:
 2544 0255 43617053 		.ascii	"CapSense_CSD_pcTable\000"
 2544      656E7365 
 2544      5F435344 
 2544      5F706354 
 2544      61626C65 
 2545              	.LASF29:
 2546 026a 43617053 		.ascii	"CapSense_CSD_ScanSensor\000"
 2546      656E7365 
 2546      5F435344 
 2546      5F536361 
 2546      6E53656E 
 2547              	.LASF17:
 2548 0282 72656733 		.ascii	"reg32\000"
 2548      3200
 2549              	.LASF35:
 2550 0288 43617053 		.ascii	"CapSense_CSD_EnableSensor\000"
 2550      656E7365 
 2550      5F435344 
 2550      5F456E61 
 2550      626C6553 
 2551              	.LASF18:
ARM GAS  C:\Users\mark6\AppData\Local\Temp\ccG3DDgg.s 			page 82


 2552 02a2 73697A65 		.ascii	"sizetype\000"
 2552      74797065 
 2552      00
 2553              	.LASF22:
 2554 02ab 43617053 		.ascii	"CapSense_CSD_Start\000"
 2554      656E7365 
 2554      5F435344 
 2554      5F537461 
 2554      727400
 2555              	.LASF45:
 2556 02be 7363616E 		.ascii	"scanSpeed\000"
 2556      53706565 
 2556      6400
 2557              	.LASF24:
 2558 02c8 656E4D61 		.ascii	"enMask\000"
 2558      736B00
 2559              	.LASF52:
 2560 02cf 43617053 		.ascii	"CapSense_CSD_sensorEnableMask\000"
 2560      656E7365 
 2560      5F435344 
 2560      5F73656E 
 2560      736F7245 
 2561              	.LASF61:
 2562 02ed 474E5520 		.ascii	"GNU C 4.9.3 20150303 (release) [ARM/embedded-4_9-br"
 2562      4320342E 
 2562      392E3320 
 2562      32303135 
 2562      30333033 
 2563 0320 616E6368 		.ascii	"anch revision 221220] -mcpu=cortex-m3 -mthumb -g -O"
 2563      20726576 
 2563      6973696F 
 2563      6E203232 
 2563      31323230 
 2564 0353 30202D66 		.ascii	"0 -ffunction-sections -ffat-lto-objects\000"
 2564      66756E63 
 2564      74696F6E 
 2564      2D736563 
 2564      74696F6E 
 2565              	.LASF12:
 2566 037b 666C6F61 		.ascii	"float\000"
 2566      7400
 2567              	.LASF42:
 2568 0381 70726573 		.ascii	"prescaler\000"
 2568      63616C65 
 2568      7200
 2569              	.LASF43:
 2570 038b 43617053 		.ascii	"CapSense_CSD_GetPrescaler\000"
 2570      656E7365 
 2570      5F435344 
 2570      5F476574 
 2570      50726573 
 2571              	.LASF15:
 2572 03a5 72656738 		.ascii	"reg8\000"
 2572      00
 2573              	.LASF1:
 2574 03aa 756E7369 		.ascii	"unsigned char\000"
 2574      676E6564 
ARM GAS  C:\Users\mark6\AppData\Local\Temp\ccG3DDgg.s 			page 83


 2574      20636861 
 2574      7200
 2575              	.LASF2:
 2576 03b8 73686F72 		.ascii	"short int\000"
 2576      7420696E 
 2576      7400
 2577              	.LASF28:
 2578 03c2 77696467 		.ascii	"widget\000"
 2578      657400
 2579              	.LASF64:
 2580 03c9 43617053 		.ascii	"CapSense_CSD_IsBusy\000"
 2580      656E7365 
 2580      5F435344 
 2580      5F497342 
 2580      75737900 
 2581              	.LASF51:
 2582 03dd 43617053 		.ascii	"CapSense_CSD_sensorRaw\000"
 2582      656E7365 
 2582      5F435344 
 2582      5F73656E 
 2582      736F7252 
 2583              	.LASF44:
 2584 03f4 43617053 		.ascii	"CapSense_CSD_SetScanSpeed\000"
 2584      656E7365 
 2584      5F435344 
 2584      5F536574 
 2584      5363616E 
 2585              	.LASF23:
 2586 040e 43617053 		.ascii	"CapSense_CSD_Stop\000"
 2586      656E7365 
 2586      5F435344 
 2586      5F53746F 
 2586      7000
 2587              	.LASF14:
 2588 0420 63686172 		.ascii	"char\000"
 2588      00
 2589              	.LASF25:
 2590 0425 43617053 		.ascii	"CapSense_CSD_SetScanSlotSettings\000"
 2590      656E7365 
 2590      5F435344 
 2590      5F536574 
 2590      5363616E 
 2591              	.LASF33:
 2592 0446 43617053 		.ascii	"CapSense_CSD_ReadSensorRaw\000"
 2592      656E7365 
 2592      5F435344 
 2592      5F526561 
 2592      6453656E 
 2593              	.LASF62:
 2594 0461 2E5C4765 		.ascii	".\\Generated_Source\\PSoC5\\CapSense_CSD.c\000"
 2594      6E657261 
 2594      7465645F 
 2594      536F7572 
 2594      63655C50 
 2595              	.LASF58:
 2596 0489 43617053 		.ascii	"CapSense_CSD_widgetResolution\000"
 2596      656E7365 
ARM GAS  C:\Users\mark6\AppData\Local\Temp\ccG3DDgg.s 			page 84


 2596      5F435344 
 2596      5F776964 
 2596      67657452 
 2597              	.LASF57:
 2598 04a7 43617053 		.ascii	"CapSense_CSD_idacSettings\000"
 2598      656E7365 
 2598      5F435344 
 2598      5F696461 
 2598      63536574 
 2599              	.LASF20:
 2600 04c1 43617053 		.ascii	"CapSense_CSD_Enable\000"
 2600      656E7365 
 2600      5F435344 
 2600      5F456E61 
 2600      626C6500 
 2601              	.LASF21:
 2602 04d5 656E6162 		.ascii	"enableInterrupts\000"
 2602      6C65496E 
 2602      74657272 
 2602      75707473 
 2602      00
 2603              	.LASF32:
 2604 04e6 43617053 		.ascii	"CapSense_CSD_FindNextSensor\000"
 2604      656E7365 
 2604      5F435344 
 2604      5F46696E 
 2604      644E6578 
 2605              	.LASF46:
 2606 0502 43617053 		.ascii	"CapSense_CSD_SetAnalogSwitchesSource\000"
 2606      656E7365 
 2606      5F435344 
 2606      5F536574 
 2606      416E616C 
 2607              	.LASF59:
 2608 0527 43617053 		.ascii	"CapSense_CSD_analogSwitchDivider\000"
 2608      656E7365 
 2608      5F435344 
 2608      5F616E61 
 2608      6C6F6753 
 2609              	.LASF49:
 2610 0548 43617053 		.ascii	"CapSense_CSD_csv\000"
 2610      656E7365 
 2610      5F435344 
 2610      5F637376 
 2610      00
 2611              		.ident	"GCC: (GNU Tools for ARM Embedded Processors) 4.9.3 20150303 (release) [ARM/embedded-4_9-br
