ARM GAS  C:\Users\mark6\AppData\Local\Temp\ccRowwUe.s 			page 1


   1              		.syntax unified
   2              		.cpu cortex-m3
   3              		.fpu softvfp
   4              		.eabi_attribute 20, 1
   5              		.eabi_attribute 21, 1
   6              		.eabi_attribute 23, 3
   7              		.eabi_attribute 24, 1
   8              		.eabi_attribute 25, 1
   9              		.eabi_attribute 26, 1
  10              		.eabi_attribute 30, 6
  11              		.eabi_attribute 34, 1
  12              		.eabi_attribute 18, 4
  13              		.thumb
  14              		.file	"CapSense_CSD_CSHL.c"
  15              		.text
  16              	.Ltext0:
  17              		.cfi_sections	.debug_frame
  18              		.comm	CapSense_CSD_rawFilterData1,2,4
  19              		.comm	CapSense_CSD_sensorBaseline,2,4
  20              		.comm	CapSense_CSD_sensorBaselineLow,1,4
  21              		.comm	CapSense_CSD_sensorSignal,1,4
  22              		.comm	CapSense_CSD_sensorOnMask,1,4
  23              		.comm	CapSense_CSD_lowBaselineResetCnt,1,4
  24              		.global	CapSense_CSD_fingerThreshold
  25              		.data
  26              		.align	2
  27              		.type	CapSense_CSD_fingerThreshold, %object
  28              		.size	CapSense_CSD_fingerThreshold, 1
  29              	CapSense_CSD_fingerThreshold:
  30 0000 64       		.byte	100
  31              		.global	CapSense_CSD_noiseThreshold
  32 0001 000000   		.align	2
  33              		.type	CapSense_CSD_noiseThreshold, %object
  34              		.size	CapSense_CSD_noiseThreshold, 1
  35              	CapSense_CSD_noiseThreshold:
  36 0004 14       		.byte	20
  37              		.global	CapSense_CSD_hysteresis
  38 0005 000000   		.align	2
  39              		.type	CapSense_CSD_hysteresis, %object
  40              		.size	CapSense_CSD_hysteresis, 1
  41              	CapSense_CSD_hysteresis:
  42 0008 0A       		.byte	10
  43              		.global	CapSense_CSD_debounce
  44 0009 000000   		.align	2
  45              		.type	CapSense_CSD_debounce, %object
  46              		.size	CapSense_CSD_debounce, 1
  47              	CapSense_CSD_debounce:
  48 000c 01       		.byte	1
  49              		.global	CapSense_CSD_debounceCounter
  50 000d 000000   		.bss
  51              		.align	2
  52              		.type	CapSense_CSD_debounceCounter, %object
  53              		.size	CapSense_CSD_debounceCounter, 2
  54              	CapSense_CSD_debounceCounter:
  55 0000 0000     		.space	2
  56              		.global	CapSense_CSD_rawDataIndex
  57 0002 0000     		.section	.rodata
ARM GAS  C:\Users\mark6\AppData\Local\Temp\ccRowwUe.s 			page 2


  58              		.align	2
  59              		.type	CapSense_CSD_rawDataIndex, %object
  60              		.size	CapSense_CSD_rawDataIndex, 1
  61              	CapSense_CSD_rawDataIndex:
  62 0000 00       		.space	1
  63              		.global	CapSense_CSD_numberOfSensors
  64 0001 000000   		.align	2
  65              		.type	CapSense_CSD_numberOfSensors, %object
  66              		.size	CapSense_CSD_numberOfSensors, 1
  67              	CapSense_CSD_numberOfSensors:
  68 0004 01       		.byte	1
  69 0005 000000   		.section	.text.CapSense_CSD_BaseInit,"ax",%progbits
  70              		.align	2
  71              		.global	CapSense_CSD_BaseInit
  72              		.thumb
  73              		.thumb_func
  74              		.type	CapSense_CSD_BaseInit, %function
  75              	CapSense_CSD_BaseInit:
  76              	.LFB0:
  77              		.file 1 ".\\Generated_Source\\PSoC5\\CapSense_CSD_CSHL.c"
   1:.\Generated_Source\PSoC5/CapSense_CSD_CSHL.c **** /*******************************************************************************
   2:.\Generated_Source\PSoC5/CapSense_CSD_CSHL.c **** * File Name: CapSense_CSD_CSHL.c
   3:.\Generated_Source\PSoC5/CapSense_CSD_CSHL.c **** * Version 3.50
   4:.\Generated_Source\PSoC5/CapSense_CSD_CSHL.c **** *
   5:.\Generated_Source\PSoC5/CapSense_CSD_CSHL.c **** * Description:
   6:.\Generated_Source\PSoC5/CapSense_CSD_CSHL.c **** *  This file provides the source code to the High Level APIs for the CapSesne
   7:.\Generated_Source\PSoC5/CapSense_CSD_CSHL.c **** *  CSD component.
   8:.\Generated_Source\PSoC5/CapSense_CSD_CSHL.c **** *
   9:.\Generated_Source\PSoC5/CapSense_CSD_CSHL.c **** * Note:
  10:.\Generated_Source\PSoC5/CapSense_CSD_CSHL.c **** *
  11:.\Generated_Source\PSoC5/CapSense_CSD_CSHL.c **** ********************************************************************************
  12:.\Generated_Source\PSoC5/CapSense_CSD_CSHL.c **** * Copyright 2008-2013, Cypress Semiconductor Corporation.  All rights reserved.
  13:.\Generated_Source\PSoC5/CapSense_CSD_CSHL.c **** * You may use this file only in accordance with the license, terms, conditions,
  14:.\Generated_Source\PSoC5/CapSense_CSD_CSHL.c **** * disclaimers, and limitations in the end user license agreement accompanying
  15:.\Generated_Source\PSoC5/CapSense_CSD_CSHL.c **** * the software package with which this file was provided.
  16:.\Generated_Source\PSoC5/CapSense_CSD_CSHL.c **** *******************************************************************************/
  17:.\Generated_Source\PSoC5/CapSense_CSD_CSHL.c **** 
  18:.\Generated_Source\PSoC5/CapSense_CSD_CSHL.c **** #include "CapSense_CSD_CSHL.h"
  19:.\Generated_Source\PSoC5/CapSense_CSD_CSHL.c **** 
  20:.\Generated_Source\PSoC5/CapSense_CSD_CSHL.c **** /* Storage of filters data */
  21:.\Generated_Source\PSoC5/CapSense_CSD_CSHL.c **** #if ( (CapSense_CSD_RAW_FILTER_MASK & CapSense_CSD_MEDIAN_FILTER) | \
  22:.\Generated_Source\PSoC5/CapSense_CSD_CSHL.c ****       (CapSense_CSD_RAW_FILTER_MASK & CapSense_CSD_AVERAGING_FILTER) )
  23:.\Generated_Source\PSoC5/CapSense_CSD_CSHL.c **** 
  24:.\Generated_Source\PSoC5/CapSense_CSD_CSHL.c ****     uint16 CapSense_CSD_rawFilterData1[CapSense_CSD_TOTAL_SENSOR_COUNT];
  25:.\Generated_Source\PSoC5/CapSense_CSD_CSHL.c ****     uint16 CapSense_CSD_rawFilterData2[CapSense_CSD_TOTAL_SENSOR_COUNT];
  26:.\Generated_Source\PSoC5/CapSense_CSD_CSHL.c **** 
  27:.\Generated_Source\PSoC5/CapSense_CSD_CSHL.c **** #elif ( (CapSense_CSD_RAW_FILTER_MASK & CapSense_CSD_IIR2_FILTER)   | \
  28:.\Generated_Source\PSoC5/CapSense_CSD_CSHL.c ****         (CapSense_CSD_RAW_FILTER_MASK & CapSense_CSD_IIR4_FILTER)   | \
  29:.\Generated_Source\PSoC5/CapSense_CSD_CSHL.c ****         (CapSense_CSD_RAW_FILTER_MASK & CapSense_CSD_JITTER_FILTER) | \
  30:.\Generated_Source\PSoC5/CapSense_CSD_CSHL.c ****         (CapSense_CSD_RAW_FILTER_MASK & CapSense_CSD_IIR8_FILTER)   | \
  31:.\Generated_Source\PSoC5/CapSense_CSD_CSHL.c ****         (CapSense_CSD_RAW_FILTER_MASK & CapSense_CSD_IIR16_FILTER) )
  32:.\Generated_Source\PSoC5/CapSense_CSD_CSHL.c ****         
  33:.\Generated_Source\PSoC5/CapSense_CSD_CSHL.c ****     uint16 CapSense_CSD_rawFilterData1[CapSense_CSD_TOTAL_SENSOR_COUNT];
  34:.\Generated_Source\PSoC5/CapSense_CSD_CSHL.c **** 
  35:.\Generated_Source\PSoC5/CapSense_CSD_CSHL.c **** #else
  36:.\Generated_Source\PSoC5/CapSense_CSD_CSHL.c ****     /* No Raw filters */
  37:.\Generated_Source\PSoC5/CapSense_CSD_CSHL.c **** #endif  /* ( (CapSense_CSD_RAW_FILTER_MASK & CapSense_CSD_MEDIAN_FILTER) || \
ARM GAS  C:\Users\mark6\AppData\Local\Temp\ccRowwUe.s 			page 3


  38:.\Generated_Source\PSoC5/CapSense_CSD_CSHL.c ****         *    (CapSense_CSD_RAW_FILTER_MASK & CapSense_CSD_AVERAGING_FILTER) )
  39:.\Generated_Source\PSoC5/CapSense_CSD_CSHL.c ****         */
  40:.\Generated_Source\PSoC5/CapSense_CSD_CSHL.c **** 
  41:.\Generated_Source\PSoC5/CapSense_CSD_CSHL.c **** uint16 CapSense_CSD_sensorBaseline[CapSense_CSD_TOTAL_SENSOR_COUNT];
  42:.\Generated_Source\PSoC5/CapSense_CSD_CSHL.c **** uint8 CapSense_CSD_sensorBaselineLow[CapSense_CSD_TOTAL_SENSOR_COUNT];
  43:.\Generated_Source\PSoC5/CapSense_CSD_CSHL.c **** uint8 CapSense_CSD_sensorSignal[CapSense_CSD_TOTAL_SENSOR_COUNT];
  44:.\Generated_Source\PSoC5/CapSense_CSD_CSHL.c **** uint8 CapSense_CSD_sensorOnMask[(((CapSense_CSD_TOTAL_SENSOR_COUNT - 1u) / 8u) + 1u)];
  45:.\Generated_Source\PSoC5/CapSense_CSD_CSHL.c **** 
  46:.\Generated_Source\PSoC5/CapSense_CSD_CSHL.c **** uint8 CapSense_CSD_lowBaselineResetCnt[CapSense_CSD_TOTAL_SENSOR_COUNT];
  47:.\Generated_Source\PSoC5/CapSense_CSD_CSHL.c **** 
  48:.\Generated_Source\PSoC5/CapSense_CSD_CSHL.c **** uint8 CapSense_CSD_fingerThreshold[] = {
  49:.\Generated_Source\PSoC5/CapSense_CSD_CSHL.c ****     100u, 
  50:.\Generated_Source\PSoC5/CapSense_CSD_CSHL.c **** };
  51:.\Generated_Source\PSoC5/CapSense_CSD_CSHL.c **** 
  52:.\Generated_Source\PSoC5/CapSense_CSD_CSHL.c **** uint8 CapSense_CSD_noiseThreshold[] = {
  53:.\Generated_Source\PSoC5/CapSense_CSD_CSHL.c ****     20u, 
  54:.\Generated_Source\PSoC5/CapSense_CSD_CSHL.c **** };
  55:.\Generated_Source\PSoC5/CapSense_CSD_CSHL.c **** 
  56:.\Generated_Source\PSoC5/CapSense_CSD_CSHL.c **** uint8 CapSense_CSD_hysteresis[] = {
  57:.\Generated_Source\PSoC5/CapSense_CSD_CSHL.c ****     10u, 
  58:.\Generated_Source\PSoC5/CapSense_CSD_CSHL.c **** };
  59:.\Generated_Source\PSoC5/CapSense_CSD_CSHL.c **** 
  60:.\Generated_Source\PSoC5/CapSense_CSD_CSHL.c **** uint8 CapSense_CSD_debounce[] = {
  61:.\Generated_Source\PSoC5/CapSense_CSD_CSHL.c ****     1u, 
  62:.\Generated_Source\PSoC5/CapSense_CSD_CSHL.c **** };
  63:.\Generated_Source\PSoC5/CapSense_CSD_CSHL.c **** 
  64:.\Generated_Source\PSoC5/CapSense_CSD_CSHL.c **** uint8 CapSense_CSD_debounceCounter[] = {
  65:.\Generated_Source\PSoC5/CapSense_CSD_CSHL.c ****     0u, 0u, 
  66:.\Generated_Source\PSoC5/CapSense_CSD_CSHL.c **** };
  67:.\Generated_Source\PSoC5/CapSense_CSD_CSHL.c **** 
  68:.\Generated_Source\PSoC5/CapSense_CSD_CSHL.c **** const uint8 CYCODE CapSense_CSD_rawDataIndex[] = {
  69:.\Generated_Source\PSoC5/CapSense_CSD_CSHL.c ****     0u, /* Button0__BTN */
  70:.\Generated_Source\PSoC5/CapSense_CSD_CSHL.c **** 
  71:.\Generated_Source\PSoC5/CapSense_CSD_CSHL.c **** };
  72:.\Generated_Source\PSoC5/CapSense_CSD_CSHL.c **** 
  73:.\Generated_Source\PSoC5/CapSense_CSD_CSHL.c **** const uint8 CYCODE CapSense_CSD_numberOfSensors[] = {
  74:.\Generated_Source\PSoC5/CapSense_CSD_CSHL.c ****     1u, /* Button0__BTN */
  75:.\Generated_Source\PSoC5/CapSense_CSD_CSHL.c **** 
  76:.\Generated_Source\PSoC5/CapSense_CSD_CSHL.c **** };
  77:.\Generated_Source\PSoC5/CapSense_CSD_CSHL.c **** 
  78:.\Generated_Source\PSoC5/CapSense_CSD_CSHL.c **** 
  79:.\Generated_Source\PSoC5/CapSense_CSD_CSHL.c **** 
  80:.\Generated_Source\PSoC5/CapSense_CSD_CSHL.c **** 
  81:.\Generated_Source\PSoC5/CapSense_CSD_CSHL.c **** /*******************************************************************************
  82:.\Generated_Source\PSoC5/CapSense_CSD_CSHL.c **** * Function Name: CapSense_CSD_BaseInit
  83:.\Generated_Source\PSoC5/CapSense_CSD_CSHL.c **** ********************************************************************************
  84:.\Generated_Source\PSoC5/CapSense_CSD_CSHL.c **** *
  85:.\Generated_Source\PSoC5/CapSense_CSD_CSHL.c **** * Summary:
  86:.\Generated_Source\PSoC5/CapSense_CSD_CSHL.c **** *  Loads the CapSense_CSD_sensorBaseline[sensor] array element with an 
  87:.\Generated_Source\PSoC5/CapSense_CSD_CSHL.c **** *  initial value which is equal to raw count value. 
  88:.\Generated_Source\PSoC5/CapSense_CSD_CSHL.c **** *  Resets to zero CapSense_CSD_sensorBaselineLow[sensor] and 
  89:.\Generated_Source\PSoC5/CapSense_CSD_CSHL.c **** *  CapSense_CSD_sensorSignal[sensor] array element.
  90:.\Generated_Source\PSoC5/CapSense_CSD_CSHL.c **** *  Loads CapSense_CSD_debounceCounter[sensor] array element with initial 
  91:.\Generated_Source\PSoC5/CapSense_CSD_CSHL.c **** *  value equal CapSense_CSD_debounce[].
  92:.\Generated_Source\PSoC5/CapSense_CSD_CSHL.c **** *  Loads the CapSense_CSD_rawFilterData2[sensor] and 
  93:.\Generated_Source\PSoC5/CapSense_CSD_CSHL.c **** *  CapSense_CSD_rawFilterData2[sensor] array element with an 
  94:.\Generated_Source\PSoC5/CapSense_CSD_CSHL.c **** *  initial value which is equal raw count value if raw data filter is enabled.
ARM GAS  C:\Users\mark6\AppData\Local\Temp\ccRowwUe.s 			page 4


  95:.\Generated_Source\PSoC5/CapSense_CSD_CSHL.c **** *
  96:.\Generated_Source\PSoC5/CapSense_CSD_CSHL.c **** * Parameters:
  97:.\Generated_Source\PSoC5/CapSense_CSD_CSHL.c **** *  sensor:  Sensor number.
  98:.\Generated_Source\PSoC5/CapSense_CSD_CSHL.c **** *
  99:.\Generated_Source\PSoC5/CapSense_CSD_CSHL.c **** * Return:
 100:.\Generated_Source\PSoC5/CapSense_CSD_CSHL.c **** *  None
 101:.\Generated_Source\PSoC5/CapSense_CSD_CSHL.c **** *
 102:.\Generated_Source\PSoC5/CapSense_CSD_CSHL.c **** * Global Variables:
 103:.\Generated_Source\PSoC5/CapSense_CSD_CSHL.c **** *  CapSense_CSD_sensorBaseline[]    - used to store baseline value.
 104:.\Generated_Source\PSoC5/CapSense_CSD_CSHL.c **** *  CapSense_CSD_sensorBaselineLow[] - used to store fraction byte of 
 105:.\Generated_Source\PSoC5/CapSense_CSD_CSHL.c **** *  baseline value.
 106:.\Generated_Source\PSoC5/CapSense_CSD_CSHL.c **** *  CapSense_CSD_sensorSignal[]      - used to store diffence between 
 107:.\Generated_Source\PSoC5/CapSense_CSD_CSHL.c **** *  current value of raw data and previous value of baseline.
 108:.\Generated_Source\PSoC5/CapSense_CSD_CSHL.c **** *  CapSense_CSD_debounceCounter[]   - used to store current debounce 
 109:.\Generated_Source\PSoC5/CapSense_CSD_CSHL.c **** *  counter of sensor. Widget which has this parameter are buttons, matrix 
 110:.\Generated_Source\PSoC5/CapSense_CSD_CSHL.c **** *  buttons, proximity, guard. All other widgets haven't debounce parameter
 111:.\Generated_Source\PSoC5/CapSense_CSD_CSHL.c **** *  and use the last element of this array with value 0 (it means no debounce).
 112:.\Generated_Source\PSoC5/CapSense_CSD_CSHL.c **** *  CapSense_CSD_rawFilterData1[]    - used to store previous sample of 
 113:.\Generated_Source\PSoC5/CapSense_CSD_CSHL.c **** *  any enabled raw data filter.
 114:.\Generated_Source\PSoC5/CapSense_CSD_CSHL.c **** *  CapSense_CSD_rawFilterData2[]    - used to store before previous sample
 115:.\Generated_Source\PSoC5/CapSense_CSD_CSHL.c **** *  of enabled raw data filter. Only required for median or average filters.
 116:.\Generated_Source\PSoC5/CapSense_CSD_CSHL.c **** *
 117:.\Generated_Source\PSoC5/CapSense_CSD_CSHL.c **** * Reentrant:
 118:.\Generated_Source\PSoC5/CapSense_CSD_CSHL.c **** *  No
 119:.\Generated_Source\PSoC5/CapSense_CSD_CSHL.c **** *
 120:.\Generated_Source\PSoC5/CapSense_CSD_CSHL.c **** *******************************************************************************/
 121:.\Generated_Source\PSoC5/CapSense_CSD_CSHL.c **** void CapSense_CSD_BaseInit(uint8 sensor) 
 122:.\Generated_Source\PSoC5/CapSense_CSD_CSHL.c **** {
  78              		.loc 1 122 0
  79              		.cfi_startproc
  80              		@ args = 0, pretend = 0, frame = 16
  81              		@ frame_needed = 1, uses_anonymous_args = 0
  82              		@ link register save eliminated.
  83 0000 80B4     		push	{r7}
  84              		.cfi_def_cfa_offset 4
  85              		.cfi_offset 7, -4
  86 0002 85B0     		sub	sp, sp, #20
  87              		.cfi_def_cfa_offset 24
  88 0004 00AF     		add	r7, sp, #0
  89              		.cfi_def_cfa_register 7
  90 0006 0346     		mov	r3, r0
  91 0008 FB71     		strb	r3, [r7, #7]
 123:.\Generated_Source\PSoC5/CapSense_CSD_CSHL.c ****     #if ((CapSense_CSD_TOTAL_BUTTONS_COUNT) || (CapSense_CSD_TOTAL_MATRIX_BUTTONS_COUNT) || \
 124:.\Generated_Source\PSoC5/CapSense_CSD_CSHL.c ****          (CapSense_CSD_TOTAL_GENERICS_COUNT))
 125:.\Generated_Source\PSoC5/CapSense_CSD_CSHL.c ****         uint8 widget = CapSense_CSD_widgetNumber[sensor];
  92              		.loc 1 125 0
  93 000a FB79     		ldrb	r3, [r7, #7]	@ zero_extendqisi2
  94 000c 124A     		ldr	r2, .L2
  95 000e D35C     		ldrb	r3, [r2, r3]
  96 0010 FB73     		strb	r3, [r7, #15]
 126:.\Generated_Source\PSoC5/CapSense_CSD_CSHL.c ****     #endif /* ((CapSense_CSD_TOTAL_MATRIX_BUTTONS_COUNT) || (CapSense_CSD_TOTAL_MATRIX_BUTTONS_COUN
 127:.\Generated_Source\PSoC5/CapSense_CSD_CSHL.c ****     
 128:.\Generated_Source\PSoC5/CapSense_CSD_CSHL.c ****     #if (CapSense_CSD_TOTAL_MATRIX_BUTTONS_COUNT)
 129:.\Generated_Source\PSoC5/CapSense_CSD_CSHL.c ****         uint8 debounceIndex;
 130:.\Generated_Source\PSoC5/CapSense_CSD_CSHL.c ****     #endif  /* (CapSense_CSD_TOTAL_MATRIX_BUTTONS_COUNT) */
 131:.\Generated_Source\PSoC5/CapSense_CSD_CSHL.c ****     
 132:.\Generated_Source\PSoC5/CapSense_CSD_CSHL.c ****     #if (CapSense_CSD_TOTAL_GENERICS_COUNT)
ARM GAS  C:\Users\mark6\AppData\Local\Temp\ccRowwUe.s 			page 5


 133:.\Generated_Source\PSoC5/CapSense_CSD_CSHL.c ****         /* Exclude generic widget */
 134:.\Generated_Source\PSoC5/CapSense_CSD_CSHL.c ****         if(widget < CapSense_CSD_END_OF_WIDGETS_INDEX)
 135:.\Generated_Source\PSoC5/CapSense_CSD_CSHL.c ****         {
 136:.\Generated_Source\PSoC5/CapSense_CSD_CSHL.c ****     #endif  /* CapSense_CSD_TOTAL_GENERICS_COUNT */
 137:.\Generated_Source\PSoC5/CapSense_CSD_CSHL.c ****     
 138:.\Generated_Source\PSoC5/CapSense_CSD_CSHL.c ****     /* Initialize Baseline */
 139:.\Generated_Source\PSoC5/CapSense_CSD_CSHL.c ****     CapSense_CSD_sensorBaseline[sensor] = CapSense_CSD_sensorRaw[sensor];
  97              		.loc 1 139 0
  98 0012 FB79     		ldrb	r3, [r7, #7]	@ zero_extendqisi2
  99 0014 FA79     		ldrb	r2, [r7, #7]	@ zero_extendqisi2
 100 0016 1149     		ldr	r1, .L2+4
 101 0018 31F81210 		ldrh	r1, [r1, r2, lsl #1]
 102 001c 104A     		ldr	r2, .L2+8
 103 001e 22F81310 		strh	r1, [r2, r3, lsl #1]	@ movhi
 140:.\Generated_Source\PSoC5/CapSense_CSD_CSHL.c ****     CapSense_CSD_sensorBaselineLow[sensor] = 0u;
 104              		.loc 1 140 0
 105 0022 FB79     		ldrb	r3, [r7, #7]	@ zero_extendqisi2
 106 0024 0F4A     		ldr	r2, .L2+12
 107 0026 0021     		movs	r1, #0
 108 0028 D154     		strb	r1, [r2, r3]
 141:.\Generated_Source\PSoC5/CapSense_CSD_CSHL.c ****     CapSense_CSD_sensorSignal[sensor] = 0u;
 109              		.loc 1 141 0
 110 002a FB79     		ldrb	r3, [r7, #7]	@ zero_extendqisi2
 111 002c 0E4A     		ldr	r2, .L2+16
 112 002e 0021     		movs	r1, #0
 113 0030 D154     		strb	r1, [r2, r3]
 142:.\Generated_Source\PSoC5/CapSense_CSD_CSHL.c ****         
 143:.\Generated_Source\PSoC5/CapSense_CSD_CSHL.c ****     CapSense_CSD_debounceCounter[widget] =  CapSense_CSD_debounce[widget];
 114              		.loc 1 143 0
 115 0032 FB7B     		ldrb	r3, [r7, #15]	@ zero_extendqisi2
 116 0034 FA7B     		ldrb	r2, [r7, #15]	@ zero_extendqisi2
 117 0036 0D49     		ldr	r1, .L2+20
 118 0038 895C     		ldrb	r1, [r1, r2]	@ zero_extendqisi2
 119 003a 0D4A     		ldr	r2, .L2+24
 120 003c D154     		strb	r1, [r2, r3]
 144:.\Generated_Source\PSoC5/CapSense_CSD_CSHL.c **** 
 145:.\Generated_Source\PSoC5/CapSense_CSD_CSHL.c ****     
 146:.\Generated_Source\PSoC5/CapSense_CSD_CSHL.c ****     #if ((CapSense_CSD_RAW_FILTER_MASK & CapSense_CSD_MEDIAN_FILTER) |\
 147:.\Generated_Source\PSoC5/CapSense_CSD_CSHL.c ****          (CapSense_CSD_RAW_FILTER_MASK & CapSense_CSD_AVERAGING_FILTER))
 148:.\Generated_Source\PSoC5/CapSense_CSD_CSHL.c **** 
 149:.\Generated_Source\PSoC5/CapSense_CSD_CSHL.c ****         CapSense_CSD_rawFilterData1[sensor] = CapSense_CSD_sensorRaw[sensor];
 150:.\Generated_Source\PSoC5/CapSense_CSD_CSHL.c ****         CapSense_CSD_rawFilterData2[sensor] = CapSense_CSD_sensorRaw[sensor];
 151:.\Generated_Source\PSoC5/CapSense_CSD_CSHL.c ****     
 152:.\Generated_Source\PSoC5/CapSense_CSD_CSHL.c ****     #elif ((CapSense_CSD_RAW_FILTER_MASK & CapSense_CSD_IIR2_FILTER) |\
 153:.\Generated_Source\PSoC5/CapSense_CSD_CSHL.c ****            (CapSense_CSD_RAW_FILTER_MASK & CapSense_CSD_IIR4_FILTER) |\
 154:.\Generated_Source\PSoC5/CapSense_CSD_CSHL.c ****            (CapSense_CSD_RAW_FILTER_MASK & CapSense_CSD_JITTER_FILTER) |\
 155:.\Generated_Source\PSoC5/CapSense_CSD_CSHL.c ****            (CapSense_CSD_RAW_FILTER_MASK & CapSense_CSD_IIR8_FILTER) |\
 156:.\Generated_Source\PSoC5/CapSense_CSD_CSHL.c ****            (CapSense_CSD_RAW_FILTER_MASK & CapSense_CSD_IIR16_FILTER))
 157:.\Generated_Source\PSoC5/CapSense_CSD_CSHL.c ****             
 158:.\Generated_Source\PSoC5/CapSense_CSD_CSHL.c ****         CapSense_CSD_rawFilterData1[sensor] = CapSense_CSD_sensorRaw[sensor];
 121              		.loc 1 158 0
 122 003e FB79     		ldrb	r3, [r7, #7]	@ zero_extendqisi2
 123 0040 FA79     		ldrb	r2, [r7, #7]	@ zero_extendqisi2
 124 0042 0649     		ldr	r1, .L2+4
 125 0044 31F81210 		ldrh	r1, [r1, r2, lsl #1]
 126 0048 0A4A     		ldr	r2, .L2+28
 127 004a 22F81310 		strh	r1, [r2, r3, lsl #1]	@ movhi
ARM GAS  C:\Users\mark6\AppData\Local\Temp\ccRowwUe.s 			page 6


 159:.\Generated_Source\PSoC5/CapSense_CSD_CSHL.c ****     
 160:.\Generated_Source\PSoC5/CapSense_CSD_CSHL.c ****     #else
 161:.\Generated_Source\PSoC5/CapSense_CSD_CSHL.c ****         /* No Raw filters */
 162:.\Generated_Source\PSoC5/CapSense_CSD_CSHL.c ****     #endif  /* ((CapSense_CSD_RAW_FILTER_MASK & CapSense_CSD_MEDIAN_FILTER) | \
 163:.\Generated_Source\PSoC5/CapSense_CSD_CSHL.c ****             *   (CapSense_CSD_RAW_FILTER_MASK & CapSense_CSD_AVERAGING_FILTER))
 164:.\Generated_Source\PSoC5/CapSense_CSD_CSHL.c ****             */
 165:.\Generated_Source\PSoC5/CapSense_CSD_CSHL.c ****     
 166:.\Generated_Source\PSoC5/CapSense_CSD_CSHL.c ****     #if (CapSense_CSD_TOTAL_GENERICS_COUNT)
 167:.\Generated_Source\PSoC5/CapSense_CSD_CSHL.c ****         /* Exclude generic widget */
 168:.\Generated_Source\PSoC5/CapSense_CSD_CSHL.c ****         }
 169:.\Generated_Source\PSoC5/CapSense_CSD_CSHL.c ****     #endif  /* CapSense_CSD_TOTAL_GENERICS_COUNT */
 170:.\Generated_Source\PSoC5/CapSense_CSD_CSHL.c **** }
 128              		.loc 1 170 0
 129 004e 1437     		adds	r7, r7, #20
 130              		.cfi_def_cfa_offset 4
 131 0050 BD46     		mov	sp, r7
 132              		.cfi_def_cfa_register 13
 133              		@ sp needed
 134 0052 5DF8047B 		ldr	r7, [sp], #4
 135              		.cfi_restore 7
 136              		.cfi_def_cfa_offset 0
 137 0056 7047     		bx	lr
 138              	.L3:
 139              		.align	2
 140              	.L2:
 141 0058 00000000 		.word	CapSense_CSD_widgetNumber
 142 005c 00000000 		.word	CapSense_CSD_sensorRaw
 143 0060 00000000 		.word	CapSense_CSD_sensorBaseline
 144 0064 00000000 		.word	CapSense_CSD_sensorBaselineLow
 145 0068 00000000 		.word	CapSense_CSD_sensorSignal
 146 006c 00000000 		.word	CapSense_CSD_debounce
 147 0070 00000000 		.word	CapSense_CSD_debounceCounter
 148 0074 00000000 		.word	CapSense_CSD_rawFilterData1
 149              		.cfi_endproc
 150              	.LFE0:
 151              		.size	CapSense_CSD_BaseInit, .-CapSense_CSD_BaseInit
 152              		.section	.text.CapSense_CSD_InitializeSensorBaseline,"ax",%progbits
 153              		.align	2
 154              		.global	CapSense_CSD_InitializeSensorBaseline
 155              		.thumb
 156              		.thumb_func
 157              		.type	CapSense_CSD_InitializeSensorBaseline, %function
 158              	CapSense_CSD_InitializeSensorBaseline:
 159              	.LFB1:
 171:.\Generated_Source\PSoC5/CapSense_CSD_CSHL.c **** 
 172:.\Generated_Source\PSoC5/CapSense_CSD_CSHL.c **** 
 173:.\Generated_Source\PSoC5/CapSense_CSD_CSHL.c **** /*******************************************************************************
 174:.\Generated_Source\PSoC5/CapSense_CSD_CSHL.c **** * Function Name: CapSense_CSD_InitializeSensorBaseline
 175:.\Generated_Source\PSoC5/CapSense_CSD_CSHL.c **** ********************************************************************************
 176:.\Generated_Source\PSoC5/CapSense_CSD_CSHL.c **** *
 177:.\Generated_Source\PSoC5/CapSense_CSD_CSHL.c **** * Summary:
 178:.\Generated_Source\PSoC5/CapSense_CSD_CSHL.c **** *  Loads the CapSense_CSD_sensorBaseline[sensor] array element with an 
 179:.\Generated_Source\PSoC5/CapSense_CSD_CSHL.c **** *  initial value by scanning the selected sensor (one channel design) or pair 
 180:.\Generated_Source\PSoC5/CapSense_CSD_CSHL.c **** *  of sensors (two channels designs). The raw count value is copied into the 
 181:.\Generated_Source\PSoC5/CapSense_CSD_CSHL.c **** *  baseline array for each sensor. The raw data filters are initialized if 
 182:.\Generated_Source\PSoC5/CapSense_CSD_CSHL.c **** *  enabled.
 183:.\Generated_Source\PSoC5/CapSense_CSD_CSHL.c **** *
ARM GAS  C:\Users\mark6\AppData\Local\Temp\ccRowwUe.s 			page 7


 184:.\Generated_Source\PSoC5/CapSense_CSD_CSHL.c **** * Parameters:
 185:.\Generated_Source\PSoC5/CapSense_CSD_CSHL.c **** *  sensor:  Sensor number.
 186:.\Generated_Source\PSoC5/CapSense_CSD_CSHL.c **** *
 187:.\Generated_Source\PSoC5/CapSense_CSD_CSHL.c **** * Return:
 188:.\Generated_Source\PSoC5/CapSense_CSD_CSHL.c **** *  None
 189:.\Generated_Source\PSoC5/CapSense_CSD_CSHL.c **** *
 190:.\Generated_Source\PSoC5/CapSense_CSD_CSHL.c **** * Reentrant:
 191:.\Generated_Source\PSoC5/CapSense_CSD_CSHL.c **** *  No
 192:.\Generated_Source\PSoC5/CapSense_CSD_CSHL.c **** *
 193:.\Generated_Source\PSoC5/CapSense_CSD_CSHL.c **** *******************************************************************************/
 194:.\Generated_Source\PSoC5/CapSense_CSD_CSHL.c **** void CapSense_CSD_InitializeSensorBaseline(uint8 sensor)
 195:.\Generated_Source\PSoC5/CapSense_CSD_CSHL.c ****                           
 196:.\Generated_Source\PSoC5/CapSense_CSD_CSHL.c **** {
 160              		.loc 1 196 0
 161              		.cfi_startproc
 162              		@ args = 0, pretend = 0, frame = 8
 163              		@ frame_needed = 1, uses_anonymous_args = 0
 164 0000 80B5     		push	{r7, lr}
 165              		.cfi_def_cfa_offset 8
 166              		.cfi_offset 7, -8
 167              		.cfi_offset 14, -4
 168 0002 82B0     		sub	sp, sp, #8
 169              		.cfi_def_cfa_offset 16
 170 0004 00AF     		add	r7, sp, #0
 171              		.cfi_def_cfa_register 7
 172 0006 0346     		mov	r3, r0
 173 0008 FB71     		strb	r3, [r7, #7]
 197:.\Generated_Source\PSoC5/CapSense_CSD_CSHL.c ****     /* Scan sensor */
 198:.\Generated_Source\PSoC5/CapSense_CSD_CSHL.c ****     CapSense_CSD_ScanSensor(sensor);
 174              		.loc 1 198 0
 175 000a FB79     		ldrb	r3, [r7, #7]	@ zero_extendqisi2
 176 000c 1846     		mov	r0, r3
 177 000e FFF7FEFF 		bl	CapSense_CSD_ScanSensor
 199:.\Generated_Source\PSoC5/CapSense_CSD_CSHL.c ****     while(CapSense_CSD_IsBusy() != 0u)
 178              		.loc 1 199 0
 179 0012 00BF     		nop
 180              	.L5:
 181              		.loc 1 199 0 is_stmt 0 discriminator 1
 182 0014 FFF7FEFF 		bl	CapSense_CSD_IsBusy
 183 0018 0346     		mov	r3, r0
 184 001a 002B     		cmp	r3, #0
 185 001c FAD1     		bne	.L5
 200:.\Generated_Source\PSoC5/CapSense_CSD_CSHL.c ****     {
 201:.\Generated_Source\PSoC5/CapSense_CSD_CSHL.c ****         /* Wait while busy */
 202:.\Generated_Source\PSoC5/CapSense_CSD_CSHL.c ****     }
 203:.\Generated_Source\PSoC5/CapSense_CSD_CSHL.c ****     
 204:.\Generated_Source\PSoC5/CapSense_CSD_CSHL.c ****     #if (CapSense_CSD_DESIGN_TYPE == CapSense_CSD_ONE_CHANNEL_DESIGN)
 205:.\Generated_Source\PSoC5/CapSense_CSD_CSHL.c ****         /* Initialize Baseline, Signal and debounce counters */       
 206:.\Generated_Source\PSoC5/CapSense_CSD_CSHL.c ****         CapSense_CSD_BaseInit(sensor);
 186              		.loc 1 206 0 is_stmt 1
 187 001e FB79     		ldrb	r3, [r7, #7]	@ zero_extendqisi2
 188 0020 1846     		mov	r0, r3
 189 0022 FFF7FEFF 		bl	CapSense_CSD_BaseInit
 207:.\Generated_Source\PSoC5/CapSense_CSD_CSHL.c ****         
 208:.\Generated_Source\PSoC5/CapSense_CSD_CSHL.c ****     #else
 209:.\Generated_Source\PSoC5/CapSense_CSD_CSHL.c ****     
 210:.\Generated_Source\PSoC5/CapSense_CSD_CSHL.c ****         if(sensor < CapSense_CSD_TOTAL_SENSOR_COUNT__CH0)
ARM GAS  C:\Users\mark6\AppData\Local\Temp\ccRowwUe.s 			page 8


 211:.\Generated_Source\PSoC5/CapSense_CSD_CSHL.c ****         {
 212:.\Generated_Source\PSoC5/CapSense_CSD_CSHL.c ****             /* Initialize Baseline, Signal and debounce counters */ 
 213:.\Generated_Source\PSoC5/CapSense_CSD_CSHL.c ****             CapSense_CSD_BaseInit(sensor);
 214:.\Generated_Source\PSoC5/CapSense_CSD_CSHL.c ****         }
 215:.\Generated_Source\PSoC5/CapSense_CSD_CSHL.c ****         
 216:.\Generated_Source\PSoC5/CapSense_CSD_CSHL.c ****         if(sensor < CapSense_CSD_TOTAL_SENSOR_COUNT__CH1)
 217:.\Generated_Source\PSoC5/CapSense_CSD_CSHL.c ****         {
 218:.\Generated_Source\PSoC5/CapSense_CSD_CSHL.c ****             /* Initialize Baseline, Signal and debounce counters */
 219:.\Generated_Source\PSoC5/CapSense_CSD_CSHL.c ****             CapSense_CSD_BaseInit(sensor + CapSense_CSD_TOTAL_SENSOR_COUNT__CH0);
 220:.\Generated_Source\PSoC5/CapSense_CSD_CSHL.c ****         }
 221:.\Generated_Source\PSoC5/CapSense_CSD_CSHL.c ****     
 222:.\Generated_Source\PSoC5/CapSense_CSD_CSHL.c ****     #endif  /* (CapSense_CSD_DESIGN_TYPE == CapSense_CSD_ONE_CHANNEL_DESIGN) */
 223:.\Generated_Source\PSoC5/CapSense_CSD_CSHL.c **** }
 190              		.loc 1 223 0
 191 0026 0837     		adds	r7, r7, #8
 192              		.cfi_def_cfa_offset 8
 193 0028 BD46     		mov	sp, r7
 194              		.cfi_def_cfa_register 13
 195              		@ sp needed
 196 002a 80BD     		pop	{r7, pc}
 197              		.cfi_endproc
 198              	.LFE1:
 199              		.size	CapSense_CSD_InitializeSensorBaseline, .-CapSense_CSD_InitializeSensorBaseline
 200              		.section	.text.CapSense_CSD_InitializeAllBaselines,"ax",%progbits
 201              		.align	2
 202              		.global	CapSense_CSD_InitializeAllBaselines
 203              		.thumb
 204              		.thumb_func
 205              		.type	CapSense_CSD_InitializeAllBaselines, %function
 206              	CapSense_CSD_InitializeAllBaselines:
 207              	.LFB2:
 224:.\Generated_Source\PSoC5/CapSense_CSD_CSHL.c **** 
 225:.\Generated_Source\PSoC5/CapSense_CSD_CSHL.c **** 
 226:.\Generated_Source\PSoC5/CapSense_CSD_CSHL.c **** /*******************************************************************************
 227:.\Generated_Source\PSoC5/CapSense_CSD_CSHL.c **** * Function Name: CapSense_CSD_InitializeAllBaselines
 228:.\Generated_Source\PSoC5/CapSense_CSD_CSHL.c **** ********************************************************************************
 229:.\Generated_Source\PSoC5/CapSense_CSD_CSHL.c **** *
 230:.\Generated_Source\PSoC5/CapSense_CSD_CSHL.c **** * Summary:
 231:.\Generated_Source\PSoC5/CapSense_CSD_CSHL.c **** *  Uses the CapSense_CSD_InitializeSensorBaseline function to loads the 
 232:.\Generated_Source\PSoC5/CapSense_CSD_CSHL.c **** *  CapSense_CSD_sensorBaseline[] array with an initial values by scanning 
 233:.\Generated_Source\PSoC5/CapSense_CSD_CSHL.c **** *  all sensors. The raw count values are copied into the baseline array for 
 234:.\Generated_Source\PSoC5/CapSense_CSD_CSHL.c **** *  all sensors. The raw data filters are initialized if enabled.
 235:.\Generated_Source\PSoC5/CapSense_CSD_CSHL.c **** *
 236:.\Generated_Source\PSoC5/CapSense_CSD_CSHL.c **** * Parameters:
 237:.\Generated_Source\PSoC5/CapSense_CSD_CSHL.c **** *  None
 238:.\Generated_Source\PSoC5/CapSense_CSD_CSHL.c **** *
 239:.\Generated_Source\PSoC5/CapSense_CSD_CSHL.c **** * Return:
 240:.\Generated_Source\PSoC5/CapSense_CSD_CSHL.c **** *  None
 241:.\Generated_Source\PSoC5/CapSense_CSD_CSHL.c **** *
 242:.\Generated_Source\PSoC5/CapSense_CSD_CSHL.c **** * Reentrant:
 243:.\Generated_Source\PSoC5/CapSense_CSD_CSHL.c **** *  No
 244:.\Generated_Source\PSoC5/CapSense_CSD_CSHL.c **** *
 245:.\Generated_Source\PSoC5/CapSense_CSD_CSHL.c **** *******************************************************************************/
 246:.\Generated_Source\PSoC5/CapSense_CSD_CSHL.c **** void CapSense_CSD_InitializeAllBaselines(void)
 247:.\Generated_Source\PSoC5/CapSense_CSD_CSHL.c ****                           
 248:.\Generated_Source\PSoC5/CapSense_CSD_CSHL.c **** {
 208              		.loc 1 248 0
ARM GAS  C:\Users\mark6\AppData\Local\Temp\ccRowwUe.s 			page 9


 209              		.cfi_startproc
 210              		@ args = 0, pretend = 0, frame = 8
 211              		@ frame_needed = 1, uses_anonymous_args = 0
 212 0000 80B5     		push	{r7, lr}
 213              		.cfi_def_cfa_offset 8
 214              		.cfi_offset 7, -8
 215              		.cfi_offset 14, -4
 216 0002 82B0     		sub	sp, sp, #8
 217              		.cfi_def_cfa_offset 16
 218 0004 00AF     		add	r7, sp, #0
 219              		.cfi_def_cfa_register 7
 249:.\Generated_Source\PSoC5/CapSense_CSD_CSHL.c ****     uint8 i;
 250:.\Generated_Source\PSoC5/CapSense_CSD_CSHL.c ****     
 251:.\Generated_Source\PSoC5/CapSense_CSD_CSHL.c ****     /* The baseline initialize by sensor of sensor pair */
 252:.\Generated_Source\PSoC5/CapSense_CSD_CSHL.c ****     for(i = 0u; i < CapSense_CSD_TOTAL_SCANSLOT_COUNT; i++)
 220              		.loc 1 252 0
 221 0006 0023     		movs	r3, #0
 222 0008 FB71     		strb	r3, [r7, #7]
 223 000a 06E0     		b	.L7
 224              	.L8:
 253:.\Generated_Source\PSoC5/CapSense_CSD_CSHL.c ****     {
 254:.\Generated_Source\PSoC5/CapSense_CSD_CSHL.c ****         CapSense_CSD_InitializeSensorBaseline(i);
 225              		.loc 1 254 0 discriminator 3
 226 000c FB79     		ldrb	r3, [r7, #7]	@ zero_extendqisi2
 227 000e 1846     		mov	r0, r3
 228 0010 FFF7FEFF 		bl	CapSense_CSD_InitializeSensorBaseline
 252:.\Generated_Source\PSoC5/CapSense_CSD_CSHL.c ****     {
 229              		.loc 1 252 0 discriminator 3
 230 0014 FB79     		ldrb	r3, [r7, #7]	@ zero_extendqisi2
 231 0016 0133     		adds	r3, r3, #1
 232 0018 FB71     		strb	r3, [r7, #7]
 233              	.L7:
 252:.\Generated_Source\PSoC5/CapSense_CSD_CSHL.c ****     {
 234              		.loc 1 252 0 is_stmt 0 discriminator 1
 235 001a FB79     		ldrb	r3, [r7, #7]	@ zero_extendqisi2
 236 001c 002B     		cmp	r3, #0
 237 001e F5D0     		beq	.L8
 255:.\Generated_Source\PSoC5/CapSense_CSD_CSHL.c ****     }
 256:.\Generated_Source\PSoC5/CapSense_CSD_CSHL.c **** }
 238              		.loc 1 256 0 is_stmt 1
 239 0020 0837     		adds	r7, r7, #8
 240              		.cfi_def_cfa_offset 8
 241 0022 BD46     		mov	sp, r7
 242              		.cfi_def_cfa_register 13
 243              		@ sp needed
 244 0024 80BD     		pop	{r7, pc}
 245              		.cfi_endproc
 246              	.LFE2:
 247              		.size	CapSense_CSD_InitializeAllBaselines, .-CapSense_CSD_InitializeAllBaselines
 248 0026 00BF     		.section	.text.CapSense_CSD_InitializeEnabledBaselines,"ax",%progbits
 249              		.align	2
 250              		.global	CapSense_CSD_InitializeEnabledBaselines
 251              		.thumb
 252              		.thumb_func
 253              		.type	CapSense_CSD_InitializeEnabledBaselines, %function
 254              	CapSense_CSD_InitializeEnabledBaselines:
 255              	.LFB3:
ARM GAS  C:\Users\mark6\AppData\Local\Temp\ccRowwUe.s 			page 10


 257:.\Generated_Source\PSoC5/CapSense_CSD_CSHL.c **** 
 258:.\Generated_Source\PSoC5/CapSense_CSD_CSHL.c **** 
 259:.\Generated_Source\PSoC5/CapSense_CSD_CSHL.c **** /*******************************************************************************
 260:.\Generated_Source\PSoC5/CapSense_CSD_CSHL.c **** * Function Name: CapSense_CSD_InitializeEnabledBaselines
 261:.\Generated_Source\PSoC5/CapSense_CSD_CSHL.c **** ********************************************************************************
 262:.\Generated_Source\PSoC5/CapSense_CSD_CSHL.c **** *
 263:.\Generated_Source\PSoC5/CapSense_CSD_CSHL.c **** * Summary:
 264:.\Generated_Source\PSoC5/CapSense_CSD_CSHL.c **** *  Scans all enabled widgets and the raw count values are copied into the 
 265:.\Generated_Source\PSoC5/CapSense_CSD_CSHL.c **** *  baseline array for all sensors enabled in scanning process. Baselines 
 266:.\Generated_Source\PSoC5/CapSense_CSD_CSHL.c **** *  initialize with zero values for sensors disabled from scanning process. 
 267:.\Generated_Source\PSoC5/CapSense_CSD_CSHL.c **** *  The raw data filters are initialized if enabled.
 268:.\Generated_Source\PSoC5/CapSense_CSD_CSHL.c **** *
 269:.\Generated_Source\PSoC5/CapSense_CSD_CSHL.c **** * Parameters:
 270:.\Generated_Source\PSoC5/CapSense_CSD_CSHL.c **** *  None
 271:.\Generated_Source\PSoC5/CapSense_CSD_CSHL.c **** *
 272:.\Generated_Source\PSoC5/CapSense_CSD_CSHL.c **** * Return:
 273:.\Generated_Source\PSoC5/CapSense_CSD_CSHL.c **** *  None
 274:.\Generated_Source\PSoC5/CapSense_CSD_CSHL.c **** *
 275:.\Generated_Source\PSoC5/CapSense_CSD_CSHL.c **** * Reentrant:
 276:.\Generated_Source\PSoC5/CapSense_CSD_CSHL.c **** *  No
 277:.\Generated_Source\PSoC5/CapSense_CSD_CSHL.c **** *
 278:.\Generated_Source\PSoC5/CapSense_CSD_CSHL.c **** *******************************************************************************/
 279:.\Generated_Source\PSoC5/CapSense_CSD_CSHL.c **** void CapSense_CSD_InitializeEnabledBaselines(void)
 280:.\Generated_Source\PSoC5/CapSense_CSD_CSHL.c ****                              
 281:.\Generated_Source\PSoC5/CapSense_CSD_CSHL.c **** {
 256              		.loc 1 281 0
 257              		.cfi_startproc
 258              		@ args = 0, pretend = 0, frame = 8
 259              		@ frame_needed = 1, uses_anonymous_args = 0
 260 0000 80B5     		push	{r7, lr}
 261              		.cfi_def_cfa_offset 8
 262              		.cfi_offset 7, -8
 263              		.cfi_offset 14, -4
 264 0002 82B0     		sub	sp, sp, #8
 265              		.cfi_def_cfa_offset 16
 266 0004 00AF     		add	r7, sp, #0
 267              		.cfi_def_cfa_register 7
 282:.\Generated_Source\PSoC5/CapSense_CSD_CSHL.c ****     uint8 i;
 283:.\Generated_Source\PSoC5/CapSense_CSD_CSHL.c ****     uint8 pos;
 284:.\Generated_Source\PSoC5/CapSense_CSD_CSHL.c ****     uint8 enMask;
 285:.\Generated_Source\PSoC5/CapSense_CSD_CSHL.c ****     
 286:.\Generated_Source\PSoC5/CapSense_CSD_CSHL.c ****     CapSense_CSD_ScanEnabledWidgets();
 268              		.loc 1 286 0
 269 0006 FFF7FEFF 		bl	CapSense_CSD_ScanEnabledWidgets
 287:.\Generated_Source\PSoC5/CapSense_CSD_CSHL.c ****     while(CapSense_CSD_IsBusy() != 0u)
 270              		.loc 1 287 0
 271 000a 00BF     		nop
 272              	.L10:
 273              		.loc 1 287 0 is_stmt 0 discriminator 1
 274 000c FFF7FEFF 		bl	CapSense_CSD_IsBusy
 275 0010 0346     		mov	r3, r0
 276 0012 002B     		cmp	r3, #0
 277 0014 FAD1     		bne	.L10
 288:.\Generated_Source\PSoC5/CapSense_CSD_CSHL.c ****     {
 289:.\Generated_Source\PSoC5/CapSense_CSD_CSHL.c ****         /* Wait while busy */
 290:.\Generated_Source\PSoC5/CapSense_CSD_CSHL.c ****     }
 291:.\Generated_Source\PSoC5/CapSense_CSD_CSHL.c ****     
ARM GAS  C:\Users\mark6\AppData\Local\Temp\ccRowwUe.s 			page 11


 292:.\Generated_Source\PSoC5/CapSense_CSD_CSHL.c ****     for(i = 0u; i < CapSense_CSD_TOTAL_SENSOR_COUNT; i++)
 278              		.loc 1 292 0 is_stmt 1
 279 0016 0023     		movs	r3, #0
 280 0018 FB71     		strb	r3, [r7, #7]
 281 001a 1DE0     		b	.L11
 282              	.L13:
 293:.\Generated_Source\PSoC5/CapSense_CSD_CSHL.c ****     {
 294:.\Generated_Source\PSoC5/CapSense_CSD_CSHL.c ****         pos = (i >> 3u);
 283              		.loc 1 294 0
 284 001c FB79     		ldrb	r3, [r7, #7]	@ zero_extendqisi2
 285 001e DB08     		lsrs	r3, r3, #3
 286 0020 BB71     		strb	r3, [r7, #6]
 295:.\Generated_Source\PSoC5/CapSense_CSD_CSHL.c ****         enMask = 0x01u << (i & 0x07u);
 287              		.loc 1 295 0
 288 0022 FB79     		ldrb	r3, [r7, #7]	@ zero_extendqisi2
 289 0024 03F00703 		and	r3, r3, #7
 290 0028 0122     		movs	r2, #1
 291 002a 02FA03F3 		lsl	r3, r2, r3
 292 002e 7B71     		strb	r3, [r7, #5]
 296:.\Generated_Source\PSoC5/CapSense_CSD_CSHL.c ****         
 297:.\Generated_Source\PSoC5/CapSense_CSD_CSHL.c ****         /* Clear raw data if sensor is disabled from scanning process */
 298:.\Generated_Source\PSoC5/CapSense_CSD_CSHL.c ****         if((CapSense_CSD_sensorEnableMask[pos] & enMask) == 0u)
 293              		.loc 1 298 0
 294 0030 BB79     		ldrb	r3, [r7, #6]	@ zero_extendqisi2
 295 0032 0C4A     		ldr	r2, .L14
 296 0034 D25C     		ldrb	r2, [r2, r3]	@ zero_extendqisi2
 297 0036 7B79     		ldrb	r3, [r7, #5]
 298 0038 1340     		ands	r3, r3, r2
 299 003a DBB2     		uxtb	r3, r3
 300 003c 002B     		cmp	r3, #0
 301 003e 04D1     		bne	.L12
 299:.\Generated_Source\PSoC5/CapSense_CSD_CSHL.c ****         {
 300:.\Generated_Source\PSoC5/CapSense_CSD_CSHL.c ****             CapSense_CSD_sensorRaw[i] = 0u;
 302              		.loc 1 300 0
 303 0040 FB79     		ldrb	r3, [r7, #7]	@ zero_extendqisi2
 304 0042 094A     		ldr	r2, .L14+4
 305 0044 0021     		movs	r1, #0
 306 0046 22F81310 		strh	r1, [r2, r3, lsl #1]	@ movhi
 307              	.L12:
 301:.\Generated_Source\PSoC5/CapSense_CSD_CSHL.c ****         }
 302:.\Generated_Source\PSoC5/CapSense_CSD_CSHL.c ****         
 303:.\Generated_Source\PSoC5/CapSense_CSD_CSHL.c ****         /* Initialize baselines */
 304:.\Generated_Source\PSoC5/CapSense_CSD_CSHL.c ****         CapSense_CSD_BaseInit(i);
 308              		.loc 1 304 0 discriminator 2
 309 004a FB79     		ldrb	r3, [r7, #7]	@ zero_extendqisi2
 310 004c 1846     		mov	r0, r3
 311 004e FFF7FEFF 		bl	CapSense_CSD_BaseInit
 292:.\Generated_Source\PSoC5/CapSense_CSD_CSHL.c ****     {
 312              		.loc 1 292 0 discriminator 2
 313 0052 FB79     		ldrb	r3, [r7, #7]	@ zero_extendqisi2
 314 0054 0133     		adds	r3, r3, #1
 315 0056 FB71     		strb	r3, [r7, #7]
 316              	.L11:
 292:.\Generated_Source\PSoC5/CapSense_CSD_CSHL.c ****     {
 317              		.loc 1 292 0 is_stmt 0 discriminator 1
 318 0058 FB79     		ldrb	r3, [r7, #7]	@ zero_extendqisi2
 319 005a 002B     		cmp	r3, #0
ARM GAS  C:\Users\mark6\AppData\Local\Temp\ccRowwUe.s 			page 12


 320 005c DED0     		beq	.L13
 305:.\Generated_Source\PSoC5/CapSense_CSD_CSHL.c ****     }
 306:.\Generated_Source\PSoC5/CapSense_CSD_CSHL.c **** }  
 321              		.loc 1 306 0 is_stmt 1
 322 005e 0837     		adds	r7, r7, #8
 323              		.cfi_def_cfa_offset 8
 324 0060 BD46     		mov	sp, r7
 325              		.cfi_def_cfa_register 13
 326              		@ sp needed
 327 0062 80BD     		pop	{r7, pc}
 328              	.L15:
 329              		.align	2
 330              	.L14:
 331 0064 00000000 		.word	CapSense_CSD_sensorEnableMask
 332 0068 00000000 		.word	CapSense_CSD_sensorRaw
 333              		.cfi_endproc
 334              	.LFE3:
 335              		.size	CapSense_CSD_InitializeEnabledBaselines, .-CapSense_CSD_InitializeEnabledBaselines
 336              		.section	.text.CapSense_CSD_UpdateSensorBaseline,"ax",%progbits
 337              		.align	2
 338              		.global	CapSense_CSD_UpdateSensorBaseline
 339              		.thumb
 340              		.thumb_func
 341              		.type	CapSense_CSD_UpdateSensorBaseline, %function
 342              	CapSense_CSD_UpdateSensorBaseline:
 343              	.LFB4:
 307:.\Generated_Source\PSoC5/CapSense_CSD_CSHL.c **** 
 308:.\Generated_Source\PSoC5/CapSense_CSD_CSHL.c **** 
 309:.\Generated_Source\PSoC5/CapSense_CSD_CSHL.c **** /*******************************************************************************
 310:.\Generated_Source\PSoC5/CapSense_CSD_CSHL.c **** * Function Name: CapSense_CSD_UpdateSensorBaseline
 311:.\Generated_Source\PSoC5/CapSense_CSD_CSHL.c **** ********************************************************************************
 312:.\Generated_Source\PSoC5/CapSense_CSD_CSHL.c **** *
 313:.\Generated_Source\PSoC5/CapSense_CSD_CSHL.c **** * Summary:
 314:.\Generated_Source\PSoC5/CapSense_CSD_CSHL.c **** *  Updates the CapSense_CSD_sensorBaseline[sensor] array element using the 
 315:.\Generated_Source\PSoC5/CapSense_CSD_CSHL.c **** *  LP filter with k = 256. The signal calculates the difference of count by 
 316:.\Generated_Source\PSoC5/CapSense_CSD_CSHL.c **** *  subtracting the previous baseline from the current raw count value and stores
 317:.\Generated_Source\PSoC5/CapSense_CSD_CSHL.c **** *  it in CapSense_CSD_SensorSignal[sensor]. 
 318:.\Generated_Source\PSoC5/CapSense_CSD_CSHL.c **** *  If auto reset option is enabled the baseline updated regards noise threshold. 
 319:.\Generated_Source\PSoC5/CapSense_CSD_CSHL.c **** *  If auto reset option is disabled the baseline stops updating if signal is 
 320:.\Generated_Source\PSoC5/CapSense_CSD_CSHL.c **** *  greater that zero and baseline loads with raw count value if signal is less 
 321:.\Generated_Source\PSoC5/CapSense_CSD_CSHL.c **** *  that noise threshold.
 322:.\Generated_Source\PSoC5/CapSense_CSD_CSHL.c **** *  Raw data filters are applied to the values if enabled before baseline 
 323:.\Generated_Source\PSoC5/CapSense_CSD_CSHL.c **** *  calculation.
 324:.\Generated_Source\PSoC5/CapSense_CSD_CSHL.c **** *
 325:.\Generated_Source\PSoC5/CapSense_CSD_CSHL.c **** * Parameters:
 326:.\Generated_Source\PSoC5/CapSense_CSD_CSHL.c **** *  sensor:  Sensor number.
 327:.\Generated_Source\PSoC5/CapSense_CSD_CSHL.c **** *
 328:.\Generated_Source\PSoC5/CapSense_CSD_CSHL.c **** * Return:
 329:.\Generated_Source\PSoC5/CapSense_CSD_CSHL.c **** *  None
 330:.\Generated_Source\PSoC5/CapSense_CSD_CSHL.c **** *
 331:.\Generated_Source\PSoC5/CapSense_CSD_CSHL.c **** * Global Variables:
 332:.\Generated_Source\PSoC5/CapSense_CSD_CSHL.c **** *  CapSense_CSD_sensorBaseline[]    - used to store baseline value.
 333:.\Generated_Source\PSoC5/CapSense_CSD_CSHL.c **** *  CapSense_CSD_sensorBaselineLow[] - used to store fraction byte of 
 334:.\Generated_Source\PSoC5/CapSense_CSD_CSHL.c **** *  baseline value.
 335:.\Generated_Source\PSoC5/CapSense_CSD_CSHL.c **** *  CapSense_CSD_sensorSignal[]      - used to store diffence between 
 336:.\Generated_Source\PSoC5/CapSense_CSD_CSHL.c **** *  current value of raw data and previous value of baseline.
 337:.\Generated_Source\PSoC5/CapSense_CSD_CSHL.c **** *  CapSense_CSD_rawFilterData1[]    - used to store previous sample of 
ARM GAS  C:\Users\mark6\AppData\Local\Temp\ccRowwUe.s 			page 13


 338:.\Generated_Source\PSoC5/CapSense_CSD_CSHL.c **** *  any enabled raw data filter.
 339:.\Generated_Source\PSoC5/CapSense_CSD_CSHL.c **** *  CapSense_CSD_rawFilterData2[]    - used to store before previous sample
 340:.\Generated_Source\PSoC5/CapSense_CSD_CSHL.c **** *  of enabled raw data filter. Only required for median or average filters.
 341:.\Generated_Source\PSoC5/CapSense_CSD_CSHL.c **** *
 342:.\Generated_Source\PSoC5/CapSense_CSD_CSHL.c **** * Reentrant:
 343:.\Generated_Source\PSoC5/CapSense_CSD_CSHL.c **** *  No
 344:.\Generated_Source\PSoC5/CapSense_CSD_CSHL.c **** *
 345:.\Generated_Source\PSoC5/CapSense_CSD_CSHL.c **** *******************************************************************************/
 346:.\Generated_Source\PSoC5/CapSense_CSD_CSHL.c ****  void CapSense_CSD_UpdateSensorBaseline(uint8 sensor)
 347:.\Generated_Source\PSoC5/CapSense_CSD_CSHL.c ****                                  
 348:.\Generated_Source\PSoC5/CapSense_CSD_CSHL.c **** {
 344              		.loc 1 348 0
 345              		.cfi_startproc
 346              		@ args = 0, pretend = 0, frame = 24
 347              		@ frame_needed = 1, uses_anonymous_args = 0
 348 0000 80B5     		push	{r7, lr}
 349              		.cfi_def_cfa_offset 8
 350              		.cfi_offset 7, -8
 351              		.cfi_offset 14, -4
 352 0002 86B0     		sub	sp, sp, #24
 353              		.cfi_def_cfa_offset 32
 354 0004 00AF     		add	r7, sp, #0
 355              		.cfi_def_cfa_register 7
 356 0006 0346     		mov	r3, r0
 357 0008 FB71     		strb	r3, [r7, #7]
 349:.\Generated_Source\PSoC5/CapSense_CSD_CSHL.c ****     uint32 calc;
 350:.\Generated_Source\PSoC5/CapSense_CSD_CSHL.c ****     uint16 tempRaw;
 351:.\Generated_Source\PSoC5/CapSense_CSD_CSHL.c ****     uint16 filteredRawData;
 352:.\Generated_Source\PSoC5/CapSense_CSD_CSHL.c ****     uint8 widget = CapSense_CSD_widgetNumber[sensor];
 358              		.loc 1 352 0
 359 000a FB79     		ldrb	r3, [r7, #7]	@ zero_extendqisi2
 360 000c 534A     		ldr	r2, .L28
 361 000e D35C     		ldrb	r3, [r2, r3]
 362 0010 7B75     		strb	r3, [r7, #21]
 353:.\Generated_Source\PSoC5/CapSense_CSD_CSHL.c ****     uint8 noiseThreshold = CapSense_CSD_noiseThreshold[widget];
 363              		.loc 1 353 0
 364 0012 7B7D     		ldrb	r3, [r7, #21]	@ zero_extendqisi2
 365 0014 524A     		ldr	r2, .L28+4
 366 0016 D35C     		ldrb	r3, [r2, r3]
 367 0018 3B75     		strb	r3, [r7, #20]
 354:.\Generated_Source\PSoC5/CapSense_CSD_CSHL.c ****     
 355:.\Generated_Source\PSoC5/CapSense_CSD_CSHL.c ****     #if (CapSense_CSD_TOTAL_GENERICS_COUNT)
 356:.\Generated_Source\PSoC5/CapSense_CSD_CSHL.c ****         /* Exclude generic widget */
 357:.\Generated_Source\PSoC5/CapSense_CSD_CSHL.c ****         if(widget < CapSense_CSD_END_OF_WIDGETS_INDEX)
 358:.\Generated_Source\PSoC5/CapSense_CSD_CSHL.c ****         {
 359:.\Generated_Source\PSoC5/CapSense_CSD_CSHL.c ****     #endif  /* CapSense_CSD_TOTAL_GENERICS_COUNT */
 360:.\Generated_Source\PSoC5/CapSense_CSD_CSHL.c ****     
 361:.\Generated_Source\PSoC5/CapSense_CSD_CSHL.c ****     filteredRawData = CapSense_CSD_sensorRaw[sensor];
 368              		.loc 1 361 0
 369 001a FB79     		ldrb	r3, [r7, #7]	@ zero_extendqisi2
 370 001c 514A     		ldr	r2, .L28+8
 371 001e 32F81330 		ldrh	r3, [r2, r3, lsl #1]	@ movhi
 372 0022 7B82     		strh	r3, [r7, #18]	@ movhi
 362:.\Generated_Source\PSoC5/CapSense_CSD_CSHL.c ****     
 363:.\Generated_Source\PSoC5/CapSense_CSD_CSHL.c ****     #if (CapSense_CSD_RAW_FILTER_MASK & CapSense_CSD_MEDIAN_FILTER)
 364:.\Generated_Source\PSoC5/CapSense_CSD_CSHL.c ****         tempRaw = filteredRawData;
 365:.\Generated_Source\PSoC5/CapSense_CSD_CSHL.c ****         filteredRawData = CapSense_CSD_MedianFilter(filteredRawData, CapSense_CSD_rawFilterData1[se
ARM GAS  C:\Users\mark6\AppData\Local\Temp\ccRowwUe.s 			page 14


 366:.\Generated_Source\PSoC5/CapSense_CSD_CSHL.c ****                                                         CapSense_CSD_rawFilterData2[sensor]);
 367:.\Generated_Source\PSoC5/CapSense_CSD_CSHL.c ****         CapSense_CSD_rawFilterData2[sensor] = CapSense_CSD_rawFilterData1[sensor];
 368:.\Generated_Source\PSoC5/CapSense_CSD_CSHL.c ****         CapSense_CSD_rawFilterData1[sensor] = tempRaw;
 369:.\Generated_Source\PSoC5/CapSense_CSD_CSHL.c ****         
 370:.\Generated_Source\PSoC5/CapSense_CSD_CSHL.c ****     #elif (CapSense_CSD_RAW_FILTER_MASK & CapSense_CSD_AVERAGING_FILTER)
 371:.\Generated_Source\PSoC5/CapSense_CSD_CSHL.c ****         tempRaw = filteredRawData;
 372:.\Generated_Source\PSoC5/CapSense_CSD_CSHL.c ****         filteredRawData = CapSense_CSD_AveragingFilter(filteredRawData, CapSense_CSD_rawFilterData1
 373:.\Generated_Source\PSoC5/CapSense_CSD_CSHL.c ****                                                            CapSense_CSD_rawFilterData2[sensor]);
 374:.\Generated_Source\PSoC5/CapSense_CSD_CSHL.c ****         CapSense_CSD_rawFilterData2[sensor] = CapSense_CSD_rawFilterData1[sensor];
 375:.\Generated_Source\PSoC5/CapSense_CSD_CSHL.c ****         CapSense_CSD_rawFilterData1[sensor] = tempRaw;
 376:.\Generated_Source\PSoC5/CapSense_CSD_CSHL.c ****         
 377:.\Generated_Source\PSoC5/CapSense_CSD_CSHL.c ****     #elif (CapSense_CSD_RAW_FILTER_MASK & CapSense_CSD_IIR2_FILTER)
 378:.\Generated_Source\PSoC5/CapSense_CSD_CSHL.c ****         filteredRawData = CapSense_CSD_IIR2Filter(filteredRawData, CapSense_CSD_rawFilterData1[sens
 379:.\Generated_Source\PSoC5/CapSense_CSD_CSHL.c ****         CapSense_CSD_rawFilterData1[sensor] = filteredRawData;
 380:.\Generated_Source\PSoC5/CapSense_CSD_CSHL.c ****         
 381:.\Generated_Source\PSoC5/CapSense_CSD_CSHL.c ****     #elif (CapSense_CSD_RAW_FILTER_MASK & CapSense_CSD_IIR4_FILTER)
 382:.\Generated_Source\PSoC5/CapSense_CSD_CSHL.c ****         filteredRawData = CapSense_CSD_IIR4Filter(filteredRawData, CapSense_CSD_rawFilterData1[sens
 373              		.loc 1 382 0
 374 0024 FB79     		ldrb	r3, [r7, #7]	@ zero_extendqisi2
 375 0026 504A     		ldr	r2, .L28+12
 376 0028 32F81330 		ldrh	r3, [r2, r3, lsl #1]
 377 002c 7A8A     		ldrh	r2, [r7, #18]
 378 002e 1046     		mov	r0, r2
 379 0030 1946     		mov	r1, r3
 380 0032 FFF7FEFF 		bl	CapSense_CSD_IIR4Filter
 381 0036 0346     		mov	r3, r0
 382 0038 7B82     		strh	r3, [r7, #18]	@ movhi
 383:.\Generated_Source\PSoC5/CapSense_CSD_CSHL.c ****         CapSense_CSD_rawFilterData1[sensor] = filteredRawData;
 383              		.loc 1 383 0
 384 003a FB79     		ldrb	r3, [r7, #7]	@ zero_extendqisi2
 385 003c 4A49     		ldr	r1, .L28+12
 386 003e 7A8A     		ldrh	r2, [r7, #18]	@ movhi
 387 0040 21F81320 		strh	r2, [r1, r3, lsl #1]	@ movhi
 384:.\Generated_Source\PSoC5/CapSense_CSD_CSHL.c ****             
 385:.\Generated_Source\PSoC5/CapSense_CSD_CSHL.c ****     #elif (CapSense_CSD_RAW_FILTER_MASK & CapSense_CSD_JITTER_FILTER)
 386:.\Generated_Source\PSoC5/CapSense_CSD_CSHL.c ****         filteredRawData = CapSense_CSD_JitterFilter(filteredRawData, CapSense_CSD_rawFilterData1[se
 387:.\Generated_Source\PSoC5/CapSense_CSD_CSHL.c ****         CapSense_CSD_rawFilterData1[sensor] = filteredRawData;
 388:.\Generated_Source\PSoC5/CapSense_CSD_CSHL.c ****         
 389:.\Generated_Source\PSoC5/CapSense_CSD_CSHL.c ****     #elif (CapSense_CSD_RAW_FILTER_MASK & CapSense_CSD_IIR8_FILTER)
 390:.\Generated_Source\PSoC5/CapSense_CSD_CSHL.c ****         filteredRawData = CapSense_CSD_IIR8Filter(filteredRawData, CapSense_CSD_rawFilterData1[sens
 391:.\Generated_Source\PSoC5/CapSense_CSD_CSHL.c ****         CapSense_CSD_rawFilterData1[sensor] = filteredRawData;
 392:.\Generated_Source\PSoC5/CapSense_CSD_CSHL.c ****         
 393:.\Generated_Source\PSoC5/CapSense_CSD_CSHL.c ****     #elif (CapSense_CSD_RAW_FILTER_MASK & CapSense_CSD_IIR16_FILTER)
 394:.\Generated_Source\PSoC5/CapSense_CSD_CSHL.c ****         filteredRawData = CapSense_CSD_IIR16Filter(filteredRawData, CapSense_CSD_rawFilterData1[sen
 395:.\Generated_Source\PSoC5/CapSense_CSD_CSHL.c ****         CapSense_CSD_rawFilterData1[sensor] = filteredRawData;
 396:.\Generated_Source\PSoC5/CapSense_CSD_CSHL.c ****         
 397:.\Generated_Source\PSoC5/CapSense_CSD_CSHL.c ****     #else
 398:.\Generated_Source\PSoC5/CapSense_CSD_CSHL.c ****         /* No Raw filters */
 399:.\Generated_Source\PSoC5/CapSense_CSD_CSHL.c ****     #endif  /* (CapSense_CSD_RAW_FILTER_MASK & CapSense_CSD_MEDIAN_FILTER) */
 400:.\Generated_Source\PSoC5/CapSense_CSD_CSHL.c ****     
 401:.\Generated_Source\PSoC5/CapSense_CSD_CSHL.c ****     #if (CapSense_CSD_TUNING_METHOD == CapSense_CSD_AUTO_TUNING)
 402:.\Generated_Source\PSoC5/CapSense_CSD_CSHL.c ****         CapSense_CSD_CalculateThresholds(sensor);
 388              		.loc 1 402 0
 389 0044 FB79     		ldrb	r3, [r7, #7]	@ zero_extendqisi2
 390 0046 1846     		mov	r0, r3
 391 0048 FFF7FEFF 		bl	CapSense_CSD_CalculateThresholds
 403:.\Generated_Source\PSoC5/CapSense_CSD_CSHL.c ****     #endif /* (CapSense_CSD_TUNING_METHOD == CapSense_CSD_AUTO_TUNING) */
ARM GAS  C:\Users\mark6\AppData\Local\Temp\ccRowwUe.s 			page 15


 404:.\Generated_Source\PSoC5/CapSense_CSD_CSHL.c **** 
 405:.\Generated_Source\PSoC5/CapSense_CSD_CSHL.c **** 
 406:.\Generated_Source\PSoC5/CapSense_CSD_CSHL.c ****     /* Baseline calculation */
 407:.\Generated_Source\PSoC5/CapSense_CSD_CSHL.c ****     /* Calculate difference RawData[cur] - Baseline[prev] */
 408:.\Generated_Source\PSoC5/CapSense_CSD_CSHL.c ****     if(filteredRawData >= CapSense_CSD_sensorBaseline[sensor])
 392              		.loc 1 408 0
 393 004c FB79     		ldrb	r3, [r7, #7]	@ zero_extendqisi2
 394 004e 474A     		ldr	r2, .L28+16
 395 0050 32F81330 		ldrh	r3, [r2, r3, lsl #1]
 396 0054 7A8A     		ldrh	r2, [r7, #18]
 397 0056 9A42     		cmp	r2, r3
 398 0058 09D3     		bcc	.L17
 409:.\Generated_Source\PSoC5/CapSense_CSD_CSHL.c ****     {
 410:.\Generated_Source\PSoC5/CapSense_CSD_CSHL.c ****         tempRaw = filteredRawData - CapSense_CSD_sensorBaseline[sensor];
 399              		.loc 1 410 0
 400 005a FB79     		ldrb	r3, [r7, #7]	@ zero_extendqisi2
 401 005c 434A     		ldr	r2, .L28+16
 402 005e 32F81330 		ldrh	r3, [r2, r3, lsl #1]
 403 0062 7A8A     		ldrh	r2, [r7, #18]	@ movhi
 404 0064 D31A     		subs	r3, r2, r3
 405 0066 FB82     		strh	r3, [r7, #22]	@ movhi
 411:.\Generated_Source\PSoC5/CapSense_CSD_CSHL.c ****         widget = 1u;    /* Positive difference - Calculate the Signal */
 406              		.loc 1 411 0
 407 0068 0123     		movs	r3, #1
 408 006a 7B75     		strb	r3, [r7, #21]
 409 006c 08E0     		b	.L18
 410              	.L17:
 412:.\Generated_Source\PSoC5/CapSense_CSD_CSHL.c ****     }
 413:.\Generated_Source\PSoC5/CapSense_CSD_CSHL.c ****     else
 414:.\Generated_Source\PSoC5/CapSense_CSD_CSHL.c ****     {
 415:.\Generated_Source\PSoC5/CapSense_CSD_CSHL.c ****         tempRaw = CapSense_CSD_sensorBaseline[sensor] - filteredRawData;
 411              		.loc 1 415 0
 412 006e FB79     		ldrb	r3, [r7, #7]	@ zero_extendqisi2
 413 0070 3E4A     		ldr	r2, .L28+16
 414 0072 32F81320 		ldrh	r2, [r2, r3, lsl #1]
 415 0076 7B8A     		ldrh	r3, [r7, #18]	@ movhi
 416 0078 D31A     		subs	r3, r2, r3
 417 007a FB82     		strh	r3, [r7, #22]	@ movhi
 416:.\Generated_Source\PSoC5/CapSense_CSD_CSHL.c ****         widget = 0u;    /* Negative difference - Do NOT calculate the Signal */
 418              		.loc 1 416 0
 419 007c 0023     		movs	r3, #0
 420 007e 7B75     		strb	r3, [r7, #21]
 421              	.L18:
 417:.\Generated_Source\PSoC5/CapSense_CSD_CSHL.c ****     }
 418:.\Generated_Source\PSoC5/CapSense_CSD_CSHL.c **** 
 419:.\Generated_Source\PSoC5/CapSense_CSD_CSHL.c ****     if((widget == 0u) && (tempRaw > (uint16) CapSense_CSD_NEGATIVE_NOISE_THRESHOLD))
 422              		.loc 1 419 0
 423 0080 7B7D     		ldrb	r3, [r7, #21]	@ zero_extendqisi2
 424 0082 002B     		cmp	r3, #0
 425 0084 18D1     		bne	.L19
 426              		.loc 1 419 0 is_stmt 0 discriminator 1
 427 0086 FB8A     		ldrh	r3, [r7, #22]
 428 0088 142B     		cmp	r3, #20
 429 008a 15D9     		bls	.L19
 420:.\Generated_Source\PSoC5/CapSense_CSD_CSHL.c ****     {
 421:.\Generated_Source\PSoC5/CapSense_CSD_CSHL.c ****         if(CapSense_CSD_lowBaselineResetCnt[sensor] >= CapSense_CSD_LOW_BASELINE_RESET)
 430              		.loc 1 421 0 is_stmt 1
ARM GAS  C:\Users\mark6\AppData\Local\Temp\ccRowwUe.s 			page 16


 431 008c FB79     		ldrb	r3, [r7, #7]	@ zero_extendqisi2
 432 008e 384A     		ldr	r2, .L28+20
 433 0090 D35C     		ldrb	r3, [r2, r3]	@ zero_extendqisi2
 434 0092 042B     		cmp	r3, #4
 435 0094 08D9     		bls	.L20
 422:.\Generated_Source\PSoC5/CapSense_CSD_CSHL.c ****         {
 423:.\Generated_Source\PSoC5/CapSense_CSD_CSHL.c ****             CapSense_CSD_BaseInit(sensor);
 436              		.loc 1 423 0
 437 0096 FB79     		ldrb	r3, [r7, #7]	@ zero_extendqisi2
 438 0098 1846     		mov	r0, r3
 439 009a FFF7FEFF 		bl	CapSense_CSD_BaseInit
 424:.\Generated_Source\PSoC5/CapSense_CSD_CSHL.c ****             CapSense_CSD_lowBaselineResetCnt[sensor] = 0u;
 440              		.loc 1 424 0
 441 009e FB79     		ldrb	r3, [r7, #7]	@ zero_extendqisi2
 442 00a0 334A     		ldr	r2, .L28+20
 443 00a2 0021     		movs	r1, #0
 444 00a4 D154     		strb	r1, [r2, r3]
 421:.\Generated_Source\PSoC5/CapSense_CSD_CSHL.c ****         {
 445              		.loc 1 421 0
 446 00a6 3BE0     		b	.L22
 447              	.L20:
 425:.\Generated_Source\PSoC5/CapSense_CSD_CSHL.c ****         }
 426:.\Generated_Source\PSoC5/CapSense_CSD_CSHL.c ****         else
 427:.\Generated_Source\PSoC5/CapSense_CSD_CSHL.c ****         {
 428:.\Generated_Source\PSoC5/CapSense_CSD_CSHL.c ****             CapSense_CSD_lowBaselineResetCnt[sensor]++;
 448              		.loc 1 428 0
 449 00a8 FB79     		ldrb	r3, [r7, #7]	@ zero_extendqisi2
 450 00aa 314A     		ldr	r2, .L28+20
 451 00ac D25C     		ldrb	r2, [r2, r3]	@ zero_extendqisi2
 452 00ae 0132     		adds	r2, r2, #1
 453 00b0 D1B2     		uxtb	r1, r2
 454 00b2 2F4A     		ldr	r2, .L28+20
 455 00b4 D154     		strb	r1, [r2, r3]
 421:.\Generated_Source\PSoC5/CapSense_CSD_CSHL.c ****         {
 456              		.loc 1 421 0
 457 00b6 33E0     		b	.L22
 458              	.L19:
 429:.\Generated_Source\PSoC5/CapSense_CSD_CSHL.c ****         }
 430:.\Generated_Source\PSoC5/CapSense_CSD_CSHL.c ****     }
 431:.\Generated_Source\PSoC5/CapSense_CSD_CSHL.c ****     else
 432:.\Generated_Source\PSoC5/CapSense_CSD_CSHL.c ****     {
 433:.\Generated_Source\PSoC5/CapSense_CSD_CSHL.c ****         #if (CapSense_CSD_AUTO_RESET == CapSense_CSD_AUTO_RESET_DISABLE)
 434:.\Generated_Source\PSoC5/CapSense_CSD_CSHL.c ****             /* Update Baseline if lower that noiseThreshold */
 435:.\Generated_Source\PSoC5/CapSense_CSD_CSHL.c ****             if ( (tempRaw <= (uint16) noiseThreshold) || 
 459              		.loc 1 435 0
 460 00b8 3B7D     		ldrb	r3, [r7, #20]	@ zero_extendqisi2
 461 00ba 9BB2     		uxth	r3, r3
 462 00bc FA8A     		ldrh	r2, [r7, #22]
 463 00be 9A42     		cmp	r2, r3
 464 00c0 05D9     		bls	.L23
 465              		.loc 1 435 0 is_stmt 0 discriminator 1
 466 00c2 FB8A     		ldrh	r3, [r7, #22]
 467 00c4 132B     		cmp	r3, #19
 468 00c6 2BD8     		bhi	.L22
 436:.\Generated_Source\PSoC5/CapSense_CSD_CSHL.c ****                  ((tempRaw < (uint16) CapSense_CSD_NEGATIVE_NOISE_THRESHOLD)
 437:.\Generated_Source\PSoC5/CapSense_CSD_CSHL.c ****                    && (widget == 0u)))
 469              		.loc 1 437 0 is_stmt 1
ARM GAS  C:\Users\mark6\AppData\Local\Temp\ccRowwUe.s 			page 17


 470 00c8 7B7D     		ldrb	r3, [r7, #21]	@ zero_extendqisi2
 471 00ca 002B     		cmp	r3, #0
 472 00cc 28D1     		bne	.L22
 473              	.L23:
 438:.\Generated_Source\PSoC5/CapSense_CSD_CSHL.c ****             {
 439:.\Generated_Source\PSoC5/CapSense_CSD_CSHL.c ****         #endif /* (CapSense_CSD_AUTO_RESET == CapSense_CSD_AUTO_RESET_DISABLE) */
 440:.\Generated_Source\PSoC5/CapSense_CSD_CSHL.c ****                 /* Make full Baseline 23 bits */
 441:.\Generated_Source\PSoC5/CapSense_CSD_CSHL.c ****                 calc = (uint32) CapSense_CSD_sensorBaseline[sensor] << 8u;
 474              		.loc 1 441 0
 475 00ce FB79     		ldrb	r3, [r7, #7]	@ zero_extendqisi2
 476 00d0 264A     		ldr	r2, .L28+16
 477 00d2 32F81330 		ldrh	r3, [r2, r3, lsl #1]
 478 00d6 1B02     		lsls	r3, r3, #8
 479 00d8 FB60     		str	r3, [r7, #12]
 442:.\Generated_Source\PSoC5/CapSense_CSD_CSHL.c ****                 calc |= (uint32) CapSense_CSD_sensorBaselineLow[sensor];
 480              		.loc 1 442 0
 481 00da FB79     		ldrb	r3, [r7, #7]	@ zero_extendqisi2
 482 00dc 254A     		ldr	r2, .L28+24
 483 00de D35C     		ldrb	r3, [r2, r3]	@ zero_extendqisi2
 484 00e0 1A46     		mov	r2, r3
 485 00e2 FB68     		ldr	r3, [r7, #12]
 486 00e4 1343     		orrs	r3, r3, r2
 487 00e6 FB60     		str	r3, [r7, #12]
 443:.\Generated_Source\PSoC5/CapSense_CSD_CSHL.c **** 
 444:.\Generated_Source\PSoC5/CapSense_CSD_CSHL.c ****                 /* Add Raw Data to Baseline */
 445:.\Generated_Source\PSoC5/CapSense_CSD_CSHL.c ****                 calc += filteredRawData;
 488              		.loc 1 445 0
 489 00e8 7B8A     		ldrh	r3, [r7, #18]
 490 00ea FA68     		ldr	r2, [r7, #12]
 491 00ec 1344     		add	r3, r3, r2
 492 00ee FB60     		str	r3, [r7, #12]
 446:.\Generated_Source\PSoC5/CapSense_CSD_CSHL.c **** 
 447:.\Generated_Source\PSoC5/CapSense_CSD_CSHL.c ****                 /* Sub the high Baseline */
 448:.\Generated_Source\PSoC5/CapSense_CSD_CSHL.c ****                 calc -= CapSense_CSD_sensorBaseline[sensor];
 493              		.loc 1 448 0
 494 00f0 FB79     		ldrb	r3, [r7, #7]	@ zero_extendqisi2
 495 00f2 1E4A     		ldr	r2, .L28+16
 496 00f4 32F81330 		ldrh	r3, [r2, r3, lsl #1]
 497 00f8 1A46     		mov	r2, r3
 498 00fa FB68     		ldr	r3, [r7, #12]
 499 00fc 9B1A     		subs	r3, r3, r2
 500 00fe FB60     		str	r3, [r7, #12]
 449:.\Generated_Source\PSoC5/CapSense_CSD_CSHL.c **** 
 450:.\Generated_Source\PSoC5/CapSense_CSD_CSHL.c ****                 /* Put Baseline and BaselineLow */
 451:.\Generated_Source\PSoC5/CapSense_CSD_CSHL.c ****                 CapSense_CSD_sensorBaseline[sensor] = ((uint16) (calc >> 8u));
 501              		.loc 1 451 0
 502 0100 FB79     		ldrb	r3, [r7, #7]	@ zero_extendqisi2
 503 0102 FA68     		ldr	r2, [r7, #12]
 504 0104 120A     		lsrs	r2, r2, #8
 505 0106 91B2     		uxth	r1, r2
 506 0108 184A     		ldr	r2, .L28+16
 507 010a 22F81310 		strh	r1, [r2, r3, lsl #1]	@ movhi
 452:.\Generated_Source\PSoC5/CapSense_CSD_CSHL.c ****                 CapSense_CSD_sensorBaselineLow[sensor] = ((uint8) calc);
 508              		.loc 1 452 0
 509 010e FB79     		ldrb	r3, [r7, #7]	@ zero_extendqisi2
 510 0110 FA68     		ldr	r2, [r7, #12]
 511 0112 D1B2     		uxtb	r1, r2
ARM GAS  C:\Users\mark6\AppData\Local\Temp\ccRowwUe.s 			page 18


 512 0114 174A     		ldr	r2, .L28+24
 513 0116 D154     		strb	r1, [r2, r3]
 453:.\Generated_Source\PSoC5/CapSense_CSD_CSHL.c **** 
 454:.\Generated_Source\PSoC5/CapSense_CSD_CSHL.c ****                 CapSense_CSD_lowBaselineResetCnt[sensor] = 0u;
 514              		.loc 1 454 0
 515 0118 FB79     		ldrb	r3, [r7, #7]	@ zero_extendqisi2
 516 011a 154A     		ldr	r2, .L28+20
 517 011c 0021     		movs	r1, #0
 518 011e D154     		strb	r1, [r2, r3]
 519              	.L22:
 455:.\Generated_Source\PSoC5/CapSense_CSD_CSHL.c ****         #if (CapSense_CSD_AUTO_RESET == CapSense_CSD_AUTO_RESET_DISABLE)
 456:.\Generated_Source\PSoC5/CapSense_CSD_CSHL.c ****             }
 457:.\Generated_Source\PSoC5/CapSense_CSD_CSHL.c ****         #endif /* (CapSense_CSD_AUTO_RESET == CapSense_CSD_AUTO_RESET_DISABLE) */
 458:.\Generated_Source\PSoC5/CapSense_CSD_CSHL.c ****     }
 459:.\Generated_Source\PSoC5/CapSense_CSD_CSHL.c **** 
 460:.\Generated_Source\PSoC5/CapSense_CSD_CSHL.c ****     /* Calculate Signal if possitive difference > noiseThreshold */
 461:.\Generated_Source\PSoC5/CapSense_CSD_CSHL.c ****     if((tempRaw > (uint16) noiseThreshold) && (widget != 0u))
 520              		.loc 1 461 0
 521 0120 3B7D     		ldrb	r3, [r7, #20]	@ zero_extendqisi2
 522 0122 9BB2     		uxth	r3, r3
 523 0124 FA8A     		ldrh	r2, [r7, #22]
 524 0126 9A42     		cmp	r2, r3
 525 0128 10D9     		bls	.L24
 526              		.loc 1 461 0 is_stmt 0 discriminator 1
 527 012a 7B7D     		ldrb	r3, [r7, #21]	@ zero_extendqisi2
 528 012c 002B     		cmp	r3, #0
 529 012e 0DD0     		beq	.L24
 462:.\Generated_Source\PSoC5/CapSense_CSD_CSHL.c ****     {
 463:.\Generated_Source\PSoC5/CapSense_CSD_CSHL.c ****         #if (CapSense_CSD_SIGNAL_SIZE == CapSense_CSD_SIGNAL_SIZE_UINT8)
 464:.\Generated_Source\PSoC5/CapSense_CSD_CSHL.c ****             /* Over flow defence for uint8 */
 465:.\Generated_Source\PSoC5/CapSense_CSD_CSHL.c ****             if (tempRaw > 0xFFu)
 530              		.loc 1 465 0 is_stmt 1
 531 0130 FB8A     		ldrh	r3, [r7, #22]
 532 0132 FF2B     		cmp	r3, #255
 533 0134 04D9     		bls	.L25
 466:.\Generated_Source\PSoC5/CapSense_CSD_CSHL.c ****             {
 467:.\Generated_Source\PSoC5/CapSense_CSD_CSHL.c ****                 CapSense_CSD_sensorSignal[sensor] = 0xFFu;
 534              		.loc 1 467 0
 535 0136 FB79     		ldrb	r3, [r7, #7]	@ zero_extendqisi2
 536 0138 0F4A     		ldr	r2, .L28+28
 537 013a FF21     		movs	r1, #255
 538 013c D154     		strb	r1, [r2, r3]
 465:.\Generated_Source\PSoC5/CapSense_CSD_CSHL.c ****             {
 539              		.loc 1 465 0
 540 013e 09E0     		b	.L16
 541              	.L25:
 468:.\Generated_Source\PSoC5/CapSense_CSD_CSHL.c ****             }    
 469:.\Generated_Source\PSoC5/CapSense_CSD_CSHL.c ****             else 
 470:.\Generated_Source\PSoC5/CapSense_CSD_CSHL.c ****             {
 471:.\Generated_Source\PSoC5/CapSense_CSD_CSHL.c ****                 CapSense_CSD_sensorSignal[sensor] = ((uint8) tempRaw);
 542              		.loc 1 471 0
 543 0140 FB79     		ldrb	r3, [r7, #7]	@ zero_extendqisi2
 544 0142 FA8A     		ldrh	r2, [r7, #22]	@ movhi
 545 0144 D1B2     		uxtb	r1, r2
 546 0146 0C4A     		ldr	r2, .L28+28
 547 0148 D154     		strb	r1, [r2, r3]
 465:.\Generated_Source\PSoC5/CapSense_CSD_CSHL.c ****             {
ARM GAS  C:\Users\mark6\AppData\Local\Temp\ccRowwUe.s 			page 19


 548              		.loc 1 465 0
 549 014a 03E0     		b	.L16
 550              	.L24:
 472:.\Generated_Source\PSoC5/CapSense_CSD_CSHL.c ****             }
 473:.\Generated_Source\PSoC5/CapSense_CSD_CSHL.c ****         #else
 474:.\Generated_Source\PSoC5/CapSense_CSD_CSHL.c ****             CapSense_CSD_sensorSignal[sensor] = ((uint16) tempRaw);
 475:.\Generated_Source\PSoC5/CapSense_CSD_CSHL.c ****         #endif  /* (CapSense_CSD_SIGNAL_SIZE == CapSense_CSD_SIGNAL_SIZE_UINT8) */
 476:.\Generated_Source\PSoC5/CapSense_CSD_CSHL.c ****     }
 477:.\Generated_Source\PSoC5/CapSense_CSD_CSHL.c ****     else
 478:.\Generated_Source\PSoC5/CapSense_CSD_CSHL.c ****     {
 479:.\Generated_Source\PSoC5/CapSense_CSD_CSHL.c ****         /* Signal is zero */
 480:.\Generated_Source\PSoC5/CapSense_CSD_CSHL.c ****         CapSense_CSD_sensorSignal[sensor] = 0u;
 551              		.loc 1 480 0
 552 014c FB79     		ldrb	r3, [r7, #7]	@ zero_extendqisi2
 553 014e 0A4A     		ldr	r2, .L28+28
 554 0150 0021     		movs	r1, #0
 555 0152 D154     		strb	r1, [r2, r3]
 556              	.L16:
 481:.\Generated_Source\PSoC5/CapSense_CSD_CSHL.c ****     }
 482:.\Generated_Source\PSoC5/CapSense_CSD_CSHL.c **** 
 483:.\Generated_Source\PSoC5/CapSense_CSD_CSHL.c ****     #if (CapSense_CSD_TOTAL_GENERICS_COUNT)
 484:.\Generated_Source\PSoC5/CapSense_CSD_CSHL.c ****         /* Exclude generic widget */
 485:.\Generated_Source\PSoC5/CapSense_CSD_CSHL.c ****         }
 486:.\Generated_Source\PSoC5/CapSense_CSD_CSHL.c ****     #endif  /* CapSense_CSD_TOTAL_GENERICS_COUNT */
 487:.\Generated_Source\PSoC5/CapSense_CSD_CSHL.c **** }
 557              		.loc 1 487 0
 558 0154 1837     		adds	r7, r7, #24
 559              		.cfi_def_cfa_offset 8
 560 0156 BD46     		mov	sp, r7
 561              		.cfi_def_cfa_register 13
 562              		@ sp needed
 563 0158 80BD     		pop	{r7, pc}
 564              	.L29:
 565 015a 00BF     		.align	2
 566              	.L28:
 567 015c 00000000 		.word	CapSense_CSD_widgetNumber
 568 0160 00000000 		.word	CapSense_CSD_noiseThreshold
 569 0164 00000000 		.word	CapSense_CSD_sensorRaw
 570 0168 00000000 		.word	CapSense_CSD_rawFilterData1
 571 016c 00000000 		.word	CapSense_CSD_sensorBaseline
 572 0170 00000000 		.word	CapSense_CSD_lowBaselineResetCnt
 573 0174 00000000 		.word	CapSense_CSD_sensorBaselineLow
 574 0178 00000000 		.word	CapSense_CSD_sensorSignal
 575              		.cfi_endproc
 576              	.LFE4:
 577              		.size	CapSense_CSD_UpdateSensorBaseline, .-CapSense_CSD_UpdateSensorBaseline
 578              		.section	.text.CapSense_CSD_UpdateEnabledBaselines,"ax",%progbits
 579              		.align	2
 580              		.global	CapSense_CSD_UpdateEnabledBaselines
 581              		.thumb
 582              		.thumb_func
 583              		.type	CapSense_CSD_UpdateEnabledBaselines, %function
 584              	CapSense_CSD_UpdateEnabledBaselines:
 585              	.LFB5:
 488:.\Generated_Source\PSoC5/CapSense_CSD_CSHL.c **** 
 489:.\Generated_Source\PSoC5/CapSense_CSD_CSHL.c **** 
 490:.\Generated_Source\PSoC5/CapSense_CSD_CSHL.c **** /*******************************************************************************
ARM GAS  C:\Users\mark6\AppData\Local\Temp\ccRowwUe.s 			page 20


 491:.\Generated_Source\PSoC5/CapSense_CSD_CSHL.c **** * Function Name: CapSense_CSD_UpdateEnabledBaselines
 492:.\Generated_Source\PSoC5/CapSense_CSD_CSHL.c **** ********************************************************************************
 493:.\Generated_Source\PSoC5/CapSense_CSD_CSHL.c **** *
 494:.\Generated_Source\PSoC5/CapSense_CSD_CSHL.c **** * Summary:
 495:.\Generated_Source\PSoC5/CapSense_CSD_CSHL.c **** *  Checks CapSense_CSD_sensorEnableMask[] array and calls the 
 496:.\Generated_Source\PSoC5/CapSense_CSD_CSHL.c **** *  CapSense_CSD_UpdateSensorBaseline function to update the baselines 
 497:.\Generated_Source\PSoC5/CapSense_CSD_CSHL.c **** *  for enabled sensors.
 498:.\Generated_Source\PSoC5/CapSense_CSD_CSHL.c **** *
 499:.\Generated_Source\PSoC5/CapSense_CSD_CSHL.c **** * Parameters:
 500:.\Generated_Source\PSoC5/CapSense_CSD_CSHL.c **** *  None
 501:.\Generated_Source\PSoC5/CapSense_CSD_CSHL.c **** *
 502:.\Generated_Source\PSoC5/CapSense_CSD_CSHL.c **** * Return:
 503:.\Generated_Source\PSoC5/CapSense_CSD_CSHL.c **** *  None
 504:.\Generated_Source\PSoC5/CapSense_CSD_CSHL.c **** *
 505:.\Generated_Source\PSoC5/CapSense_CSD_CSHL.c **** * Global Variables:
 506:.\Generated_Source\PSoC5/CapSense_CSD_CSHL.c **** *  CapSense_CSD_sensorEnableMask[] - used to store the sensor scanning 
 507:.\Generated_Source\PSoC5/CapSense_CSD_CSHL.c **** *  state.
 508:.\Generated_Source\PSoC5/CapSense_CSD_CSHL.c **** *  CapSense_CSD_sensorEnableMask[0] contains the masked bits for sensors 
 509:.\Generated_Source\PSoC5/CapSense_CSD_CSHL.c **** *   0 through 7 (sensor 0 is bit 0, sensor 1 is bit 1).
 510:.\Generated_Source\PSoC5/CapSense_CSD_CSHL.c **** *  CapSense_CSD_sensorEnableMask[1] contains the masked bits for 
 511:.\Generated_Source\PSoC5/CapSense_CSD_CSHL.c **** *  sensors 8 through 15 (if needed), and so on.
 512:.\Generated_Source\PSoC5/CapSense_CSD_CSHL.c **** *  0 - sensor doesn't scan by CapSense_CSD_ScanEnabledWidgets().
 513:.\Generated_Source\PSoC5/CapSense_CSD_CSHL.c **** *  1 - sensor scans by CapSense_CSD_ScanEnabledWidgets().
 514:.\Generated_Source\PSoC5/CapSense_CSD_CSHL.c **** *
 515:.\Generated_Source\PSoC5/CapSense_CSD_CSHL.c **** * Reentrant:
 516:.\Generated_Source\PSoC5/CapSense_CSD_CSHL.c **** *  No
 517:.\Generated_Source\PSoC5/CapSense_CSD_CSHL.c **** *
 518:.\Generated_Source\PSoC5/CapSense_CSD_CSHL.c **** *******************************************************************************/
 519:.\Generated_Source\PSoC5/CapSense_CSD_CSHL.c ****  void CapSense_CSD_UpdateEnabledBaselines(void)
 520:.\Generated_Source\PSoC5/CapSense_CSD_CSHL.c ****                                  
 521:.\Generated_Source\PSoC5/CapSense_CSD_CSHL.c **** {
 586              		.loc 1 521 0
 587              		.cfi_startproc
 588              		@ args = 0, pretend = 0, frame = 8
 589              		@ frame_needed = 1, uses_anonymous_args = 0
 590 0000 80B5     		push	{r7, lr}
 591              		.cfi_def_cfa_offset 8
 592              		.cfi_offset 7, -8
 593              		.cfi_offset 14, -4
 594 0002 82B0     		sub	sp, sp, #8
 595              		.cfi_def_cfa_offset 16
 596 0004 00AF     		add	r7, sp, #0
 597              		.cfi_def_cfa_register 7
 522:.\Generated_Source\PSoC5/CapSense_CSD_CSHL.c ****     uint8 i;
 523:.\Generated_Source\PSoC5/CapSense_CSD_CSHL.c ****     uint8 pos;
 524:.\Generated_Source\PSoC5/CapSense_CSD_CSHL.c ****     uint8 enMask;
 525:.\Generated_Source\PSoC5/CapSense_CSD_CSHL.c ****     
 526:.\Generated_Source\PSoC5/CapSense_CSD_CSHL.c ****     for(i = 0u; i < CapSense_CSD_TOTAL_SENSOR_COUNT; i++)
 598              		.loc 1 526 0
 599 0006 0023     		movs	r3, #0
 600 0008 FB71     		strb	r3, [r7, #7]
 601 000a 18E0     		b	.L31
 602              	.L33:
 527:.\Generated_Source\PSoC5/CapSense_CSD_CSHL.c ****     {
 528:.\Generated_Source\PSoC5/CapSense_CSD_CSHL.c ****         pos = (i >> 3u);
 603              		.loc 1 528 0
 604 000c FB79     		ldrb	r3, [r7, #7]	@ zero_extendqisi2
ARM GAS  C:\Users\mark6\AppData\Local\Temp\ccRowwUe.s 			page 21


 605 000e DB08     		lsrs	r3, r3, #3
 606 0010 BB71     		strb	r3, [r7, #6]
 529:.\Generated_Source\PSoC5/CapSense_CSD_CSHL.c ****         enMask = (uint8)(0x01u << (i & 0x07u));
 607              		.loc 1 529 0
 608 0012 FB79     		ldrb	r3, [r7, #7]	@ zero_extendqisi2
 609 0014 03F00703 		and	r3, r3, #7
 610 0018 0122     		movs	r2, #1
 611 001a 02FA03F3 		lsl	r3, r2, r3
 612 001e 7B71     		strb	r3, [r7, #5]
 530:.\Generated_Source\PSoC5/CapSense_CSD_CSHL.c ****         if((CapSense_CSD_sensorEnableMask[pos] & enMask) != 0u)
 613              		.loc 1 530 0
 614 0020 BB79     		ldrb	r3, [r7, #6]	@ zero_extendqisi2
 615 0022 0A4A     		ldr	r2, .L34
 616 0024 D25C     		ldrb	r2, [r2, r3]	@ zero_extendqisi2
 617 0026 7B79     		ldrb	r3, [r7, #5]
 618 0028 1340     		ands	r3, r3, r2
 619 002a DBB2     		uxtb	r3, r3
 620 002c 002B     		cmp	r3, #0
 621 002e 03D0     		beq	.L32
 531:.\Generated_Source\PSoC5/CapSense_CSD_CSHL.c ****         {
 532:.\Generated_Source\PSoC5/CapSense_CSD_CSHL.c ****             CapSense_CSD_UpdateSensorBaseline(i);
 622              		.loc 1 532 0
 623 0030 FB79     		ldrb	r3, [r7, #7]	@ zero_extendqisi2
 624 0032 1846     		mov	r0, r3
 625 0034 FFF7FEFF 		bl	CapSense_CSD_UpdateSensorBaseline
 626              	.L32:
 526:.\Generated_Source\PSoC5/CapSense_CSD_CSHL.c ****     {
 627              		.loc 1 526 0 discriminator 2
 628 0038 FB79     		ldrb	r3, [r7, #7]	@ zero_extendqisi2
 629 003a 0133     		adds	r3, r3, #1
 630 003c FB71     		strb	r3, [r7, #7]
 631              	.L31:
 526:.\Generated_Source\PSoC5/CapSense_CSD_CSHL.c ****     {
 632              		.loc 1 526 0 is_stmt 0 discriminator 1
 633 003e FB79     		ldrb	r3, [r7, #7]	@ zero_extendqisi2
 634 0040 002B     		cmp	r3, #0
 635 0042 E3D0     		beq	.L33
 533:.\Generated_Source\PSoC5/CapSense_CSD_CSHL.c ****         }
 534:.\Generated_Source\PSoC5/CapSense_CSD_CSHL.c ****     }
 535:.\Generated_Source\PSoC5/CapSense_CSD_CSHL.c **** }
 636              		.loc 1 535 0 is_stmt 1
 637 0044 0837     		adds	r7, r7, #8
 638              		.cfi_def_cfa_offset 8
 639 0046 BD46     		mov	sp, r7
 640              		.cfi_def_cfa_register 13
 641              		@ sp needed
 642 0048 80BD     		pop	{r7, pc}
 643              	.L35:
 644 004a 00BF     		.align	2
 645              	.L34:
 646 004c 00000000 		.word	CapSense_CSD_sensorEnableMask
 647              		.cfi_endproc
 648              	.LFE5:
 649              		.size	CapSense_CSD_UpdateEnabledBaselines, .-CapSense_CSD_UpdateEnabledBaselines
 650              		.section	.text.CapSense_CSD_CheckIsSensorActive,"ax",%progbits
 651              		.align	2
 652              		.global	CapSense_CSD_CheckIsSensorActive
ARM GAS  C:\Users\mark6\AppData\Local\Temp\ccRowwUe.s 			page 22


 653              		.thumb
 654              		.thumb_func
 655              		.type	CapSense_CSD_CheckIsSensorActive, %function
 656              	CapSense_CSD_CheckIsSensorActive:
 657              	.LFB6:
 536:.\Generated_Source\PSoC5/CapSense_CSD_CSHL.c **** 
 537:.\Generated_Source\PSoC5/CapSense_CSD_CSHL.c **** 
 538:.\Generated_Source\PSoC5/CapSense_CSD_CSHL.c **** /*******************************************************************************
 539:.\Generated_Source\PSoC5/CapSense_CSD_CSHL.c **** * Function Name: CapSense_CSD_CheckIsSensorActive
 540:.\Generated_Source\PSoC5/CapSense_CSD_CSHL.c **** ********************************************************************************
 541:.\Generated_Source\PSoC5/CapSense_CSD_CSHL.c **** *
 542:.\Generated_Source\PSoC5/CapSense_CSD_CSHL.c **** * Summary:
 543:.\Generated_Source\PSoC5/CapSense_CSD_CSHL.c **** *  Compares the CapSense_CSD_SensorSignal[sensor] array element to finger
 544:.\Generated_Source\PSoC5/CapSense_CSD_CSHL.c **** *  threshold of widget it belongs to. The hysteresis and debounce are taken into 
 545:.\Generated_Source\PSoC5/CapSense_CSD_CSHL.c **** *  account. The hysteresis is added or subtracted from the finger threshold 
 546:.\Generated_Source\PSoC5/CapSense_CSD_CSHL.c **** *  based on whether the sensor is currently active. 
 547:.\Generated_Source\PSoC5/CapSense_CSD_CSHL.c **** *  If the sensor is active, the threshold is lowered by the hysteresis amount.
 548:.\Generated_Source\PSoC5/CapSense_CSD_CSHL.c **** *  If the sensor is inactive, the threshold is raised by the hysteresis amount.
 549:.\Generated_Source\PSoC5/CapSense_CSD_CSHL.c **** *  The debounce counter added to the sensor active transition.
 550:.\Generated_Source\PSoC5/CapSense_CSD_CSHL.c **** *  This function updates CapSense_CSD_SensorOnMask[] array element.
 551:.\Generated_Source\PSoC5/CapSense_CSD_CSHL.c **** *
 552:.\Generated_Source\PSoC5/CapSense_CSD_CSHL.c **** * Parameters:
 553:.\Generated_Source\PSoC5/CapSense_CSD_CSHL.c **** *  sensor:  Sensor number.
 554:.\Generated_Source\PSoC5/CapSense_CSD_CSHL.c **** *
 555:.\Generated_Source\PSoC5/CapSense_CSD_CSHL.c **** * Return:
 556:.\Generated_Source\PSoC5/CapSense_CSD_CSHL.c **** *  Returns sensor state 1 if active, 0 if not active.
 557:.\Generated_Source\PSoC5/CapSense_CSD_CSHL.c **** *
 558:.\Generated_Source\PSoC5/CapSense_CSD_CSHL.c **** * Global Variables:
 559:.\Generated_Source\PSoC5/CapSense_CSD_CSHL.c **** *  CapSense_CSD_sensorSignal[]      - used to store diffence between 
 560:.\Generated_Source\PSoC5/CapSense_CSD_CSHL.c **** *  current value of raw data and previous value of baseline.
 561:.\Generated_Source\PSoC5/CapSense_CSD_CSHL.c **** *  CapSense_CSD_debounceCounter[]   - used to store current debounce 
 562:.\Generated_Source\PSoC5/CapSense_CSD_CSHL.c **** *  counter of sensor. Widget which has this parameter are buttons, matrix 
 563:.\Generated_Source\PSoC5/CapSense_CSD_CSHL.c **** *  buttons, proximity, guard. All other widgets haven't debounce parameter
 564:.\Generated_Source\PSoC5/CapSense_CSD_CSHL.c **** *  and use the last element of this array with value 0 (it means no debounce).
 565:.\Generated_Source\PSoC5/CapSense_CSD_CSHL.c **** *  CapSense_CSD_sensorOnMask[] - used to store sensors on/off state.
 566:.\Generated_Source\PSoC5/CapSense_CSD_CSHL.c **** *  CapSense_CSD_sensorOnMask[0] contains the masked bits for sensors 
 567:.\Generated_Source\PSoC5/CapSense_CSD_CSHL.c **** *   0 through 7 (sensor 0 is bit 0, sensor 1 is bit 1).
 568:.\Generated_Source\PSoC5/CapSense_CSD_CSHL.c **** *  CapSense_CSD_sensorEnableMask[1] contains the masked bits for 
 569:.\Generated_Source\PSoC5/CapSense_CSD_CSHL.c **** *  sensors 8 through 15 (if needed), and so on.
 570:.\Generated_Source\PSoC5/CapSense_CSD_CSHL.c **** *  0 - sensor is inactive.
 571:.\Generated_Source\PSoC5/CapSense_CSD_CSHL.c **** *  1 - sensor is active.
 572:.\Generated_Source\PSoC5/CapSense_CSD_CSHL.c **** *
 573:.\Generated_Source\PSoC5/CapSense_CSD_CSHL.c **** * Reentrant:
 574:.\Generated_Source\PSoC5/CapSense_CSD_CSHL.c **** *  No
 575:.\Generated_Source\PSoC5/CapSense_CSD_CSHL.c **** *
 576:.\Generated_Source\PSoC5/CapSense_CSD_CSHL.c **** *******************************************************************************/
 577:.\Generated_Source\PSoC5/CapSense_CSD_CSHL.c **** uint8 CapSense_CSD_CheckIsSensorActive(uint8 sensor)
 578:.\Generated_Source\PSoC5/CapSense_CSD_CSHL.c ****                                   
 579:.\Generated_Source\PSoC5/CapSense_CSD_CSHL.c **** {
 658              		.loc 1 579 0
 659              		.cfi_startproc
 660              		@ args = 0, pretend = 0, frame = 16
 661              		@ frame_needed = 1, uses_anonymous_args = 0
 662              		@ link register save eliminated.
 663 0000 80B4     		push	{r7}
 664              		.cfi_def_cfa_offset 4
 665              		.cfi_offset 7, -4
ARM GAS  C:\Users\mark6\AppData\Local\Temp\ccRowwUe.s 			page 23


 666 0002 85B0     		sub	sp, sp, #20
 667              		.cfi_def_cfa_offset 24
 668 0004 00AF     		add	r7, sp, #0
 669              		.cfi_def_cfa_register 7
 670 0006 0346     		mov	r3, r0
 671 0008 FB71     		strb	r3, [r7, #7]
 580:.\Generated_Source\PSoC5/CapSense_CSD_CSHL.c ****     uint8 debounceIndex;
 581:.\Generated_Source\PSoC5/CapSense_CSD_CSHL.c ****     /* Get On/Off mask */
 582:.\Generated_Source\PSoC5/CapSense_CSD_CSHL.c ****     uint8 pos = (sensor >> 3u);
 672              		.loc 1 582 0
 673 000a FB79     		ldrb	r3, [r7, #7]	@ zero_extendqisi2
 674 000c DB08     		lsrs	r3, r3, #3
 675 000e FB73     		strb	r3, [r7, #15]
 583:.\Generated_Source\PSoC5/CapSense_CSD_CSHL.c ****     uint8 onMask = 0x01u << (sensor & 0x07u);
 676              		.loc 1 583 0
 677 0010 FB79     		ldrb	r3, [r7, #7]	@ zero_extendqisi2
 678 0012 03F00703 		and	r3, r3, #7
 679 0016 0122     		movs	r2, #1
 680 0018 02FA03F3 		lsl	r3, r2, r3
 681 001c BB73     		strb	r3, [r7, #14]
 584:.\Generated_Source\PSoC5/CapSense_CSD_CSHL.c ****     /* Prepare to find debounce counter index */
 585:.\Generated_Source\PSoC5/CapSense_CSD_CSHL.c ****     uint8 widget = CapSense_CSD_widgetNumber[sensor];
 682              		.loc 1 585 0
 683 001e FB79     		ldrb	r3, [r7, #7]	@ zero_extendqisi2
 684 0020 324A     		ldr	r2, .L45
 685 0022 D35C     		ldrb	r3, [r2, r3]
 686 0024 7B73     		strb	r3, [r7, #13]
 586:.\Generated_Source\PSoC5/CapSense_CSD_CSHL.c ****     uint8 fingerThreshold = CapSense_CSD_fingerThreshold[widget];
 687              		.loc 1 586 0
 688 0026 7B7B     		ldrb	r3, [r7, #13]	@ zero_extendqisi2
 689 0028 314A     		ldr	r2, .L45+4
 690 002a D35C     		ldrb	r3, [r2, r3]
 691 002c 3B73     		strb	r3, [r7, #12]
 587:.\Generated_Source\PSoC5/CapSense_CSD_CSHL.c ****     uint8 hysteresis = CapSense_CSD_hysteresis[widget];
 692              		.loc 1 587 0
 693 002e 7B7B     		ldrb	r3, [r7, #13]	@ zero_extendqisi2
 694 0030 304A     		ldr	r2, .L45+8
 695 0032 D35C     		ldrb	r3, [r2, r3]
 696 0034 FB72     		strb	r3, [r7, #11]
 588:.\Generated_Source\PSoC5/CapSense_CSD_CSHL.c ****     uint8 debounce = CapSense_CSD_debounce[widget];
 697              		.loc 1 588 0
 698 0036 7B7B     		ldrb	r3, [r7, #13]	@ zero_extendqisi2
 699 0038 2F4A     		ldr	r2, .L45+12
 700 003a D35C     		ldrb	r3, [r2, r3]
 701 003c BB72     		strb	r3, [r7, #10]
 589:.\Generated_Source\PSoC5/CapSense_CSD_CSHL.c ****     
 590:.\Generated_Source\PSoC5/CapSense_CSD_CSHL.c ****     debounceIndex = widget;
 702              		.loc 1 590 0
 703 003e 7B7B     		ldrb	r3, [r7, #13]
 704 0040 7B72     		strb	r3, [r7, #9]
 591:.\Generated_Source\PSoC5/CapSense_CSD_CSHL.c **** 
 592:.\Generated_Source\PSoC5/CapSense_CSD_CSHL.c ****     
 593:.\Generated_Source\PSoC5/CapSense_CSD_CSHL.c ****     /* Was on */
 594:.\Generated_Source\PSoC5/CapSense_CSD_CSHL.c ****     if (0u != (CapSense_CSD_sensorOnMask[pos] & onMask))
 705              		.loc 1 594 0
 706 0042 FB7B     		ldrb	r3, [r7, #15]	@ zero_extendqisi2
 707 0044 2D4A     		ldr	r2, .L45+16
ARM GAS  C:\Users\mark6\AppData\Local\Temp\ccRowwUe.s 			page 24


 708 0046 D25C     		ldrb	r2, [r2, r3]	@ zero_extendqisi2
 709 0048 BB7B     		ldrb	r3, [r7, #14]
 710 004a 1340     		ands	r3, r3, r2
 711 004c DBB2     		uxtb	r3, r3
 712 004e 002B     		cmp	r3, #0
 713 0050 18D0     		beq	.L37
 595:.\Generated_Source\PSoC5/CapSense_CSD_CSHL.c ****     {
 596:.\Generated_Source\PSoC5/CapSense_CSD_CSHL.c ****         /* Hysteresis minus */
 597:.\Generated_Source\PSoC5/CapSense_CSD_CSHL.c ****         if (CapSense_CSD_sensorSignal[sensor] < (fingerThreshold - hysteresis))
 714              		.loc 1 597 0
 715 0052 FB79     		ldrb	r3, [r7, #7]	@ zero_extendqisi2
 716 0054 2A4A     		ldr	r2, .L45+20
 717 0056 D35C     		ldrb	r3, [r2, r3]	@ zero_extendqisi2
 718 0058 1946     		mov	r1, r3
 719 005a 3A7B     		ldrb	r2, [r7, #12]	@ zero_extendqisi2
 720 005c FB7A     		ldrb	r3, [r7, #11]	@ zero_extendqisi2
 721 005e D31A     		subs	r3, r2, r3
 722 0060 9942     		cmp	r1, r3
 723 0062 32DA     		bge	.L39
 598:.\Generated_Source\PSoC5/CapSense_CSD_CSHL.c ****         {
 599:.\Generated_Source\PSoC5/CapSense_CSD_CSHL.c ****             CapSense_CSD_sensorOnMask[pos] &= (uint8)~onMask;
 724              		.loc 1 599 0
 725 0064 FB7B     		ldrb	r3, [r7, #15]	@ zero_extendqisi2
 726 0066 FA7B     		ldrb	r2, [r7, #15]	@ zero_extendqisi2
 727 0068 2449     		ldr	r1, .L45+16
 728 006a 895C     		ldrb	r1, [r1, r2]	@ zero_extendqisi2
 729 006c BA7B     		ldrb	r2, [r7, #14]
 730 006e D243     		mvns	r2, r2
 731 0070 D2B2     		uxtb	r2, r2
 732 0072 0A40     		ands	r2, r2, r1
 733 0074 D1B2     		uxtb	r1, r2
 734 0076 214A     		ldr	r2, .L45+16
 735 0078 D154     		strb	r1, [r2, r3]
 600:.\Generated_Source\PSoC5/CapSense_CSD_CSHL.c ****             CapSense_CSD_debounceCounter[debounceIndex] = debounce; 
 736              		.loc 1 600 0
 737 007a 7B7A     		ldrb	r3, [r7, #9]	@ zero_extendqisi2
 738 007c 2149     		ldr	r1, .L45+24
 739 007e BA7A     		ldrb	r2, [r7, #10]
 740 0080 CA54     		strb	r2, [r1, r3]
 741 0082 22E0     		b	.L39
 742              	.L37:
 601:.\Generated_Source\PSoC5/CapSense_CSD_CSHL.c ****         }
 602:.\Generated_Source\PSoC5/CapSense_CSD_CSHL.c ****     }
 603:.\Generated_Source\PSoC5/CapSense_CSD_CSHL.c ****     else    /* Was off */
 604:.\Generated_Source\PSoC5/CapSense_CSD_CSHL.c ****     {
 605:.\Generated_Source\PSoC5/CapSense_CSD_CSHL.c ****         /* Hysteresis plus */
 606:.\Generated_Source\PSoC5/CapSense_CSD_CSHL.c ****         if (CapSense_CSD_sensorSignal[sensor] > (fingerThreshold + hysteresis))
 743              		.loc 1 606 0
 744 0084 FB79     		ldrb	r3, [r7, #7]	@ zero_extendqisi2
 745 0086 1E4A     		ldr	r2, .L45+20
 746 0088 D35C     		ldrb	r3, [r2, r3]	@ zero_extendqisi2
 747 008a 1946     		mov	r1, r3
 748 008c 3A7B     		ldrb	r2, [r7, #12]	@ zero_extendqisi2
 749 008e FB7A     		ldrb	r3, [r7, #11]	@ zero_extendqisi2
 750 0090 1344     		add	r3, r3, r2
 751 0092 9942     		cmp	r1, r3
 752 0094 15DD     		ble	.L40
ARM GAS  C:\Users\mark6\AppData\Local\Temp\ccRowwUe.s 			page 25


 607:.\Generated_Source\PSoC5/CapSense_CSD_CSHL.c ****         {
 608:.\Generated_Source\PSoC5/CapSense_CSD_CSHL.c ****             /* Sensor active, decrement debounce counter */
 609:.\Generated_Source\PSoC5/CapSense_CSD_CSHL.c ****             if (CapSense_CSD_debounceCounter[debounceIndex] <= 1u)
 753              		.loc 1 609 0
 754 0096 7B7A     		ldrb	r3, [r7, #9]	@ zero_extendqisi2
 755 0098 1A4A     		ldr	r2, .L45+24
 756 009a D35C     		ldrb	r3, [r2, r3]	@ zero_extendqisi2
 757 009c 012B     		cmp	r3, #1
 758 009e 08D8     		bhi	.L41
 610:.\Generated_Source\PSoC5/CapSense_CSD_CSHL.c ****             {
 611:.\Generated_Source\PSoC5/CapSense_CSD_CSHL.c ****                 CapSense_CSD_sensorOnMask[pos] |= onMask; 
 759              		.loc 1 611 0
 760 00a0 FB7B     		ldrb	r3, [r7, #15]	@ zero_extendqisi2
 761 00a2 FA7B     		ldrb	r2, [r7, #15]	@ zero_extendqisi2
 762 00a4 1549     		ldr	r1, .L45+16
 763 00a6 895C     		ldrb	r1, [r1, r2]	@ zero_extendqisi2
 764 00a8 BA7B     		ldrb	r2, [r7, #14]
 765 00aa 0A43     		orrs	r2, r2, r1
 766 00ac D1B2     		uxtb	r1, r2
 767 00ae 134A     		ldr	r2, .L45+16
 768 00b0 D154     		strb	r1, [r2, r3]
 769              	.L41:
 612:.\Generated_Source\PSoC5/CapSense_CSD_CSHL.c ****             }
 613:.\Generated_Source\PSoC5/CapSense_CSD_CSHL.c ****             CapSense_CSD_debounceCounter[debounceIndex]--;
 770              		.loc 1 613 0
 771 00b2 7B7A     		ldrb	r3, [r7, #9]	@ zero_extendqisi2
 772 00b4 134A     		ldr	r2, .L45+24
 773 00b6 D25C     		ldrb	r2, [r2, r3]	@ zero_extendqisi2
 774 00b8 013A     		subs	r2, r2, #1
 775 00ba D1B2     		uxtb	r1, r2
 776 00bc 114A     		ldr	r2, .L45+24
 777 00be D154     		strb	r1, [r2, r3]
 778 00c0 03E0     		b	.L39
 779              	.L40:
 614:.\Generated_Source\PSoC5/CapSense_CSD_CSHL.c ****         }
 615:.\Generated_Source\PSoC5/CapSense_CSD_CSHL.c ****         else
 616:.\Generated_Source\PSoC5/CapSense_CSD_CSHL.c ****         {
 617:.\Generated_Source\PSoC5/CapSense_CSD_CSHL.c ****             /* Sensor inactive - reset Debounce counter */
 618:.\Generated_Source\PSoC5/CapSense_CSD_CSHL.c ****             CapSense_CSD_debounceCounter[debounceIndex] = debounce;
 780              		.loc 1 618 0
 781 00c2 7B7A     		ldrb	r3, [r7, #9]	@ zero_extendqisi2
 782 00c4 0F49     		ldr	r1, .L45+24
 783 00c6 BA7A     		ldrb	r2, [r7, #10]
 784 00c8 CA54     		strb	r2, [r1, r3]
 785              	.L39:
 619:.\Generated_Source\PSoC5/CapSense_CSD_CSHL.c ****         }
 620:.\Generated_Source\PSoC5/CapSense_CSD_CSHL.c ****     }
 621:.\Generated_Source\PSoC5/CapSense_CSD_CSHL.c ****     
 622:.\Generated_Source\PSoC5/CapSense_CSD_CSHL.c ****     return (((CapSense_CSD_sensorOnMask[pos] & onMask) != 0u) ? 1u : 0u);
 786              		.loc 1 622 0
 787 00ca FB7B     		ldrb	r3, [r7, #15]	@ zero_extendqisi2
 788 00cc 0B4A     		ldr	r2, .L45+16
 789 00ce D25C     		ldrb	r2, [r2, r3]	@ zero_extendqisi2
 790 00d0 BB7B     		ldrb	r3, [r7, #14]
 791 00d2 1340     		ands	r3, r3, r2
 792 00d4 DBB2     		uxtb	r3, r3
 793 00d6 002B     		cmp	r3, #0
ARM GAS  C:\Users\mark6\AppData\Local\Temp\ccRowwUe.s 			page 26


 794 00d8 01D0     		beq	.L42
 795              		.loc 1 622 0 is_stmt 0 discriminator 1
 796 00da 0123     		movs	r3, #1
 797 00dc 00E0     		b	.L43
 798              	.L42:
 799              		.loc 1 622 0 discriminator 2
 800 00de 0023     		movs	r3, #0
 801              	.L43:
 623:.\Generated_Source\PSoC5/CapSense_CSD_CSHL.c **** }
 802              		.loc 1 623 0 is_stmt 1 discriminator 4
 803 00e0 1846     		mov	r0, r3
 804 00e2 1437     		adds	r7, r7, #20
 805              		.cfi_def_cfa_offset 4
 806 00e4 BD46     		mov	sp, r7
 807              		.cfi_def_cfa_register 13
 808              		@ sp needed
 809 00e6 5DF8047B 		ldr	r7, [sp], #4
 810              		.cfi_restore 7
 811              		.cfi_def_cfa_offset 0
 812 00ea 7047     		bx	lr
 813              	.L46:
 814              		.align	2
 815              	.L45:
 816 00ec 00000000 		.word	CapSense_CSD_widgetNumber
 817 00f0 00000000 		.word	CapSense_CSD_fingerThreshold
 818 00f4 00000000 		.word	CapSense_CSD_hysteresis
 819 00f8 00000000 		.word	CapSense_CSD_debounce
 820 00fc 00000000 		.word	CapSense_CSD_sensorOnMask
 821 0100 00000000 		.word	CapSense_CSD_sensorSignal
 822 0104 00000000 		.word	CapSense_CSD_debounceCounter
 823              		.cfi_endproc
 824              	.LFE6:
 825              		.size	CapSense_CSD_CheckIsSensorActive, .-CapSense_CSD_CheckIsSensorActive
 826              		.section	.text.CapSense_CSD_CheckIsWidgetActive,"ax",%progbits
 827              		.align	2
 828              		.global	CapSense_CSD_CheckIsWidgetActive
 829              		.thumb
 830              		.thumb_func
 831              		.type	CapSense_CSD_CheckIsWidgetActive, %function
 832              	CapSense_CSD_CheckIsWidgetActive:
 833              	.LFB7:
 624:.\Generated_Source\PSoC5/CapSense_CSD_CSHL.c **** 
 625:.\Generated_Source\PSoC5/CapSense_CSD_CSHL.c **** 
 626:.\Generated_Source\PSoC5/CapSense_CSD_CSHL.c **** /*******************************************************************************
 627:.\Generated_Source\PSoC5/CapSense_CSD_CSHL.c **** * Function Name: CapSense_CSD_CheckIsWidgetActive
 628:.\Generated_Source\PSoC5/CapSense_CSD_CSHL.c **** ********************************************************************************
 629:.\Generated_Source\PSoC5/CapSense_CSD_CSHL.c **** *
 630:.\Generated_Source\PSoC5/CapSense_CSD_CSHL.c **** * Summary:
 631:.\Generated_Source\PSoC5/CapSense_CSD_CSHL.c **** *  Use function CapSense_CSD_CheckIsSensorActive() to update 
 632:.\Generated_Source\PSoC5/CapSense_CSD_CSHL.c **** *  CapSense_CSD_sensorOnMask[] for all sensors within the widget.
 633:.\Generated_Source\PSoC5/CapSense_CSD_CSHL.c **** *  If one of sensors within widget is active the function return that widget is 
 634:.\Generated_Source\PSoC5/CapSense_CSD_CSHL.c **** *  active.
 635:.\Generated_Source\PSoC5/CapSense_CSD_CSHL.c **** *  The touch pad and matrix buttons widgets need to have active sensor within 
 636:.\Generated_Source\PSoC5/CapSense_CSD_CSHL.c **** *  col and row to return widget active status.
 637:.\Generated_Source\PSoC5/CapSense_CSD_CSHL.c **** *
 638:.\Generated_Source\PSoC5/CapSense_CSD_CSHL.c **** * Parameters:
 639:.\Generated_Source\PSoC5/CapSense_CSD_CSHL.c **** *  widget:  widget number.
ARM GAS  C:\Users\mark6\AppData\Local\Temp\ccRowwUe.s 			page 27


 640:.\Generated_Source\PSoC5/CapSense_CSD_CSHL.c **** *
 641:.\Generated_Source\PSoC5/CapSense_CSD_CSHL.c **** * Return:
 642:.\Generated_Source\PSoC5/CapSense_CSD_CSHL.c **** *  Returns widget sensor state 1 if one or more sensors within widget is/are 
 643:.\Generated_Source\PSoC5/CapSense_CSD_CSHL.c **** *  active, 0 if all sensors within widget are inactive.
 644:.\Generated_Source\PSoC5/CapSense_CSD_CSHL.c **** *
 645:.\Generated_Source\PSoC5/CapSense_CSD_CSHL.c **** * Reentrant:
 646:.\Generated_Source\PSoC5/CapSense_CSD_CSHL.c **** *  No
 647:.\Generated_Source\PSoC5/CapSense_CSD_CSHL.c **** *
 648:.\Generated_Source\PSoC5/CapSense_CSD_CSHL.c **** *******************************************************************************/
 649:.\Generated_Source\PSoC5/CapSense_CSD_CSHL.c **** uint8 CapSense_CSD_CheckIsWidgetActive(uint8 widget)
 650:.\Generated_Source\PSoC5/CapSense_CSD_CSHL.c ****                                  
 651:.\Generated_Source\PSoC5/CapSense_CSD_CSHL.c **** {
 834              		.loc 1 651 0
 835              		.cfi_startproc
 836              		@ args = 0, pretend = 0, frame = 16
 837              		@ frame_needed = 1, uses_anonymous_args = 0
 838 0000 80B5     		push	{r7, lr}
 839              		.cfi_def_cfa_offset 8
 840              		.cfi_offset 7, -8
 841              		.cfi_offset 14, -4
 842 0002 84B0     		sub	sp, sp, #16
 843              		.cfi_def_cfa_offset 24
 844 0004 00AF     		add	r7, sp, #0
 845              		.cfi_def_cfa_register 7
 846 0006 0346     		mov	r3, r0
 847 0008 FB71     		strb	r3, [r7, #7]
 652:.\Generated_Source\PSoC5/CapSense_CSD_CSHL.c ****     uint8 rawIndex = CapSense_CSD_rawDataIndex[widget];
 848              		.loc 1 652 0
 849 000a 0023     		movs	r3, #0
 850 000c FB73     		strb	r3, [r7, #15]
 653:.\Generated_Source\PSoC5/CapSense_CSD_CSHL.c ****     uint8 numberOfSensors = CapSense_CSD_numberOfSensors[widget] + rawIndex;
 851              		.loc 1 653 0
 852 000e 0122     		movs	r2, #1
 853 0010 FB7B     		ldrb	r3, [r7, #15]
 854 0012 1344     		add	r3, r3, r2
 855 0014 7B73     		strb	r3, [r7, #13]
 654:.\Generated_Source\PSoC5/CapSense_CSD_CSHL.c ****     uint8 state = 0u;
 856              		.loc 1 654 0
 857 0016 0023     		movs	r3, #0
 858 0018 BB73     		strb	r3, [r7, #14]
 859              	.L49:
 655:.\Generated_Source\PSoC5/CapSense_CSD_CSHL.c **** 
 656:.\Generated_Source\PSoC5/CapSense_CSD_CSHL.c ****     /* Check all sensors of the widget */
 657:.\Generated_Source\PSoC5/CapSense_CSD_CSHL.c ****     do
 658:.\Generated_Source\PSoC5/CapSense_CSD_CSHL.c ****     {
 659:.\Generated_Source\PSoC5/CapSense_CSD_CSHL.c ****         if(CapSense_CSD_CheckIsSensorActive(rawIndex) != 0u)
 860              		.loc 1 659 0
 861 001a FB7B     		ldrb	r3, [r7, #15]	@ zero_extendqisi2
 862 001c 1846     		mov	r0, r3
 863 001e FFF7FEFF 		bl	CapSense_CSD_CheckIsSensorActive
 864 0022 0346     		mov	r3, r0
 865 0024 002B     		cmp	r3, #0
 866 0026 01D0     		beq	.L48
 660:.\Generated_Source\PSoC5/CapSense_CSD_CSHL.c ****         {
 661:.\Generated_Source\PSoC5/CapSense_CSD_CSHL.c ****             state = CapSense_CSD_SENSOR_1_IS_ACTIVE;
 867              		.loc 1 661 0
 868 0028 0123     		movs	r3, #1
ARM GAS  C:\Users\mark6\AppData\Local\Temp\ccRowwUe.s 			page 28


 869 002a BB73     		strb	r3, [r7, #14]
 870              	.L48:
 662:.\Generated_Source\PSoC5/CapSense_CSD_CSHL.c ****         }
 663:.\Generated_Source\PSoC5/CapSense_CSD_CSHL.c ****         rawIndex++;
 871              		.loc 1 663 0
 872 002c FB7B     		ldrb	r3, [r7, #15]	@ zero_extendqisi2
 873 002e 0133     		adds	r3, r3, #1
 874 0030 FB73     		strb	r3, [r7, #15]
 664:.\Generated_Source\PSoC5/CapSense_CSD_CSHL.c ****     }
 665:.\Generated_Source\PSoC5/CapSense_CSD_CSHL.c ****     while(rawIndex < numberOfSensors);
 875              		.loc 1 665 0
 876 0032 FA7B     		ldrb	r2, [r7, #15]	@ zero_extendqisi2
 877 0034 7B7B     		ldrb	r3, [r7, #13]	@ zero_extendqisi2
 878 0036 9A42     		cmp	r2, r3
 879 0038 EFD3     		bcc	.L49
 666:.\Generated_Source\PSoC5/CapSense_CSD_CSHL.c ****     
 667:.\Generated_Source\PSoC5/CapSense_CSD_CSHL.c **** 
 668:.\Generated_Source\PSoC5/CapSense_CSD_CSHL.c ****     
 669:.\Generated_Source\PSoC5/CapSense_CSD_CSHL.c ****     return (state);
 880              		.loc 1 669 0
 881 003a BB7B     		ldrb	r3, [r7, #14]	@ zero_extendqisi2
 670:.\Generated_Source\PSoC5/CapSense_CSD_CSHL.c **** }
 882              		.loc 1 670 0
 883 003c 1846     		mov	r0, r3
 884 003e 1037     		adds	r7, r7, #16
 885              		.cfi_def_cfa_offset 8
 886 0040 BD46     		mov	sp, r7
 887              		.cfi_def_cfa_register 13
 888              		@ sp needed
 889 0042 80BD     		pop	{r7, pc}
 890              		.cfi_endproc
 891              	.LFE7:
 892              		.size	CapSense_CSD_CheckIsWidgetActive, .-CapSense_CSD_CheckIsWidgetActive
 893              		.section	.text.CapSense_CSD_CheckIsAnyWidgetActive,"ax",%progbits
 894              		.align	2
 895              		.global	CapSense_CSD_CheckIsAnyWidgetActive
 896              		.thumb
 897              		.thumb_func
 898              		.type	CapSense_CSD_CheckIsAnyWidgetActive, %function
 899              	CapSense_CSD_CheckIsAnyWidgetActive:
 900              	.LFB8:
 671:.\Generated_Source\PSoC5/CapSense_CSD_CSHL.c **** 
 672:.\Generated_Source\PSoC5/CapSense_CSD_CSHL.c **** 
 673:.\Generated_Source\PSoC5/CapSense_CSD_CSHL.c **** /*******************************************************************************
 674:.\Generated_Source\PSoC5/CapSense_CSD_CSHL.c **** * Function Name: CapSense_CSD_CheckIsAnyWidgetActive
 675:.\Generated_Source\PSoC5/CapSense_CSD_CSHL.c **** ********************************************************************************
 676:.\Generated_Source\PSoC5/CapSense_CSD_CSHL.c **** *
 677:.\Generated_Source\PSoC5/CapSense_CSD_CSHL.c **** * Summary:
 678:.\Generated_Source\PSoC5/CapSense_CSD_CSHL.c **** *  Compares all sensors of the CapSense_CSD_signal[] array to their finger 
 679:.\Generated_Source\PSoC5/CapSense_CSD_CSHL.c **** *  threshold. Calls CapSense_CSD_CheckIsWidgetActive() for each widget so 
 680:.\Generated_Source\PSoC5/CapSense_CSD_CSHL.c **** *  the CapSense_CSD_SensorOnMask[] array is up to date after calling this 
 681:.\Generated_Source\PSoC5/CapSense_CSD_CSHL.c **** *  function.
 682:.\Generated_Source\PSoC5/CapSense_CSD_CSHL.c **** *
 683:.\Generated_Source\PSoC5/CapSense_CSD_CSHL.c **** * Parameters:
 684:.\Generated_Source\PSoC5/CapSense_CSD_CSHL.c **** *  widget:  widget number.
 685:.\Generated_Source\PSoC5/CapSense_CSD_CSHL.c **** *
 686:.\Generated_Source\PSoC5/CapSense_CSD_CSHL.c **** * Return:
ARM GAS  C:\Users\mark6\AppData\Local\Temp\ccRowwUe.s 			page 29


 687:.\Generated_Source\PSoC5/CapSense_CSD_CSHL.c **** *  Returns 1 if any widget is active, 0 none of widgets are active.
 688:.\Generated_Source\PSoC5/CapSense_CSD_CSHL.c **** *
 689:.\Generated_Source\PSoC5/CapSense_CSD_CSHL.c **** * Reentrant:
 690:.\Generated_Source\PSoC5/CapSense_CSD_CSHL.c **** *  No
 691:.\Generated_Source\PSoC5/CapSense_CSD_CSHL.c **** *
 692:.\Generated_Source\PSoC5/CapSense_CSD_CSHL.c **** *******************************************************************************/
 693:.\Generated_Source\PSoC5/CapSense_CSD_CSHL.c **** uint8 CapSense_CSD_CheckIsAnyWidgetActive(void)
 694:.\Generated_Source\PSoC5/CapSense_CSD_CSHL.c ****                                  
 695:.\Generated_Source\PSoC5/CapSense_CSD_CSHL.c **** {
 901              		.loc 1 695 0
 902              		.cfi_startproc
 903              		@ args = 0, pretend = 0, frame = 8
 904              		@ frame_needed = 1, uses_anonymous_args = 0
 905 0000 80B5     		push	{r7, lr}
 906              		.cfi_def_cfa_offset 8
 907              		.cfi_offset 7, -8
 908              		.cfi_offset 14, -4
 909 0002 82B0     		sub	sp, sp, #8
 910              		.cfi_def_cfa_offset 16
 911 0004 00AF     		add	r7, sp, #0
 912              		.cfi_def_cfa_register 7
 696:.\Generated_Source\PSoC5/CapSense_CSD_CSHL.c ****     uint8 i;
 697:.\Generated_Source\PSoC5/CapSense_CSD_CSHL.c ****     uint8 state = 0u;
 913              		.loc 1 697 0
 914 0006 0023     		movs	r3, #0
 915 0008 BB71     		strb	r3, [r7, #6]
 698:.\Generated_Source\PSoC5/CapSense_CSD_CSHL.c ****     
 699:.\Generated_Source\PSoC5/CapSense_CSD_CSHL.c ****     for(i = 0u; i < CapSense_CSD_TOTAL_WIDGET_COUNT; i++)
 916              		.loc 1 699 0
 917 000a 0023     		movs	r3, #0
 918 000c FB71     		strb	r3, [r7, #7]
 919 000e 0BE0     		b	.L52
 920              	.L54:
 700:.\Generated_Source\PSoC5/CapSense_CSD_CSHL.c ****     {
 701:.\Generated_Source\PSoC5/CapSense_CSD_CSHL.c ****         if (CapSense_CSD_CheckIsWidgetActive(i) != 0u)
 921              		.loc 1 701 0
 922 0010 FB79     		ldrb	r3, [r7, #7]	@ zero_extendqisi2
 923 0012 1846     		mov	r0, r3
 924 0014 FFF7FEFF 		bl	CapSense_CSD_CheckIsWidgetActive
 925 0018 0346     		mov	r3, r0
 926 001a 002B     		cmp	r3, #0
 927 001c 01D0     		beq	.L53
 702:.\Generated_Source\PSoC5/CapSense_CSD_CSHL.c ****         {
 703:.\Generated_Source\PSoC5/CapSense_CSD_CSHL.c ****             state = CapSense_CSD_WIDGET_IS_ACTIVE;
 928              		.loc 1 703 0
 929 001e 0123     		movs	r3, #1
 930 0020 BB71     		strb	r3, [r7, #6]
 931              	.L53:
 699:.\Generated_Source\PSoC5/CapSense_CSD_CSHL.c ****     {
 932              		.loc 1 699 0 discriminator 2
 933 0022 FB79     		ldrb	r3, [r7, #7]	@ zero_extendqisi2
 934 0024 0133     		adds	r3, r3, #1
 935 0026 FB71     		strb	r3, [r7, #7]
 936              	.L52:
 699:.\Generated_Source\PSoC5/CapSense_CSD_CSHL.c ****     {
 937              		.loc 1 699 0 is_stmt 0 discriminator 1
 938 0028 FB79     		ldrb	r3, [r7, #7]	@ zero_extendqisi2
ARM GAS  C:\Users\mark6\AppData\Local\Temp\ccRowwUe.s 			page 30


 939 002a 002B     		cmp	r3, #0
 940 002c F0D0     		beq	.L54
 704:.\Generated_Source\PSoC5/CapSense_CSD_CSHL.c ****         }
 705:.\Generated_Source\PSoC5/CapSense_CSD_CSHL.c ****     }
 706:.\Generated_Source\PSoC5/CapSense_CSD_CSHL.c ****     
 707:.\Generated_Source\PSoC5/CapSense_CSD_CSHL.c **** 
 708:.\Generated_Source\PSoC5/CapSense_CSD_CSHL.c ****     return (state);
 941              		.loc 1 708 0 is_stmt 1
 942 002e BB79     		ldrb	r3, [r7, #6]	@ zero_extendqisi2
 709:.\Generated_Source\PSoC5/CapSense_CSD_CSHL.c **** }
 943              		.loc 1 709 0
 944 0030 1846     		mov	r0, r3
 945 0032 0837     		adds	r7, r7, #8
 946              		.cfi_def_cfa_offset 8
 947 0034 BD46     		mov	sp, r7
 948              		.cfi_def_cfa_register 13
 949              		@ sp needed
 950 0036 80BD     		pop	{r7, pc}
 951              		.cfi_endproc
 952              	.LFE8:
 953              		.size	CapSense_CSD_CheckIsAnyWidgetActive, .-CapSense_CSD_CheckIsAnyWidgetActive
 954              		.section	.text.CapSense_CSD_EnableWidget,"ax",%progbits
 955              		.align	2
 956              		.global	CapSense_CSD_EnableWidget
 957              		.thumb
 958              		.thumb_func
 959              		.type	CapSense_CSD_EnableWidget, %function
 960              	CapSense_CSD_EnableWidget:
 961              	.LFB9:
 710:.\Generated_Source\PSoC5/CapSense_CSD_CSHL.c **** 
 711:.\Generated_Source\PSoC5/CapSense_CSD_CSHL.c **** 
 712:.\Generated_Source\PSoC5/CapSense_CSD_CSHL.c **** /*******************************************************************************
 713:.\Generated_Source\PSoC5/CapSense_CSD_CSHL.c **** * Function Name: CapSense_CSD_EnableWidget
 714:.\Generated_Source\PSoC5/CapSense_CSD_CSHL.c **** ********************************************************************************
 715:.\Generated_Source\PSoC5/CapSense_CSD_CSHL.c **** *
 716:.\Generated_Source\PSoC5/CapSense_CSD_CSHL.c **** * Summary:
 717:.\Generated_Source\PSoC5/CapSense_CSD_CSHL.c **** *  Enable all widget elements (sensors) to scanning process.
 718:.\Generated_Source\PSoC5/CapSense_CSD_CSHL.c **** *
 719:.\Generated_Source\PSoC5/CapSense_CSD_CSHL.c **** * Parameters:
 720:.\Generated_Source\PSoC5/CapSense_CSD_CSHL.c **** *  widget:  widget number.
 721:.\Generated_Source\PSoC5/CapSense_CSD_CSHL.c **** *
 722:.\Generated_Source\PSoC5/CapSense_CSD_CSHL.c **** * Return:
 723:.\Generated_Source\PSoC5/CapSense_CSD_CSHL.c **** *  None
 724:.\Generated_Source\PSoC5/CapSense_CSD_CSHL.c **** *
 725:.\Generated_Source\PSoC5/CapSense_CSD_CSHL.c **** * Global Variables:
 726:.\Generated_Source\PSoC5/CapSense_CSD_CSHL.c **** *  CapSense_CSD_sensorEnableMask[] - used to store the sensor scanning 
 727:.\Generated_Source\PSoC5/CapSense_CSD_CSHL.c **** *  state.
 728:.\Generated_Source\PSoC5/CapSense_CSD_CSHL.c **** *  CapSense_CSD_sensorEnableMask[0] contains the masked bits for sensors 
 729:.\Generated_Source\PSoC5/CapSense_CSD_CSHL.c **** *  0 through 7 (sensor 0 is bit 0, sensor 1 is bit 1).
 730:.\Generated_Source\PSoC5/CapSense_CSD_CSHL.c **** *  CapSense_CSD_sensorEnableMask[1] contains the masked bits for 
 731:.\Generated_Source\PSoC5/CapSense_CSD_CSHL.c **** *  sensors 8 through 15 (if needed), and so on.
 732:.\Generated_Source\PSoC5/CapSense_CSD_CSHL.c **** *  0 - sensor doesn't scan by CapSense_CSD_ScanEnabledWidgets().
 733:.\Generated_Source\PSoC5/CapSense_CSD_CSHL.c **** *  1 - sensor scans by CapSense_CSD_ScanEnabledWidgets().
 734:.\Generated_Source\PSoC5/CapSense_CSD_CSHL.c **** *
 735:.\Generated_Source\PSoC5/CapSense_CSD_CSHL.c **** * Reentrant:
 736:.\Generated_Source\PSoC5/CapSense_CSD_CSHL.c **** *  No
 737:.\Generated_Source\PSoC5/CapSense_CSD_CSHL.c **** *
ARM GAS  C:\Users\mark6\AppData\Local\Temp\ccRowwUe.s 			page 31


 738:.\Generated_Source\PSoC5/CapSense_CSD_CSHL.c **** *******************************************************************************/
 739:.\Generated_Source\PSoC5/CapSense_CSD_CSHL.c **** void CapSense_CSD_EnableWidget(uint8 widget)
 740:.\Generated_Source\PSoC5/CapSense_CSD_CSHL.c ****                                    
 741:.\Generated_Source\PSoC5/CapSense_CSD_CSHL.c **** {
 962              		.loc 1 741 0
 963              		.cfi_startproc
 964              		@ args = 0, pretend = 0, frame = 16
 965              		@ frame_needed = 1, uses_anonymous_args = 0
 966              		@ link register save eliminated.
 967 0000 80B4     		push	{r7}
 968              		.cfi_def_cfa_offset 4
 969              		.cfi_offset 7, -4
 970 0002 85B0     		sub	sp, sp, #20
 971              		.cfi_def_cfa_offset 24
 972 0004 00AF     		add	r7, sp, #0
 973              		.cfi_def_cfa_register 7
 974 0006 0346     		mov	r3, r0
 975 0008 FB71     		strb	r3, [r7, #7]
 742:.\Generated_Source\PSoC5/CapSense_CSD_CSHL.c ****     uint8 pos;
 743:.\Generated_Source\PSoC5/CapSense_CSD_CSHL.c ****     uint8 enMask;
 744:.\Generated_Source\PSoC5/CapSense_CSD_CSHL.c ****     uint8 rawIndex = CapSense_CSD_rawDataIndex[widget];
 976              		.loc 1 744 0
 977 000a 0023     		movs	r3, #0
 978 000c FB73     		strb	r3, [r7, #15]
 745:.\Generated_Source\PSoC5/CapSense_CSD_CSHL.c ****     uint8 numberOfSensors = CapSense_CSD_numberOfSensors[widget] + rawIndex;
 979              		.loc 1 745 0
 980 000e 0122     		movs	r2, #1
 981 0010 FB7B     		ldrb	r3, [r7, #15]
 982 0012 1344     		add	r3, r3, r2
 983 0014 BB73     		strb	r3, [r7, #14]
 984              	.L57:
 746:.\Generated_Source\PSoC5/CapSense_CSD_CSHL.c ****     
 747:.\Generated_Source\PSoC5/CapSense_CSD_CSHL.c ****     /* Enable all sensors of the widget */
 748:.\Generated_Source\PSoC5/CapSense_CSD_CSHL.c ****     do
 749:.\Generated_Source\PSoC5/CapSense_CSD_CSHL.c ****     {
 750:.\Generated_Source\PSoC5/CapSense_CSD_CSHL.c ****         pos = (rawIndex >> 3u);
 985              		.loc 1 750 0 discriminator 1
 986 0016 FB7B     		ldrb	r3, [r7, #15]	@ zero_extendqisi2
 987 0018 DB08     		lsrs	r3, r3, #3
 988 001a 7B73     		strb	r3, [r7, #13]
 751:.\Generated_Source\PSoC5/CapSense_CSD_CSHL.c ****         enMask = 0x01u << (rawIndex & 0x07u);
 989              		.loc 1 751 0 discriminator 1
 990 001c FB7B     		ldrb	r3, [r7, #15]	@ zero_extendqisi2
 991 001e 03F00703 		and	r3, r3, #7
 992 0022 0122     		movs	r2, #1
 993 0024 02FA03F3 		lsl	r3, r2, r3
 994 0028 3B73     		strb	r3, [r7, #12]
 752:.\Generated_Source\PSoC5/CapSense_CSD_CSHL.c ****         
 753:.\Generated_Source\PSoC5/CapSense_CSD_CSHL.c ****         CapSense_CSD_sensorEnableMask[pos] |= enMask;
 995              		.loc 1 753 0 discriminator 1
 996 002a 7B7B     		ldrb	r3, [r7, #13]	@ zero_extendqisi2
 997 002c 7A7B     		ldrb	r2, [r7, #13]	@ zero_extendqisi2
 998 002e 0949     		ldr	r1, .L58
 999 0030 895C     		ldrb	r1, [r1, r2]	@ zero_extendqisi2
 1000 0032 3A7B     		ldrb	r2, [r7, #12]
 1001 0034 0A43     		orrs	r2, r2, r1
 1002 0036 D1B2     		uxtb	r1, r2
ARM GAS  C:\Users\mark6\AppData\Local\Temp\ccRowwUe.s 			page 32


 1003 0038 064A     		ldr	r2, .L58
 1004 003a D154     		strb	r1, [r2, r3]
 754:.\Generated_Source\PSoC5/CapSense_CSD_CSHL.c ****         rawIndex++;
 1005              		.loc 1 754 0 discriminator 1
 1006 003c FB7B     		ldrb	r3, [r7, #15]	@ zero_extendqisi2
 1007 003e 0133     		adds	r3, r3, #1
 1008 0040 FB73     		strb	r3, [r7, #15]
 755:.\Generated_Source\PSoC5/CapSense_CSD_CSHL.c ****     }
 756:.\Generated_Source\PSoC5/CapSense_CSD_CSHL.c ****     while(rawIndex < numberOfSensors);
 1009              		.loc 1 756 0 discriminator 1
 1010 0042 FA7B     		ldrb	r2, [r7, #15]	@ zero_extendqisi2
 1011 0044 BB7B     		ldrb	r3, [r7, #14]	@ zero_extendqisi2
 1012 0046 9A42     		cmp	r2, r3
 1013 0048 E5D3     		bcc	.L57
 757:.\Generated_Source\PSoC5/CapSense_CSD_CSHL.c ****     
 758:.\Generated_Source\PSoC5/CapSense_CSD_CSHL.c **** 
 759:.\Generated_Source\PSoC5/CapSense_CSD_CSHL.c **** }
 1014              		.loc 1 759 0
 1015 004a 1437     		adds	r7, r7, #20
 1016              		.cfi_def_cfa_offset 4
 1017 004c BD46     		mov	sp, r7
 1018              		.cfi_def_cfa_register 13
 1019              		@ sp needed
 1020 004e 5DF8047B 		ldr	r7, [sp], #4
 1021              		.cfi_restore 7
 1022              		.cfi_def_cfa_offset 0
 1023 0052 7047     		bx	lr
 1024              	.L59:
 1025              		.align	2
 1026              	.L58:
 1027 0054 00000000 		.word	CapSense_CSD_sensorEnableMask
 1028              		.cfi_endproc
 1029              	.LFE9:
 1030              		.size	CapSense_CSD_EnableWidget, .-CapSense_CSD_EnableWidget
 1031              		.section	.text.CapSense_CSD_DisableWidget,"ax",%progbits
 1032              		.align	2
 1033              		.global	CapSense_CSD_DisableWidget
 1034              		.thumb
 1035              		.thumb_func
 1036              		.type	CapSense_CSD_DisableWidget, %function
 1037              	CapSense_CSD_DisableWidget:
 1038              	.LFB10:
 760:.\Generated_Source\PSoC5/CapSense_CSD_CSHL.c **** 
 761:.\Generated_Source\PSoC5/CapSense_CSD_CSHL.c **** 
 762:.\Generated_Source\PSoC5/CapSense_CSD_CSHL.c **** /*******************************************************************************
 763:.\Generated_Source\PSoC5/CapSense_CSD_CSHL.c **** * Function Name: CapSense_CSD_DisableWidget
 764:.\Generated_Source\PSoC5/CapSense_CSD_CSHL.c **** ********************************************************************************
 765:.\Generated_Source\PSoC5/CapSense_CSD_CSHL.c **** *
 766:.\Generated_Source\PSoC5/CapSense_CSD_CSHL.c **** * Summary:
 767:.\Generated_Source\PSoC5/CapSense_CSD_CSHL.c **** *  Disable all widget elements (sensors) from scanning process.
 768:.\Generated_Source\PSoC5/CapSense_CSD_CSHL.c **** *
 769:.\Generated_Source\PSoC5/CapSense_CSD_CSHL.c **** * Parameters:
 770:.\Generated_Source\PSoC5/CapSense_CSD_CSHL.c **** *  widget:  widget number.
 771:.\Generated_Source\PSoC5/CapSense_CSD_CSHL.c **** *
 772:.\Generated_Source\PSoC5/CapSense_CSD_CSHL.c **** * Return:
 773:.\Generated_Source\PSoC5/CapSense_CSD_CSHL.c **** *  None
 774:.\Generated_Source\PSoC5/CapSense_CSD_CSHL.c **** *
ARM GAS  C:\Users\mark6\AppData\Local\Temp\ccRowwUe.s 			page 33


 775:.\Generated_Source\PSoC5/CapSense_CSD_CSHL.c **** * Global Variables:
 776:.\Generated_Source\PSoC5/CapSense_CSD_CSHL.c **** *  CapSense_CSD_sensorEnableMask[] - used to store the sensor scanning 
 777:.\Generated_Source\PSoC5/CapSense_CSD_CSHL.c **** *  state.
 778:.\Generated_Source\PSoC5/CapSense_CSD_CSHL.c **** *  CapSense_CSD_sensorEnableMask[0] contains the masked bits for sensors 
 779:.\Generated_Source\PSoC5/CapSense_CSD_CSHL.c **** *  0 through 7 (sensor 0 is bit 0, sensor 1 is bit 1).
 780:.\Generated_Source\PSoC5/CapSense_CSD_CSHL.c **** *  CapSense_CSD_sensorEnableMask[1] contains the masked bits for 
 781:.\Generated_Source\PSoC5/CapSense_CSD_CSHL.c **** *  sensors 8 through 15 (if needed), and so on.
 782:.\Generated_Source\PSoC5/CapSense_CSD_CSHL.c **** *  0 - sensor doesn't scan by CapSense_CSD_ScanEnabledWidgets().
 783:.\Generated_Source\PSoC5/CapSense_CSD_CSHL.c **** *  1 - sensor scans by CapSense_CSD_ScanEnabledWidgets().
 784:.\Generated_Source\PSoC5/CapSense_CSD_CSHL.c **** *
 785:.\Generated_Source\PSoC5/CapSense_CSD_CSHL.c **** * Reentrant:
 786:.\Generated_Source\PSoC5/CapSense_CSD_CSHL.c **** *  No
 787:.\Generated_Source\PSoC5/CapSense_CSD_CSHL.c **** *
 788:.\Generated_Source\PSoC5/CapSense_CSD_CSHL.c **** *******************************************************************************/
 789:.\Generated_Source\PSoC5/CapSense_CSD_CSHL.c **** void CapSense_CSD_DisableWidget(uint8 widget)
 790:.\Generated_Source\PSoC5/CapSense_CSD_CSHL.c ****                                     
 791:.\Generated_Source\PSoC5/CapSense_CSD_CSHL.c **** {
 1039              		.loc 1 791 0
 1040              		.cfi_startproc
 1041              		@ args = 0, pretend = 0, frame = 16
 1042              		@ frame_needed = 1, uses_anonymous_args = 0
 1043              		@ link register save eliminated.
 1044 0000 80B4     		push	{r7}
 1045              		.cfi_def_cfa_offset 4
 1046              		.cfi_offset 7, -4
 1047 0002 85B0     		sub	sp, sp, #20
 1048              		.cfi_def_cfa_offset 24
 1049 0004 00AF     		add	r7, sp, #0
 1050              		.cfi_def_cfa_register 7
 1051 0006 0346     		mov	r3, r0
 1052 0008 FB71     		strb	r3, [r7, #7]
 792:.\Generated_Source\PSoC5/CapSense_CSD_CSHL.c ****     uint8 pos;
 793:.\Generated_Source\PSoC5/CapSense_CSD_CSHL.c ****     uint8 enMask;
 794:.\Generated_Source\PSoC5/CapSense_CSD_CSHL.c ****     uint8 rawIndex = CapSense_CSD_rawDataIndex[widget];
 1053              		.loc 1 794 0
 1054 000a 0023     		movs	r3, #0
 1055 000c FB73     		strb	r3, [r7, #15]
 795:.\Generated_Source\PSoC5/CapSense_CSD_CSHL.c ****     uint8 numberOfSensors = CapSense_CSD_numberOfSensors[widget] + rawIndex;
 1056              		.loc 1 795 0
 1057 000e 0122     		movs	r2, #1
 1058 0010 FB7B     		ldrb	r3, [r7, #15]
 1059 0012 1344     		add	r3, r3, r2
 1060 0014 BB73     		strb	r3, [r7, #14]
 1061              	.L61:
 796:.\Generated_Source\PSoC5/CapSense_CSD_CSHL.c ****    
 797:.\Generated_Source\PSoC5/CapSense_CSD_CSHL.c ****     /* Disable all sensors of the widget */
 798:.\Generated_Source\PSoC5/CapSense_CSD_CSHL.c ****     do
 799:.\Generated_Source\PSoC5/CapSense_CSD_CSHL.c ****     {
 800:.\Generated_Source\PSoC5/CapSense_CSD_CSHL.c ****         pos = (rawIndex >> 3u);
 1062              		.loc 1 800 0 discriminator 1
 1063 0016 FB7B     		ldrb	r3, [r7, #15]	@ zero_extendqisi2
 1064 0018 DB08     		lsrs	r3, r3, #3
 1065 001a 7B73     		strb	r3, [r7, #13]
 801:.\Generated_Source\PSoC5/CapSense_CSD_CSHL.c ****         enMask = 0x01u << (rawIndex & 0x07u);
 1066              		.loc 1 801 0 discriminator 1
 1067 001c FB7B     		ldrb	r3, [r7, #15]	@ zero_extendqisi2
 1068 001e 03F00703 		and	r3, r3, #7
ARM GAS  C:\Users\mark6\AppData\Local\Temp\ccRowwUe.s 			page 34


 1069 0022 0122     		movs	r2, #1
 1070 0024 02FA03F3 		lsl	r3, r2, r3
 1071 0028 3B73     		strb	r3, [r7, #12]
 802:.\Generated_Source\PSoC5/CapSense_CSD_CSHL.c ****         
 803:.\Generated_Source\PSoC5/CapSense_CSD_CSHL.c ****         CapSense_CSD_sensorEnableMask[pos] &= (uint8)~enMask;
 1072              		.loc 1 803 0 discriminator 1
 1073 002a 7B7B     		ldrb	r3, [r7, #13]	@ zero_extendqisi2
 1074 002c 7A7B     		ldrb	r2, [r7, #13]	@ zero_extendqisi2
 1075 002e 0A49     		ldr	r1, .L62
 1076 0030 895C     		ldrb	r1, [r1, r2]	@ zero_extendqisi2
 1077 0032 3A7B     		ldrb	r2, [r7, #12]
 1078 0034 D243     		mvns	r2, r2
 1079 0036 D2B2     		uxtb	r2, r2
 1080 0038 0A40     		ands	r2, r2, r1
 1081 003a D1B2     		uxtb	r1, r2
 1082 003c 064A     		ldr	r2, .L62
 1083 003e D154     		strb	r1, [r2, r3]
 804:.\Generated_Source\PSoC5/CapSense_CSD_CSHL.c ****         rawIndex++;
 1084              		.loc 1 804 0 discriminator 1
 1085 0040 FB7B     		ldrb	r3, [r7, #15]	@ zero_extendqisi2
 1086 0042 0133     		adds	r3, r3, #1
 1087 0044 FB73     		strb	r3, [r7, #15]
 805:.\Generated_Source\PSoC5/CapSense_CSD_CSHL.c ****     }
 806:.\Generated_Source\PSoC5/CapSense_CSD_CSHL.c ****     while(rawIndex < numberOfSensors);
 1088              		.loc 1 806 0 discriminator 1
 1089 0046 FA7B     		ldrb	r2, [r7, #15]	@ zero_extendqisi2
 1090 0048 BB7B     		ldrb	r3, [r7, #14]	@ zero_extendqisi2
 1091 004a 9A42     		cmp	r2, r3
 1092 004c E3D3     		bcc	.L61
 807:.\Generated_Source\PSoC5/CapSense_CSD_CSHL.c ****     
 808:.\Generated_Source\PSoC5/CapSense_CSD_CSHL.c **** 
 809:.\Generated_Source\PSoC5/CapSense_CSD_CSHL.c **** }
 1093              		.loc 1 809 0
 1094 004e 1437     		adds	r7, r7, #20
 1095              		.cfi_def_cfa_offset 4
 1096 0050 BD46     		mov	sp, r7
 1097              		.cfi_def_cfa_register 13
 1098              		@ sp needed
 1099 0052 5DF8047B 		ldr	r7, [sp], #4
 1100              		.cfi_restore 7
 1101              		.cfi_def_cfa_offset 0
 1102 0056 7047     		bx	lr
 1103              	.L63:
 1104              		.align	2
 1105              	.L62:
 1106 0058 00000000 		.word	CapSense_CSD_sensorEnableMask
 1107              		.cfi_endproc
 1108              	.LFE10:
 1109              		.size	CapSense_CSD_DisableWidget, .-CapSense_CSD_DisableWidget
 1110              		.section	.text.CapSense_CSD_IIR4Filter,"ax",%progbits
 1111              		.align	2
 1112              		.global	CapSense_CSD_IIR4Filter
 1113              		.thumb
 1114              		.thumb_func
 1115              		.type	CapSense_CSD_IIR4Filter, %function
 1116              	CapSense_CSD_IIR4Filter:
 1117              	.LFB11:
ARM GAS  C:\Users\mark6\AppData\Local\Temp\ccRowwUe.s 			page 35


 810:.\Generated_Source\PSoC5/CapSense_CSD_CSHL.c **** #if(CapSense_CSD_TOTAL_CENTROIDS_COUNT)
 811:.\Generated_Source\PSoC5/CapSense_CSD_CSHL.c ****     /*******************************************************************************
 812:.\Generated_Source\PSoC5/CapSense_CSD_CSHL.c ****     * Function Name: CapSense_CSD_FindMaximum
 813:.\Generated_Source\PSoC5/CapSense_CSD_CSHL.c ****     ********************************************************************************
 814:.\Generated_Source\PSoC5/CapSense_CSD_CSHL.c ****     *
 815:.\Generated_Source\PSoC5/CapSense_CSD_CSHL.c ****     * Summary:
 816:.\Generated_Source\PSoC5/CapSense_CSD_CSHL.c ****     *  Finds index of maximum element within defined centroid. Checks 
 817:.\Generated_Source\PSoC5/CapSense_CSD_CSHL.c ****     *  CapSense_CSD_SensorSignal[] within defined cenrtoid and 
 818:.\Generated_Source\PSoC5/CapSense_CSD_CSHL.c ****     *  returns index of maximum element. The values below finger threshold are 
 819:.\Generated_Source\PSoC5/CapSense_CSD_CSHL.c ****     *  ignored.
 820:.\Generated_Source\PSoC5/CapSense_CSD_CSHL.c ****     *  The centrod defines by offset of first element and number of elements - count.
 821:.\Generated_Source\PSoC5/CapSense_CSD_CSHL.c ****     *  The diplexed centroid requires at least consecutive two elements above
 822:.\Generated_Source\PSoC5/CapSense_CSD_CSHL.c ****     *  FingerThreshold to find index of maximum element.
 823:.\Generated_Source\PSoC5/CapSense_CSD_CSHL.c ****     * 
 824:.\Generated_Source\PSoC5/CapSense_CSD_CSHL.c ****     * Parameters:
 825:.\Generated_Source\PSoC5/CapSense_CSD_CSHL.c ****     *  offset:  Start index of cetroid in CapSense_CSD_sensorSignal[] array.
 826:.\Generated_Source\PSoC5/CapSense_CSD_CSHL.c ****     *  count:   number of elements within centroid.
 827:.\Generated_Source\PSoC5/CapSense_CSD_CSHL.c ****     *  fingerThreshold:  Finger threshould.
 828:.\Generated_Source\PSoC5/CapSense_CSD_CSHL.c ****     *  diplex:   pointer to diplex table.
 829:.\Generated_Source\PSoC5/CapSense_CSD_CSHL.c ****     * 
 830:.\Generated_Source\PSoC5/CapSense_CSD_CSHL.c ****     * Return:
 831:.\Generated_Source\PSoC5/CapSense_CSD_CSHL.c ****     *  Returns index of maximum element within defined centroid.
 832:.\Generated_Source\PSoC5/CapSense_CSD_CSHL.c ****     *  If index of maximum element doesn't find the 0xFF returns.
 833:.\Generated_Source\PSoC5/CapSense_CSD_CSHL.c ****     * 
 834:.\Generated_Source\PSoC5/CapSense_CSD_CSHL.c ****     *******************************************************************************/
 835:.\Generated_Source\PSoC5/CapSense_CSD_CSHL.c ****     #if (CapSense_CSD_IS_DIPLEX_SLIDER)
 836:.\Generated_Source\PSoC5/CapSense_CSD_CSHL.c ****         uint8 CapSense_CSD_FindMaximum(uint8 offset, uint8 count, uint8 fingerThreshold, const uint
 837:.\Generated_Source\PSoC5/CapSense_CSD_CSHL.c **** 	                                       
 838:.\Generated_Source\PSoC5/CapSense_CSD_CSHL.c ****     #else 
 839:.\Generated_Source\PSoC5/CapSense_CSD_CSHL.c ****         uint8 CapSense_CSD_FindMaximum(uint8 offset, uint8 count, uint8 fingerThreshold)
 840:.\Generated_Source\PSoC5/CapSense_CSD_CSHL.c **** 	                                       
 841:.\Generated_Source\PSoC5/CapSense_CSD_CSHL.c ****     #endif /* (CapSense_CSD_IS_DIPLEX_SLIDER) */
 842:.\Generated_Source\PSoC5/CapSense_CSD_CSHL.c ****     {
 843:.\Generated_Source\PSoC5/CapSense_CSD_CSHL.c ****         uint8 i;
 844:.\Generated_Source\PSoC5/CapSense_CSD_CSHL.c ****         #if (CapSense_CSD_IS_DIPLEX_SLIDER)        
 845:.\Generated_Source\PSoC5/CapSense_CSD_CSHL.c ****             uint8 curPos = 0u;
 846:.\Generated_Source\PSoC5/CapSense_CSD_CSHL.c ****             /* No centroid at the Start */
 847:.\Generated_Source\PSoC5/CapSense_CSD_CSHL.c ****             uint8 curCntrdSize = 0u;
 848:.\Generated_Source\PSoC5/CapSense_CSD_CSHL.c ****             uint8 curCtrdStartPos = 0xFFu;
 849:.\Generated_Source\PSoC5/CapSense_CSD_CSHL.c ****             /* The biggset centroid is zero */
 850:.\Generated_Source\PSoC5/CapSense_CSD_CSHL.c ****             uint8 biggestCtrdSize = 0u;
 851:.\Generated_Source\PSoC5/CapSense_CSD_CSHL.c ****             uint8 biggestCtrdStartPos = 0u;
 852:.\Generated_Source\PSoC5/CapSense_CSD_CSHL.c ****         #endif /* (CapSense_CSD_IS_DIPLEX_SLIDER) */
 853:.\Generated_Source\PSoC5/CapSense_CSD_CSHL.c ****         uint8 maximum = 0xFFu;
 854:.\Generated_Source\PSoC5/CapSense_CSD_CSHL.c ****         uint8 temp = 0u;
 855:.\Generated_Source\PSoC5/CapSense_CSD_CSHL.c ****         uint8 *startOfSlider = &CapSense_CSD_sensorSignal[offset]; 
 856:.\Generated_Source\PSoC5/CapSense_CSD_CSHL.c **** 
 857:.\Generated_Source\PSoC5/CapSense_CSD_CSHL.c ****         #if (CapSense_CSD_IS_DIPLEX_SLIDER)        
 858:.\Generated_Source\PSoC5/CapSense_CSD_CSHL.c ****             if(diplex != 0u)
 859:.\Generated_Source\PSoC5/CapSense_CSD_CSHL.c ****             {
 860:.\Generated_Source\PSoC5/CapSense_CSD_CSHL.c ****                 /* Initialize */
 861:.\Generated_Source\PSoC5/CapSense_CSD_CSHL.c ****                 i = 0u;
 862:.\Generated_Source\PSoC5/CapSense_CSD_CSHL.c ****                 
 863:.\Generated_Source\PSoC5/CapSense_CSD_CSHL.c ****                 /* Make slider x2 as Diplexed */
 864:.\Generated_Source\PSoC5/CapSense_CSD_CSHL.c ****                 count <<= 1u;
 865:.\Generated_Source\PSoC5/CapSense_CSD_CSHL.c ****                 while(1u)
 866:.\Generated_Source\PSoC5/CapSense_CSD_CSHL.c ****                 { 
ARM GAS  C:\Users\mark6\AppData\Local\Temp\ccRowwUe.s 			page 36


 867:.\Generated_Source\PSoC5/CapSense_CSD_CSHL.c ****                     if (startOfSlider[curPos] > 0u)    /* Looking for centroids */
 868:.\Generated_Source\PSoC5/CapSense_CSD_CSHL.c ****                     {
 869:.\Generated_Source\PSoC5/CapSense_CSD_CSHL.c ****                         if (curCtrdStartPos == 0xFFu)
 870:.\Generated_Source\PSoC5/CapSense_CSD_CSHL.c ****                         {
 871:.\Generated_Source\PSoC5/CapSense_CSD_CSHL.c ****                             /* Start of centroid */
 872:.\Generated_Source\PSoC5/CapSense_CSD_CSHL.c ****                             curCtrdStartPos = i;
 873:.\Generated_Source\PSoC5/CapSense_CSD_CSHL.c ****                             curCntrdSize++;
 874:.\Generated_Source\PSoC5/CapSense_CSD_CSHL.c ****                         }
 875:.\Generated_Source\PSoC5/CapSense_CSD_CSHL.c ****                         else
 876:.\Generated_Source\PSoC5/CapSense_CSD_CSHL.c ****                         {
 877:.\Generated_Source\PSoC5/CapSense_CSD_CSHL.c ****                             curCntrdSize++;
 878:.\Generated_Source\PSoC5/CapSense_CSD_CSHL.c ****                         }
 879:.\Generated_Source\PSoC5/CapSense_CSD_CSHL.c ****                     }
 880:.\Generated_Source\PSoC5/CapSense_CSD_CSHL.c ****                     else   /* Select the bigest and indicate zero start */
 881:.\Generated_Source\PSoC5/CapSense_CSD_CSHL.c ****                     {          
 882:.\Generated_Source\PSoC5/CapSense_CSD_CSHL.c ****                         if(curCntrdSize > 0u)
 883:.\Generated_Source\PSoC5/CapSense_CSD_CSHL.c ****                         {
 884:.\Generated_Source\PSoC5/CapSense_CSD_CSHL.c ****                             /* We are in the end of current */
 885:.\Generated_Source\PSoC5/CapSense_CSD_CSHL.c ****                             if(curCntrdSize > biggestCtrdSize)
 886:.\Generated_Source\PSoC5/CapSense_CSD_CSHL.c ****                             {
 887:.\Generated_Source\PSoC5/CapSense_CSD_CSHL.c ****                                 biggestCtrdSize = curCntrdSize;
 888:.\Generated_Source\PSoC5/CapSense_CSD_CSHL.c ****                                 biggestCtrdStartPos = curCtrdStartPos;
 889:.\Generated_Source\PSoC5/CapSense_CSD_CSHL.c ****                             }
 890:.\Generated_Source\PSoC5/CapSense_CSD_CSHL.c ****                             
 891:.\Generated_Source\PSoC5/CapSense_CSD_CSHL.c ****                             curCntrdSize = 0u;
 892:.\Generated_Source\PSoC5/CapSense_CSD_CSHL.c ****                             curCtrdStartPos = 0xFFu;
 893:.\Generated_Source\PSoC5/CapSense_CSD_CSHL.c ****                         }
 894:.\Generated_Source\PSoC5/CapSense_CSD_CSHL.c ****                     }
 895:.\Generated_Source\PSoC5/CapSense_CSD_CSHL.c ****                     
 896:.\Generated_Source\PSoC5/CapSense_CSD_CSHL.c ****                     i++; 
 897:.\Generated_Source\PSoC5/CapSense_CSD_CSHL.c ****                     curPos = diplex[i];
 898:.\Generated_Source\PSoC5/CapSense_CSD_CSHL.c ****                     if(i == count)
 899:.\Generated_Source\PSoC5/CapSense_CSD_CSHL.c ****                     {
 900:.\Generated_Source\PSoC5/CapSense_CSD_CSHL.c ****                         break;
 901:.\Generated_Source\PSoC5/CapSense_CSD_CSHL.c ****                     }            
 902:.\Generated_Source\PSoC5/CapSense_CSD_CSHL.c ****                 }
 903:.\Generated_Source\PSoC5/CapSense_CSD_CSHL.c ****                     
 904:.\Generated_Source\PSoC5/CapSense_CSD_CSHL.c ****                     /* Find the biggest centroid if two are the same size, last one wins
 905:.\Generated_Source\PSoC5/CapSense_CSD_CSHL.c ****                        We are in the end of current */
 906:.\Generated_Source\PSoC5/CapSense_CSD_CSHL.c ****                 if (curCntrdSize >= biggestCtrdSize) 
 907:.\Generated_Source\PSoC5/CapSense_CSD_CSHL.c ****                 {
 908:.\Generated_Source\PSoC5/CapSense_CSD_CSHL.c ****                     biggestCtrdSize = curCntrdSize;
 909:.\Generated_Source\PSoC5/CapSense_CSD_CSHL.c ****                     biggestCtrdStartPos = curCtrdStartPos;
 910:.\Generated_Source\PSoC5/CapSense_CSD_CSHL.c ****                 }
 911:.\Generated_Source\PSoC5/CapSense_CSD_CSHL.c ****             }
 912:.\Generated_Source\PSoC5/CapSense_CSD_CSHL.c ****             else
 913:.\Generated_Source\PSoC5/CapSense_CSD_CSHL.c ****             {
 914:.\Generated_Source\PSoC5/CapSense_CSD_CSHL.c ****                 /* Without diplexing */ 
 915:.\Generated_Source\PSoC5/CapSense_CSD_CSHL.c ****                 biggestCtrdSize = count;
 916:.\Generated_Source\PSoC5/CapSense_CSD_CSHL.c ****             }
 917:.\Generated_Source\PSoC5/CapSense_CSD_CSHL.c ****                         
 918:.\Generated_Source\PSoC5/CapSense_CSD_CSHL.c **** 
 919:.\Generated_Source\PSoC5/CapSense_CSD_CSHL.c ****             /* Check centroid size */
 920:.\Generated_Source\PSoC5/CapSense_CSD_CSHL.c ****             #if (CapSense_CSD_IS_NON_DIPLEX_SLIDER)
 921:.\Generated_Source\PSoC5/CapSense_CSD_CSHL.c ****                 if((biggestCtrdSize >= 2u) || ((biggestCtrdSize == 1u) && (diplex == 0u)))
 922:.\Generated_Source\PSoC5/CapSense_CSD_CSHL.c ****             #else                    
 923:.\Generated_Source\PSoC5/CapSense_CSD_CSHL.c ****                 if(biggestCtrdSize >= 2u)
ARM GAS  C:\Users\mark6\AppData\Local\Temp\ccRowwUe.s 			page 37


 924:.\Generated_Source\PSoC5/CapSense_CSD_CSHL.c ****             #endif /* (CapSense_CSD_IS_NON_DIPLEX_SLIDER) */
 925:.\Generated_Source\PSoC5/CapSense_CSD_CSHL.c ****                 {
 926:.\Generated_Source\PSoC5/CapSense_CSD_CSHL.c ****                     for (i = biggestCtrdStartPos; i < (biggestCtrdStartPos + biggestCtrdSize); i++)
 927:.\Generated_Source\PSoC5/CapSense_CSD_CSHL.c ****                     {
 928:.\Generated_Source\PSoC5/CapSense_CSD_CSHL.c ****                         #if (CapSense_CSD_IS_DIPLEX_SLIDER && CapSense_CSD_IS_NON_DIPLEX_SLIDER)
 929:.\Generated_Source\PSoC5/CapSense_CSD_CSHL.c ****                             if (diplex == 0u)
 930:.\Generated_Source\PSoC5/CapSense_CSD_CSHL.c ****                             {
 931:.\Generated_Source\PSoC5/CapSense_CSD_CSHL.c ****                                 curPos = i;
 932:.\Generated_Source\PSoC5/CapSense_CSD_CSHL.c ****                             }
 933:.\Generated_Source\PSoC5/CapSense_CSD_CSHL.c ****                             else
 934:.\Generated_Source\PSoC5/CapSense_CSD_CSHL.c ****                             {
 935:.\Generated_Source\PSoC5/CapSense_CSD_CSHL.c ****                                 curPos = diplex[i];
 936:.\Generated_Source\PSoC5/CapSense_CSD_CSHL.c ****                             }                    
 937:.\Generated_Source\PSoC5/CapSense_CSD_CSHL.c ****                         #elif (CapSense_CSD_IS_DIPLEX_SLIDER)                    
 938:.\Generated_Source\PSoC5/CapSense_CSD_CSHL.c ****                             curPos = diplex[i];                    
 939:.\Generated_Source\PSoC5/CapSense_CSD_CSHL.c ****                         #endif /* (CapSense_CSD_IS_DIPLEX_SLIDER && CapSense_CSD_IS_NON_DIPLEX_SLID
 940:.\Generated_Source\PSoC5/CapSense_CSD_CSHL.c ****                         /* Looking for the grater element within centroid */
 941:.\Generated_Source\PSoC5/CapSense_CSD_CSHL.c ****                         if(startOfSlider[curPos] > fingerThreshold)
 942:.\Generated_Source\PSoC5/CapSense_CSD_CSHL.c ****                         {
 943:.\Generated_Source\PSoC5/CapSense_CSD_CSHL.c ****                             if(startOfSlider[curPos] > temp)
 944:.\Generated_Source\PSoC5/CapSense_CSD_CSHL.c ****                             {
 945:.\Generated_Source\PSoC5/CapSense_CSD_CSHL.c ****                                 maximum = i;
 946:.\Generated_Source\PSoC5/CapSense_CSD_CSHL.c ****                                 temp = startOfSlider[curPos];
 947:.\Generated_Source\PSoC5/CapSense_CSD_CSHL.c ****                             }
 948:.\Generated_Source\PSoC5/CapSense_CSD_CSHL.c ****                         }
 949:.\Generated_Source\PSoC5/CapSense_CSD_CSHL.c ****                     }
 950:.\Generated_Source\PSoC5/CapSense_CSD_CSHL.c ****                 } 
 951:.\Generated_Source\PSoC5/CapSense_CSD_CSHL.c ****         #else
 952:.\Generated_Source\PSoC5/CapSense_CSD_CSHL.c ****             for (i = 0u; i < count; i++)
 953:.\Generated_Source\PSoC5/CapSense_CSD_CSHL.c ****             {                      
 954:.\Generated_Source\PSoC5/CapSense_CSD_CSHL.c ****                 /* Looking for the grater element within centroid */
 955:.\Generated_Source\PSoC5/CapSense_CSD_CSHL.c ****                 if(startOfSlider[i] > fingerThreshold)
 956:.\Generated_Source\PSoC5/CapSense_CSD_CSHL.c ****                 {
 957:.\Generated_Source\PSoC5/CapSense_CSD_CSHL.c ****                     if(startOfSlider[i] > temp)
 958:.\Generated_Source\PSoC5/CapSense_CSD_CSHL.c ****                     {
 959:.\Generated_Source\PSoC5/CapSense_CSD_CSHL.c ****                         maximum = i;
 960:.\Generated_Source\PSoC5/CapSense_CSD_CSHL.c ****                         temp = startOfSlider[i];
 961:.\Generated_Source\PSoC5/CapSense_CSD_CSHL.c ****                     }
 962:.\Generated_Source\PSoC5/CapSense_CSD_CSHL.c ****                 }
 963:.\Generated_Source\PSoC5/CapSense_CSD_CSHL.c ****             }    
 964:.\Generated_Source\PSoC5/CapSense_CSD_CSHL.c ****         #endif /* (CapSense_CSD_IS_DIPLEX_SLIDER) */
 965:.\Generated_Source\PSoC5/CapSense_CSD_CSHL.c ****         return (maximum);
 966:.\Generated_Source\PSoC5/CapSense_CSD_CSHL.c ****     }
 967:.\Generated_Source\PSoC5/CapSense_CSD_CSHL.c ****     
 968:.\Generated_Source\PSoC5/CapSense_CSD_CSHL.c ****     
 969:.\Generated_Source\PSoC5/CapSense_CSD_CSHL.c ****     /*******************************************************************************
 970:.\Generated_Source\PSoC5/CapSense_CSD_CSHL.c ****     * Function Name: CapSense_CSD_CalcCentroid
 971:.\Generated_Source\PSoC5/CapSense_CSD_CSHL.c ****     ********************************************************************************
 972:.\Generated_Source\PSoC5/CapSense_CSD_CSHL.c ****     *
 973:.\Generated_Source\PSoC5/CapSense_CSD_CSHL.c ****     * Summary:
 974:.\Generated_Source\PSoC5/CapSense_CSD_CSHL.c ****     *  Returns position value calculated accoring index of maximum element and API
 975:.\Generated_Source\PSoC5/CapSense_CSD_CSHL.c ****     *  resolution.
 976:.\Generated_Source\PSoC5/CapSense_CSD_CSHL.c ****     *
 977:.\Generated_Source\PSoC5/CapSense_CSD_CSHL.c ****     * Parameters:
 978:.\Generated_Source\PSoC5/CapSense_CSD_CSHL.c ****     *  type:  widget type.
 979:.\Generated_Source\PSoC5/CapSense_CSD_CSHL.c ****     *  diplex:  pointer to diplex table.
 980:.\Generated_Source\PSoC5/CapSense_CSD_CSHL.c ****     *  maximum:  Index of maximum element within centroid.
ARM GAS  C:\Users\mark6\AppData\Local\Temp\ccRowwUe.s 			page 38


 981:.\Generated_Source\PSoC5/CapSense_CSD_CSHL.c ****     *  offset:   Start index of cetroid in CapSense_CSD_SensorSignal[] array.
 982:.\Generated_Source\PSoC5/CapSense_CSD_CSHL.c ****     *  count:    Number of elements within centroid.
 983:.\Generated_Source\PSoC5/CapSense_CSD_CSHL.c ****     *  resolution:  multiplicator calculated according to centroid type and
 984:.\Generated_Source\PSoC5/CapSense_CSD_CSHL.c ****     *  API resolution.
 985:.\Generated_Source\PSoC5/CapSense_CSD_CSHL.c ****     *  noiseThreshold:  Noise threshould.
 986:.\Generated_Source\PSoC5/CapSense_CSD_CSHL.c ****     * 
 987:.\Generated_Source\PSoC5/CapSense_CSD_CSHL.c ****     * Return:
 988:.\Generated_Source\PSoC5/CapSense_CSD_CSHL.c ****     *  Returns position value of the slider.
 989:.\Generated_Source\PSoC5/CapSense_CSD_CSHL.c ****     * 
 990:.\Generated_Source\PSoC5/CapSense_CSD_CSHL.c ****     *
 991:.\Generated_Source\PSoC5/CapSense_CSD_CSHL.c ****     * Reentrant:
 992:.\Generated_Source\PSoC5/CapSense_CSD_CSHL.c ****     *  No.
 993:.\Generated_Source\PSoC5/CapSense_CSD_CSHL.c ****     *
 994:.\Generated_Source\PSoC5/CapSense_CSD_CSHL.c ****     *******************************************************************************/
 995:.\Generated_Source\PSoC5/CapSense_CSD_CSHL.c ****     uint8 CapSense_CSD_CalcCentroid(uint8 maximum, uint8 offset, 
 996:.\Generated_Source\PSoC5/CapSense_CSD_CSHL.c ****                                         uint8 count, uint16 resolution, uint8 noiseThreshold)
 997:.\Generated_Source\PSoC5/CapSense_CSD_CSHL.c **** 	                                    
 998:.\Generated_Source\PSoC5/CapSense_CSD_CSHL.c ****     {
 999:.\Generated_Source\PSoC5/CapSense_CSD_CSHL.c ****         #if ((CapSense_CSD_TOTAL_LINEAR_SLIDERS_COUNT > 0u) || (CapSense_CSD_TOTAL_TOUCH_PADS_COUNT
1000:.\Generated_Source\PSoC5/CapSense_CSD_CSHL.c ****             uint8 posPrev = 0u;
1001:.\Generated_Source\PSoC5/CapSense_CSD_CSHL.c ****             uint8 posNext = 0u;
1002:.\Generated_Source\PSoC5/CapSense_CSD_CSHL.c ****         #endif /* ((CapSense_CSD_TOTAL_LINEAR_SLIDERS_COUNT>0u) || (CapSense_CSD_TOTAL_TOUCH_PADS_C
1003:.\Generated_Source\PSoC5/CapSense_CSD_CSHL.c ****                
1004:.\Generated_Source\PSoC5/CapSense_CSD_CSHL.c ****         #if (CapSense_CSD_IS_DIPLEX_SLIDER)                
1005:.\Generated_Source\PSoC5/CapSense_CSD_CSHL.c ****             uint8 pos;
1006:.\Generated_Source\PSoC5/CapSense_CSD_CSHL.c ****         #endif /* (CapSense_CSD_IS_DIPLEX_SLIDER) */
1007:.\Generated_Source\PSoC5/CapSense_CSD_CSHL.c ****         
1008:.\Generated_Source\PSoC5/CapSense_CSD_CSHL.c ****         /* Helps while centroid calulation */
1009:.\Generated_Source\PSoC5/CapSense_CSD_CSHL.c ****         static uint8 CapSense_CSD_centroid[3u];
1010:.\Generated_Source\PSoC5/CapSense_CSD_CSHL.c **** 
1011:.\Generated_Source\PSoC5/CapSense_CSD_CSHL.c ****         uint8 position;
1012:.\Generated_Source\PSoC5/CapSense_CSD_CSHL.c ****         uint32 numerator;
1013:.\Generated_Source\PSoC5/CapSense_CSD_CSHL.c ****         int32 denominator;
1014:.\Generated_Source\PSoC5/CapSense_CSD_CSHL.c ****         uint8 *startOfSlider = &CapSense_CSD_sensorSignal[offset];
1015:.\Generated_Source\PSoC5/CapSense_CSD_CSHL.c ****                     
1016:.\Generated_Source\PSoC5/CapSense_CSD_CSHL.c ****         #if (CapSense_CSD_ADD_SLIDER_TYPE)
1017:.\Generated_Source\PSoC5/CapSense_CSD_CSHL.c ****             if(type == CapSense_CSD_TYPE_RADIAL_SLIDER)
1018:.\Generated_Source\PSoC5/CapSense_CSD_CSHL.c ****             {
1019:.\Generated_Source\PSoC5/CapSense_CSD_CSHL.c ****         #endif /* (CapSense_CSD_ADD_SLIDER_TYPE) */
1020:.\Generated_Source\PSoC5/CapSense_CSD_CSHL.c **** 
1021:.\Generated_Source\PSoC5/CapSense_CSD_CSHL.c ****             #if (CapSense_CSD_TOTAL_RADIAL_SLIDERS_COUNT > 0u)                
1022:.\Generated_Source\PSoC5/CapSense_CSD_CSHL.c ****                 /* Copy Signal for found centriod */
1023:.\Generated_Source\PSoC5/CapSense_CSD_CSHL.c ****                 CapSense_CSD_centroid[CapSense_CSD_POS] = startOfSlider[maximum];
1024:.\Generated_Source\PSoC5/CapSense_CSD_CSHL.c ****                  
1025:.\Generated_Source\PSoC5/CapSense_CSD_CSHL.c ****                 /* Check borders for ROTARY Slider */
1026:.\Generated_Source\PSoC5/CapSense_CSD_CSHL.c ****                 if (maximum == 0u)                   /* Start of centroid */
1027:.\Generated_Source\PSoC5/CapSense_CSD_CSHL.c ****                 { 
1028:.\Generated_Source\PSoC5/CapSense_CSD_CSHL.c ****                     CapSense_CSD_centroid[CapSense_CSD_POS_PREV] = startOfSlider[count - 1u];
1029:.\Generated_Source\PSoC5/CapSense_CSD_CSHL.c ****                     CapSense_CSD_centroid[CapSense_CSD_POS_NEXT] = startOfSlider[1u];
1030:.\Generated_Source\PSoC5/CapSense_CSD_CSHL.c ****                 }
1031:.\Generated_Source\PSoC5/CapSense_CSD_CSHL.c ****                 else if (maximum == (count - 1u))    /* End of centroid */
1032:.\Generated_Source\PSoC5/CapSense_CSD_CSHL.c ****                 {
1033:.\Generated_Source\PSoC5/CapSense_CSD_CSHL.c ****                     CapSense_CSD_centroid[CapSense_CSD_POS_PREV] = startOfSlider[maximum - 1u];
1034:.\Generated_Source\PSoC5/CapSense_CSD_CSHL.c ****                     CapSense_CSD_centroid[CapSense_CSD_POS_NEXT] = startOfSlider[0u];
1035:.\Generated_Source\PSoC5/CapSense_CSD_CSHL.c ****                 }
1036:.\Generated_Source\PSoC5/CapSense_CSD_CSHL.c ****                 else                                /* Not first Not last */
1037:.\Generated_Source\PSoC5/CapSense_CSD_CSHL.c ****                 {
ARM GAS  C:\Users\mark6\AppData\Local\Temp\ccRowwUe.s 			page 39


1038:.\Generated_Source\PSoC5/CapSense_CSD_CSHL.c ****                     CapSense_CSD_centroid[CapSense_CSD_POS_PREV] = startOfSlider[maximum - 1u];
1039:.\Generated_Source\PSoC5/CapSense_CSD_CSHL.c ****                     CapSense_CSD_centroid[CapSense_CSD_POS_NEXT] = startOfSlider[maximum + 1u];
1040:.\Generated_Source\PSoC5/CapSense_CSD_CSHL.c ****                 }
1041:.\Generated_Source\PSoC5/CapSense_CSD_CSHL.c ****             #endif /* (CapSense_CSD_TOTAL_RADIAL_SLIDERS_COUNT > 0u) */
1042:.\Generated_Source\PSoC5/CapSense_CSD_CSHL.c **** 
1043:.\Generated_Source\PSoC5/CapSense_CSD_CSHL.c ****         #if (CapSense_CSD_ADD_SLIDER_TYPE)
1044:.\Generated_Source\PSoC5/CapSense_CSD_CSHL.c ****             }
1045:.\Generated_Source\PSoC5/CapSense_CSD_CSHL.c ****             else
1046:.\Generated_Source\PSoC5/CapSense_CSD_CSHL.c ****             {
1047:.\Generated_Source\PSoC5/CapSense_CSD_CSHL.c ****         #endif /* (CapSense_CSD_ADD_SLIDER_TYPE) */
1048:.\Generated_Source\PSoC5/CapSense_CSD_CSHL.c **** 
1049:.\Generated_Source\PSoC5/CapSense_CSD_CSHL.c ****             #if ((CapSense_CSD_TOTAL_LINEAR_SLIDERS_COUNT > 0u) || (CapSense_CSD_TOTAL_TOUCH_PADS_C
1050:.\Generated_Source\PSoC5/CapSense_CSD_CSHL.c ****                 #if (CapSense_CSD_IS_DIPLEX_SLIDER && CapSense_CSD_IS_NON_DIPLEX_SLIDER)           
1051:.\Generated_Source\PSoC5/CapSense_CSD_CSHL.c ****                     /* Calculate next and previous near to maximum */
1052:.\Generated_Source\PSoC5/CapSense_CSD_CSHL.c ****                     if(diplex == 0u)
1053:.\Generated_Source\PSoC5/CapSense_CSD_CSHL.c ****                     {
1054:.\Generated_Source\PSoC5/CapSense_CSD_CSHL.c ****                         pos     = maximum;
1055:.\Generated_Source\PSoC5/CapSense_CSD_CSHL.c ****                         posPrev = maximum - 1u;
1056:.\Generated_Source\PSoC5/CapSense_CSD_CSHL.c ****                         posNext = maximum + 1u; 
1057:.\Generated_Source\PSoC5/CapSense_CSD_CSHL.c ****                     }
1058:.\Generated_Source\PSoC5/CapSense_CSD_CSHL.c ****                     else
1059:.\Generated_Source\PSoC5/CapSense_CSD_CSHL.c ****                     {
1060:.\Generated_Source\PSoC5/CapSense_CSD_CSHL.c ****                         pos     = diplex[maximum];
1061:.\Generated_Source\PSoC5/CapSense_CSD_CSHL.c ****                         posPrev = diplex[maximum - 1u];
1062:.\Generated_Source\PSoC5/CapSense_CSD_CSHL.c ****                         posNext = diplex[maximum + 1u];
1063:.\Generated_Source\PSoC5/CapSense_CSD_CSHL.c ****                         count <<= 1u;
1064:.\Generated_Source\PSoC5/CapSense_CSD_CSHL.c ****                     }                    
1065:.\Generated_Source\PSoC5/CapSense_CSD_CSHL.c ****                 #elif (CapSense_CSD_IS_DIPLEX_SLIDER)
1066:.\Generated_Source\PSoC5/CapSense_CSD_CSHL.c ****                     /* Calculate next and previous near to maximum */
1067:.\Generated_Source\PSoC5/CapSense_CSD_CSHL.c ****                     pos     = diplex[maximum];
1068:.\Generated_Source\PSoC5/CapSense_CSD_CSHL.c ****                     posPrev = diplex[maximum - 1u];
1069:.\Generated_Source\PSoC5/CapSense_CSD_CSHL.c ****                     posNext = diplex[maximum + 1u];
1070:.\Generated_Source\PSoC5/CapSense_CSD_CSHL.c ****                     count <<= 1u;                    
1071:.\Generated_Source\PSoC5/CapSense_CSD_CSHL.c ****                 #else                    
1072:.\Generated_Source\PSoC5/CapSense_CSD_CSHL.c ****                     /* Calculate next and previous near to maximum */
1073:.\Generated_Source\PSoC5/CapSense_CSD_CSHL.c ****                     if (maximum >= 1u)
1074:.\Generated_Source\PSoC5/CapSense_CSD_CSHL.c ****                     {
1075:.\Generated_Source\PSoC5/CapSense_CSD_CSHL.c ****                         posPrev = maximum - 1u;
1076:.\Generated_Source\PSoC5/CapSense_CSD_CSHL.c ****                     }
1077:.\Generated_Source\PSoC5/CapSense_CSD_CSHL.c ****                     posNext = maximum + 1u; 
1078:.\Generated_Source\PSoC5/CapSense_CSD_CSHL.c ****                 #endif /* (CapSense_CSD_IS_DIPLEX_SLIDER && CapSense_CSD_IS_NON_DIPLEX_SLIDER) */
1079:.\Generated_Source\PSoC5/CapSense_CSD_CSHL.c ****                         
1080:.\Generated_Source\PSoC5/CapSense_CSD_CSHL.c ****                 /* Copy Signal for found centriod */
1081:.\Generated_Source\PSoC5/CapSense_CSD_CSHL.c ****                 #if (CapSense_CSD_IS_DIPLEX_SLIDER)
1082:.\Generated_Source\PSoC5/CapSense_CSD_CSHL.c ****                     CapSense_CSD_centroid[CapSense_CSD_POS] = startOfSlider[pos];
1083:.\Generated_Source\PSoC5/CapSense_CSD_CSHL.c ****                 #else
1084:.\Generated_Source\PSoC5/CapSense_CSD_CSHL.c ****                     CapSense_CSD_centroid[CapSense_CSD_POS] = startOfSlider[maximum];
1085:.\Generated_Source\PSoC5/CapSense_CSD_CSHL.c ****                 #endif /* (CapSense_CSD_IS_DIPLEX_SLIDER) */
1086:.\Generated_Source\PSoC5/CapSense_CSD_CSHL.c ****                     
1087:.\Generated_Source\PSoC5/CapSense_CSD_CSHL.c ****                 /* Check borders for LINEAR Slider */
1088:.\Generated_Source\PSoC5/CapSense_CSD_CSHL.c ****                 if (maximum == 0u)                   /* Start of centroid */
1089:.\Generated_Source\PSoC5/CapSense_CSD_CSHL.c ****                 { 
1090:.\Generated_Source\PSoC5/CapSense_CSD_CSHL.c ****                     CapSense_CSD_centroid[CapSense_CSD_POS_PREV] = 0u;
1091:.\Generated_Source\PSoC5/CapSense_CSD_CSHL.c ****                     CapSense_CSD_centroid[CapSense_CSD_POS_NEXT] = startOfSlider[posNext];
1092:.\Generated_Source\PSoC5/CapSense_CSD_CSHL.c ****                 }
1093:.\Generated_Source\PSoC5/CapSense_CSD_CSHL.c ****                 else if (maximum == ((count) - 1u)) /* End of centroid */
1094:.\Generated_Source\PSoC5/CapSense_CSD_CSHL.c ****                 {
ARM GAS  C:\Users\mark6\AppData\Local\Temp\ccRowwUe.s 			page 40


1095:.\Generated_Source\PSoC5/CapSense_CSD_CSHL.c ****                     CapSense_CSD_centroid[CapSense_CSD_POS_PREV] = startOfSlider[posPrev];
1096:.\Generated_Source\PSoC5/CapSense_CSD_CSHL.c ****                     CapSense_CSD_centroid[CapSense_CSD_POS_NEXT] = 0u;
1097:.\Generated_Source\PSoC5/CapSense_CSD_CSHL.c ****                 }
1098:.\Generated_Source\PSoC5/CapSense_CSD_CSHL.c ****                 else                                /* Not first Not last */
1099:.\Generated_Source\PSoC5/CapSense_CSD_CSHL.c ****                 {
1100:.\Generated_Source\PSoC5/CapSense_CSD_CSHL.c ****                     CapSense_CSD_centroid[CapSense_CSD_POS_PREV] = startOfSlider[posPrev];
1101:.\Generated_Source\PSoC5/CapSense_CSD_CSHL.c ****                     CapSense_CSD_centroid[CapSense_CSD_POS_NEXT] = startOfSlider[posNext];
1102:.\Generated_Source\PSoC5/CapSense_CSD_CSHL.c ****                 }
1103:.\Generated_Source\PSoC5/CapSense_CSD_CSHL.c ****             #endif /* ((CapSense_CSD_TOTAL_LINEAR_SLIDERS_COUNT>0u)||(CapSense_CSD_TOTAL_TOUCH_PADS
1104:.\Generated_Source\PSoC5/CapSense_CSD_CSHL.c **** 
1105:.\Generated_Source\PSoC5/CapSense_CSD_CSHL.c ****         #if (CapSense_CSD_ADD_SLIDER_TYPE)
1106:.\Generated_Source\PSoC5/CapSense_CSD_CSHL.c ****             }
1107:.\Generated_Source\PSoC5/CapSense_CSD_CSHL.c ****         #endif /* (CapSense_CSD_ADD_SLIDER_TYPE) */
1108:.\Generated_Source\PSoC5/CapSense_CSD_CSHL.c ****     
1109:.\Generated_Source\PSoC5/CapSense_CSD_CSHL.c ****         /* Subtract noiseThreshold */
1110:.\Generated_Source\PSoC5/CapSense_CSD_CSHL.c ****         if(CapSense_CSD_centroid[CapSense_CSD_POS_PREV] > noiseThreshold)
1111:.\Generated_Source\PSoC5/CapSense_CSD_CSHL.c ****         {
1112:.\Generated_Source\PSoC5/CapSense_CSD_CSHL.c ****             CapSense_CSD_centroid[CapSense_CSD_POS_PREV] -= noiseThreshold;
1113:.\Generated_Source\PSoC5/CapSense_CSD_CSHL.c ****         }
1114:.\Generated_Source\PSoC5/CapSense_CSD_CSHL.c ****         else
1115:.\Generated_Source\PSoC5/CapSense_CSD_CSHL.c ****         {
1116:.\Generated_Source\PSoC5/CapSense_CSD_CSHL.c ****             CapSense_CSD_centroid[CapSense_CSD_POS_PREV] = 0u;
1117:.\Generated_Source\PSoC5/CapSense_CSD_CSHL.c ****         }
1118:.\Generated_Source\PSoC5/CapSense_CSD_CSHL.c ****         
1119:.\Generated_Source\PSoC5/CapSense_CSD_CSHL.c ****         /* Maximum always grater than fingerThreshold, so grate than noiseThreshold */
1120:.\Generated_Source\PSoC5/CapSense_CSD_CSHL.c ****         CapSense_CSD_centroid[CapSense_CSD_POS] -= noiseThreshold;
1121:.\Generated_Source\PSoC5/CapSense_CSD_CSHL.c ****         
1122:.\Generated_Source\PSoC5/CapSense_CSD_CSHL.c ****         /* Subtract noiseThreshold */
1123:.\Generated_Source\PSoC5/CapSense_CSD_CSHL.c ****         if(CapSense_CSD_centroid[CapSense_CSD_POS_NEXT] > noiseThreshold)
1124:.\Generated_Source\PSoC5/CapSense_CSD_CSHL.c ****         {
1125:.\Generated_Source\PSoC5/CapSense_CSD_CSHL.c ****             CapSense_CSD_centroid[CapSense_CSD_POS_NEXT] -= noiseThreshold;
1126:.\Generated_Source\PSoC5/CapSense_CSD_CSHL.c ****         }
1127:.\Generated_Source\PSoC5/CapSense_CSD_CSHL.c ****         else
1128:.\Generated_Source\PSoC5/CapSense_CSD_CSHL.c ****         {
1129:.\Generated_Source\PSoC5/CapSense_CSD_CSHL.c ****             CapSense_CSD_centroid[CapSense_CSD_POS_NEXT] = 0u;
1130:.\Generated_Source\PSoC5/CapSense_CSD_CSHL.c ****         }
1131:.\Generated_Source\PSoC5/CapSense_CSD_CSHL.c ****         
1132:.\Generated_Source\PSoC5/CapSense_CSD_CSHL.c ****         
1133:.\Generated_Source\PSoC5/CapSense_CSD_CSHL.c ****         /* Si+1 - Si-1 */
1134:.\Generated_Source\PSoC5/CapSense_CSD_CSHL.c ****         numerator = (uint32) CapSense_CSD_centroid[CapSense_CSD_POS_NEXT] -
1135:.\Generated_Source\PSoC5/CapSense_CSD_CSHL.c ****                     (uint32) CapSense_CSD_centroid[CapSense_CSD_POS_PREV];
1136:.\Generated_Source\PSoC5/CapSense_CSD_CSHL.c **** 
1137:.\Generated_Source\PSoC5/CapSense_CSD_CSHL.c ****         /* Si+1 + Si + Si-1 */
1138:.\Generated_Source\PSoC5/CapSense_CSD_CSHL.c ****         denominator = (int32) CapSense_CSD_centroid[CapSense_CSD_POS_PREV] + 
1139:.\Generated_Source\PSoC5/CapSense_CSD_CSHL.c ****                       (int32) CapSense_CSD_centroid[CapSense_CSD_POS] + 
1140:.\Generated_Source\PSoC5/CapSense_CSD_CSHL.c ****                       (int32) CapSense_CSD_centroid[CapSense_CSD_POS_NEXT];
1141:.\Generated_Source\PSoC5/CapSense_CSD_CSHL.c ****         
1142:.\Generated_Source\PSoC5/CapSense_CSD_CSHL.c ****         /* (numerator/denominator) + maximum */
1143:.\Generated_Source\PSoC5/CapSense_CSD_CSHL.c ****         denominator = (((int32)(uint32)((uint32)numerator << 8u)/denominator) + (int32)(uint32)((ui
1144:.\Generated_Source\PSoC5/CapSense_CSD_CSHL.c **** 
1145:.\Generated_Source\PSoC5/CapSense_CSD_CSHL.c ****         #if(CapSense_CSD_TOTAL_RADIAL_SLIDERS_COUNT > 0u)
1146:.\Generated_Source\PSoC5/CapSense_CSD_CSHL.c ****             /* Only required for RADIAL Slider */
1147:.\Generated_Source\PSoC5/CapSense_CSD_CSHL.c ****             if(denominator < 0)
1148:.\Generated_Source\PSoC5/CapSense_CSD_CSHL.c ****             {
1149:.\Generated_Source\PSoC5/CapSense_CSD_CSHL.c ****                 denominator += (int32)((uint16)((uint16) count << 8u));
1150:.\Generated_Source\PSoC5/CapSense_CSD_CSHL.c ****             }
1151:.\Generated_Source\PSoC5/CapSense_CSD_CSHL.c ****         #endif /* (CapSense_CSD_TOTAL_RADIAL_SLIDERS_COUNT > 0u) */
ARM GAS  C:\Users\mark6\AppData\Local\Temp\ccRowwUe.s 			page 41


1152:.\Generated_Source\PSoC5/CapSense_CSD_CSHL.c **** 
1153:.\Generated_Source\PSoC5/CapSense_CSD_CSHL.c ****         denominator *= (int16)resolution;
1154:.\Generated_Source\PSoC5/CapSense_CSD_CSHL.c **** 
1155:.\Generated_Source\PSoC5/CapSense_CSD_CSHL.c ****         /* Round the relust and put it to uint8 */
1156:.\Generated_Source\PSoC5/CapSense_CSD_CSHL.c ****         position = ((uint8) HI16((uint32)denominator + CapSense_CSD_CENTROID_ROUND_VALUE));
1157:.\Generated_Source\PSoC5/CapSense_CSD_CSHL.c **** 
1158:.\Generated_Source\PSoC5/CapSense_CSD_CSHL.c ****         return (position);
1159:.\Generated_Source\PSoC5/CapSense_CSD_CSHL.c ****     }    
1160:.\Generated_Source\PSoC5/CapSense_CSD_CSHL.c **** #endif /* (CapSense_CSD_TOTAL_CENTROIDS_COUNT) */
1161:.\Generated_Source\PSoC5/CapSense_CSD_CSHL.c **** 
1162:.\Generated_Source\PSoC5/CapSense_CSD_CSHL.c **** 
1163:.\Generated_Source\PSoC5/CapSense_CSD_CSHL.c **** #if(CapSense_CSD_TOTAL_LINEAR_SLIDERS_COUNT > 0u)
1164:.\Generated_Source\PSoC5/CapSense_CSD_CSHL.c ****     /*******************************************************************************
1165:.\Generated_Source\PSoC5/CapSense_CSD_CSHL.c ****     * Function Name: CapSense_CSD_GetCentroidPos
1166:.\Generated_Source\PSoC5/CapSense_CSD_CSHL.c ****     ********************************************************************************
1167:.\Generated_Source\PSoC5/CapSense_CSD_CSHL.c ****     *
1168:.\Generated_Source\PSoC5/CapSense_CSD_CSHL.c ****     * Summary:
1169:.\Generated_Source\PSoC5/CapSense_CSD_CSHL.c ****     *  Checks the CapSense_CSD_Signal[ ] array for a centroid within
1170:.\Generated_Source\PSoC5/CapSense_CSD_CSHL.c ****     *  slider specified range. The centroid position is calculated to the resolution
1171:.\Generated_Source\PSoC5/CapSense_CSD_CSHL.c ****     *  specified in the CapSense customizer. The position filters are applied to the
1172:.\Generated_Source\PSoC5/CapSense_CSD_CSHL.c ****     *  result if enabled.
1173:.\Generated_Source\PSoC5/CapSense_CSD_CSHL.c ****     *
1174:.\Generated_Source\PSoC5/CapSense_CSD_CSHL.c ****     * Parameters:
1175:.\Generated_Source\PSoC5/CapSense_CSD_CSHL.c ****     *  widget:  Widget number.
1176:.\Generated_Source\PSoC5/CapSense_CSD_CSHL.c ****     *  For every linear slider widget there are defines in this format:
1177:.\Generated_Source\PSoC5/CapSense_CSD_CSHL.c ****     *  #define CapSense_CSD_LS__"widget_name"            5
1178:.\Generated_Source\PSoC5/CapSense_CSD_CSHL.c ****     * 
1179:.\Generated_Source\PSoC5/CapSense_CSD_CSHL.c ****     * Return:
1180:.\Generated_Source\PSoC5/CapSense_CSD_CSHL.c ****     *  Returns position value of the linear slider.
1181:.\Generated_Source\PSoC5/CapSense_CSD_CSHL.c ****     *
1182:.\Generated_Source\PSoC5/CapSense_CSD_CSHL.c ****     * Side Effects:
1183:.\Generated_Source\PSoC5/CapSense_CSD_CSHL.c ****     *  If any sensor within the slider widget is active, the function returns values
1184:.\Generated_Source\PSoC5/CapSense_CSD_CSHL.c ****     *  from zero to the API resolution value set in the CapSense customizer. If no
1185:.\Generated_Source\PSoC5/CapSense_CSD_CSHL.c ****     *  sensors are active, the function returns 0xFFFF. If an error occurs during
1186:.\Generated_Source\PSoC5/CapSense_CSD_CSHL.c ****     *  execution of the centroid/diplexing algorithm, the function returns 0xFFFF.
1187:.\Generated_Source\PSoC5/CapSense_CSD_CSHL.c ****     *  There are no checks of widget type argument provided to this function.
1188:.\Generated_Source\PSoC5/CapSense_CSD_CSHL.c ****     *  The unproper widget type provided will cause unexpected position calculations.
1189:.\Generated_Source\PSoC5/CapSense_CSD_CSHL.c ****     *
1190:.\Generated_Source\PSoC5/CapSense_CSD_CSHL.c ****     * Note:
1191:.\Generated_Source\PSoC5/CapSense_CSD_CSHL.c ****     *  If noise counts on the slider segments are greater than the noise
1192:.\Generated_Source\PSoC5/CapSense_CSD_CSHL.c ****     *  threshold, this subroutine may generate a false centroid result. The noise
1193:.\Generated_Source\PSoC5/CapSense_CSD_CSHL.c ****     *  threshold should be set carefully (high enough above the noise level) so
1194:.\Generated_Source\PSoC5/CapSense_CSD_CSHL.c ****     *  that noise will not generate a false centroid.
1195:.\Generated_Source\PSoC5/CapSense_CSD_CSHL.c ****     *
1196:.\Generated_Source\PSoC5/CapSense_CSD_CSHL.c ****     * Reentrant:
1197:.\Generated_Source\PSoC5/CapSense_CSD_CSHL.c ****     *  No.
1198:.\Generated_Source\PSoC5/CapSense_CSD_CSHL.c ****     *
1199:.\Generated_Source\PSoC5/CapSense_CSD_CSHL.c ****     *******************************************************************************/
1200:.\Generated_Source\PSoC5/CapSense_CSD_CSHL.c ****     uint16 CapSense_CSD_GetCentroidPos(uint8 widget) 
1201:.\Generated_Source\PSoC5/CapSense_CSD_CSHL.c ****     {
1202:.\Generated_Source\PSoC5/CapSense_CSD_CSHL.c ****         #if (CapSense_CSD_IS_DIPLEX_SLIDER)
1203:.\Generated_Source\PSoC5/CapSense_CSD_CSHL.c ****             const uint8 CYCODE *diplex;
1204:.\Generated_Source\PSoC5/CapSense_CSD_CSHL.c ****         #endif /* (CapSense_CSD_IS_DIPLEX_SLIDER) */
1205:.\Generated_Source\PSoC5/CapSense_CSD_CSHL.c ****                 
1206:.\Generated_Source\PSoC5/CapSense_CSD_CSHL.c ****         #if (0u != CapSense_CSD_LINEAR_SLIDERS_POS_FILTERS_MASK)
1207:.\Generated_Source\PSoC5/CapSense_CSD_CSHL.c ****             uint8 posIndex;
1208:.\Generated_Source\PSoC5/CapSense_CSD_CSHL.c ****             uint8 firstTimeIndex = CapSense_CSD_posFiltersData[widget];
ARM GAS  C:\Users\mark6\AppData\Local\Temp\ccRowwUe.s 			page 42


1209:.\Generated_Source\PSoC5/CapSense_CSD_CSHL.c ****             uint8 posFiltersMask = CapSense_CSD_posFiltersMask[widget];  
1210:.\Generated_Source\PSoC5/CapSense_CSD_CSHL.c ****         #endif /* (0u != CapSense_CSD_LINEAR_SLIDERS_POS_FILTERS_MASK) */
1211:.\Generated_Source\PSoC5/CapSense_CSD_CSHL.c **** 
1212:.\Generated_Source\PSoC5/CapSense_CSD_CSHL.c ****         #if ((0u != (CapSense_CSD_MEDIAN_FILTER & CapSense_CSD_LINEAR_SLIDERS_POS_FILTERS_MASK)) ||
1213:.\Generated_Source\PSoC5/CapSense_CSD_CSHL.c ****              (0u != (CapSense_CSD_AVERAGING_FILTER & CapSense_CSD_LINEAR_SLIDERS_POS_FILTERS_MASK))
1214:.\Generated_Source\PSoC5/CapSense_CSD_CSHL.c ****             uint8 tempPos;
1215:.\Generated_Source\PSoC5/CapSense_CSD_CSHL.c ****         #endif /* ((0u != (CapSense_CSD_MEDIAN_FILTER & CapSense_CSD_LINEAR_SLIDERS_POS_FILTERS_MAS
1216:.\Generated_Source\PSoC5/CapSense_CSD_CSHL.c ****                *   (0u != (CapSense_CSD_AVERAGING_FILTER & CapSense_CSD_LINEAR_SLIDERS_POS_FILTERS_
1217:.\Generated_Source\PSoC5/CapSense_CSD_CSHL.c ****                */
1218:.\Generated_Source\PSoC5/CapSense_CSD_CSHL.c **** 
1219:.\Generated_Source\PSoC5/CapSense_CSD_CSHL.c ****         uint8 maximum;
1220:.\Generated_Source\PSoC5/CapSense_CSD_CSHL.c ****         uint16 position;
1221:.\Generated_Source\PSoC5/CapSense_CSD_CSHL.c ****         uint8 offset = CapSense_CSD_rawDataIndex[widget];
1222:.\Generated_Source\PSoC5/CapSense_CSD_CSHL.c ****         uint8 count = CapSense_CSD_numberOfSensors[widget];
1223:.\Generated_Source\PSoC5/CapSense_CSD_CSHL.c ****                         
1224:.\Generated_Source\PSoC5/CapSense_CSD_CSHL.c ****         #if (CapSense_CSD_IS_DIPLEX_SLIDER)
1225:.\Generated_Source\PSoC5/CapSense_CSD_CSHL.c ****             if(widget < CapSense_CSD_TOTAL_DIPLEXED_SLIDERS_COUNT)
1226:.\Generated_Source\PSoC5/CapSense_CSD_CSHL.c ****             {
1227:.\Generated_Source\PSoC5/CapSense_CSD_CSHL.c ****                 maximum = CapSense_CSD_diplexTable[widget];
1228:.\Generated_Source\PSoC5/CapSense_CSD_CSHL.c ****                 diplex = &CapSense_CSD_diplexTable[maximum];
1229:.\Generated_Source\PSoC5/CapSense_CSD_CSHL.c ****             }
1230:.\Generated_Source\PSoC5/CapSense_CSD_CSHL.c ****             else
1231:.\Generated_Source\PSoC5/CapSense_CSD_CSHL.c ****             {
1232:.\Generated_Source\PSoC5/CapSense_CSD_CSHL.c ****                 diplex = 0u;
1233:.\Generated_Source\PSoC5/CapSense_CSD_CSHL.c ****             }
1234:.\Generated_Source\PSoC5/CapSense_CSD_CSHL.c ****         #endif /* (CapSense_CSD_IS_DIPLEX_SLIDER) */
1235:.\Generated_Source\PSoC5/CapSense_CSD_CSHL.c **** 
1236:.\Generated_Source\PSoC5/CapSense_CSD_CSHL.c ****         /* Find Maximum within centroid */      
1237:.\Generated_Source\PSoC5/CapSense_CSD_CSHL.c ****         #if (CapSense_CSD_IS_DIPLEX_SLIDER)        
1238:.\Generated_Source\PSoC5/CapSense_CSD_CSHL.c ****             maximum = CapSense_CSD_FindMaximum(offset, count, CapSense_CSD_fingerThreshold[widget],
1239:.\Generated_Source\PSoC5/CapSense_CSD_CSHL.c ****         #else
1240:.\Generated_Source\PSoC5/CapSense_CSD_CSHL.c ****             maximum = CapSense_CSD_FindMaximum(offset, count, CapSense_CSD_fingerThreshold[widget])
1241:.\Generated_Source\PSoC5/CapSense_CSD_CSHL.c ****         #endif /* (CapSense_CSD_IS_DIPLEX_SLIDER) */
1242:.\Generated_Source\PSoC5/CapSense_CSD_CSHL.c **** 
1243:.\Generated_Source\PSoC5/CapSense_CSD_CSHL.c ****         if (maximum != 0xFFu)
1244:.\Generated_Source\PSoC5/CapSense_CSD_CSHL.c ****         {
1245:.\Generated_Source\PSoC5/CapSense_CSD_CSHL.c ****             /* Calculate centroid */
1246:.\Generated_Source\PSoC5/CapSense_CSD_CSHL.c ****             position = (uint16) CapSense_CSD_CalcCentroid(maximum, 
1247:.\Generated_Source\PSoC5/CapSense_CSD_CSHL.c ****                          offset, count, CapSense_CSD_centroidMult[widget], CapSense_CSD_noiseThresh
1248:.\Generated_Source\PSoC5/CapSense_CSD_CSHL.c **** 
1249:.\Generated_Source\PSoC5/CapSense_CSD_CSHL.c ****             #if (0u != CapSense_CSD_LINEAR_SLIDERS_POS_FILTERS_MASK)
1250:.\Generated_Source\PSoC5/CapSense_CSD_CSHL.c ****                 /* Check if this linear slider has enabled filters */
1251:.\Generated_Source\PSoC5/CapSense_CSD_CSHL.c ****                 if (0u != (posFiltersMask & CapSense_CSD_ANY_POS_FILTER))
1252:.\Generated_Source\PSoC5/CapSense_CSD_CSHL.c ****                 {
1253:.\Generated_Source\PSoC5/CapSense_CSD_CSHL.c ****                     /* Caluclate position to store filters data */
1254:.\Generated_Source\PSoC5/CapSense_CSD_CSHL.c ****                     posIndex  = firstTimeIndex + 1u;
1255:.\Generated_Source\PSoC5/CapSense_CSD_CSHL.c ****                     
1256:.\Generated_Source\PSoC5/CapSense_CSD_CSHL.c ****                     if (0u == CapSense_CSD_posFiltersData[firstTimeIndex])
1257:.\Generated_Source\PSoC5/CapSense_CSD_CSHL.c ****                     {
1258:.\Generated_Source\PSoC5/CapSense_CSD_CSHL.c ****                         /* Init filters */
1259:.\Generated_Source\PSoC5/CapSense_CSD_CSHL.c ****                         CapSense_CSD_posFiltersData[posIndex] = (uint8) position;
1260:.\Generated_Source\PSoC5/CapSense_CSD_CSHL.c ****                         #if ((0u != (CapSense_CSD_MEDIAN_FILTER & \
1261:.\Generated_Source\PSoC5/CapSense_CSD_CSHL.c ****                                      CapSense_CSD_LINEAR_SLIDERS_POS_FILTERS_MASK)) || \
1262:.\Generated_Source\PSoC5/CapSense_CSD_CSHL.c ****                              (0u != (CapSense_CSD_AVERAGING_FILTER & \
1263:.\Generated_Source\PSoC5/CapSense_CSD_CSHL.c ****                                      CapSense_CSD_LINEAR_SLIDERS_POS_FILTERS_MASK)))
1264:.\Generated_Source\PSoC5/CapSense_CSD_CSHL.c **** 
1265:.\Generated_Source\PSoC5/CapSense_CSD_CSHL.c ****                             if ( (0u != (posFiltersMask & CapSense_CSD_MEDIAN_FILTER)) || 
ARM GAS  C:\Users\mark6\AppData\Local\Temp\ccRowwUe.s 			page 43


1266:.\Generated_Source\PSoC5/CapSense_CSD_CSHL.c ****                                  (0u != (posFiltersMask & CapSense_CSD_AVERAGING_FILTER)) )
1267:.\Generated_Source\PSoC5/CapSense_CSD_CSHL.c ****                             {
1268:.\Generated_Source\PSoC5/CapSense_CSD_CSHL.c ****                                 CapSense_CSD_posFiltersData[posIndex + 1u] = (uint8) position;
1269:.\Generated_Source\PSoC5/CapSense_CSD_CSHL.c ****                             }
1270:.\Generated_Source\PSoC5/CapSense_CSD_CSHL.c ****                         #endif /* ((0u != (CapSense_CSD_MEDIAN_FILTER & \
1271:.\Generated_Source\PSoC5/CapSense_CSD_CSHL.c ****                                *           CapSense_CSD_LINEAR_SLIDERS_POS_FILTERS_MASK)) || \
1272:.\Generated_Source\PSoC5/CapSense_CSD_CSHL.c ****                                *   (0u != (CapSense_CSD_AVERAGING_FILTER & \
1273:.\Generated_Source\PSoC5/CapSense_CSD_CSHL.c ****                                *           CapSense_CSD_LINEAR_SLIDERS_POS_FILTERS_MASK)))
1274:.\Generated_Source\PSoC5/CapSense_CSD_CSHL.c ****                                */
1275:.\Generated_Source\PSoC5/CapSense_CSD_CSHL.c ****                         
1276:.\Generated_Source\PSoC5/CapSense_CSD_CSHL.c ****                         CapSense_CSD_posFiltersData[firstTimeIndex] = 1u;
1277:.\Generated_Source\PSoC5/CapSense_CSD_CSHL.c ****                     }
1278:.\Generated_Source\PSoC5/CapSense_CSD_CSHL.c ****                     else
1279:.\Generated_Source\PSoC5/CapSense_CSD_CSHL.c ****                     {
1280:.\Generated_Source\PSoC5/CapSense_CSD_CSHL.c ****                         /* Do filtering */
1281:.\Generated_Source\PSoC5/CapSense_CSD_CSHL.c ****                         #if (0u != (CapSense_CSD_MEDIAN_FILTER & CapSense_CSD_LINEAR_SLIDERS_POS_FI
1282:.\Generated_Source\PSoC5/CapSense_CSD_CSHL.c ****                             if (0u != (posFiltersMask & CapSense_CSD_MEDIAN_FILTER))
1283:.\Generated_Source\PSoC5/CapSense_CSD_CSHL.c ****                             {
1284:.\Generated_Source\PSoC5/CapSense_CSD_CSHL.c ****                                 tempPos = (uint8) position;
1285:.\Generated_Source\PSoC5/CapSense_CSD_CSHL.c ****                                 position = CapSense_CSD_MedianFilter(position,
1286:.\Generated_Source\PSoC5/CapSense_CSD_CSHL.c ****                                                                 (uint16)CapSense_CSD_posFiltersData
1287:.\Generated_Source\PSoC5/CapSense_CSD_CSHL.c ****                                                                 (uint16)CapSense_CSD_posFiltersData
1288:.\Generated_Source\PSoC5/CapSense_CSD_CSHL.c ****                                 CapSense_CSD_posFiltersData[posIndex + 1u] =
1289:.\Generated_Source\PSoC5/CapSense_CSD_CSHL.c ****                                                                              CapSense_CSD_posFilter
1290:.\Generated_Source\PSoC5/CapSense_CSD_CSHL.c ****                                 CapSense_CSD_posFiltersData[posIndex] = tempPos;
1291:.\Generated_Source\PSoC5/CapSense_CSD_CSHL.c ****                             }
1292:.\Generated_Source\PSoC5/CapSense_CSD_CSHL.c ****                         #endif /*(0u != (CapSense_CSD_MEDIAN_FILTER &
1293:.\Generated_Source\PSoC5/CapSense_CSD_CSHL.c ****                                *         CapSense_CSD_LINEAR_SLIDERS_POS_FILTERS_MASK))
1294:.\Generated_Source\PSoC5/CapSense_CSD_CSHL.c ****                                */
1295:.\Generated_Source\PSoC5/CapSense_CSD_CSHL.c **** 
1296:.\Generated_Source\PSoC5/CapSense_CSD_CSHL.c ****                         #if(0u!=(CapSense_CSD_AVERAGING_FILTER & CapSense_CSD_LINEAR_SLIDERS_POS_FI
1297:.\Generated_Source\PSoC5/CapSense_CSD_CSHL.c ****                             if (0u != (posFiltersMask & CapSense_CSD_AVERAGING_FILTER)) 
1298:.\Generated_Source\PSoC5/CapSense_CSD_CSHL.c ****                             {
1299:.\Generated_Source\PSoC5/CapSense_CSD_CSHL.c ****                                 tempPos = (uint8) position;
1300:.\Generated_Source\PSoC5/CapSense_CSD_CSHL.c ****                                 position = CapSense_CSD_AveragingFilter(position,
1301:.\Generated_Source\PSoC5/CapSense_CSD_CSHL.c ****                                                                 (uint16)CapSense_CSD_posFiltersData
1302:.\Generated_Source\PSoC5/CapSense_CSD_CSHL.c ****                                                                 (uint16)CapSense_CSD_posFiltersData
1303:.\Generated_Source\PSoC5/CapSense_CSD_CSHL.c ****                                 CapSense_CSD_posFiltersData[posIndex+1u]=CapSense_CSD_posFiltersDat
1304:.\Generated_Source\PSoC5/CapSense_CSD_CSHL.c ****                                 CapSense_CSD_posFiltersData[posIndex] = tempPos;
1305:.\Generated_Source\PSoC5/CapSense_CSD_CSHL.c ****                             }
1306:.\Generated_Source\PSoC5/CapSense_CSD_CSHL.c ****                         #endif /* (0u != (CapSense_CSD_AVERAGING_FILTER & \
1307:.\Generated_Source\PSoC5/CapSense_CSD_CSHL.c ****                                *           CapSense_CSD_LINEAR_SLIDERS_POS_FILTERS_MASK))
1308:.\Generated_Source\PSoC5/CapSense_CSD_CSHL.c ****                                */
1309:.\Generated_Source\PSoC5/CapSense_CSD_CSHL.c **** 
1310:.\Generated_Source\PSoC5/CapSense_CSD_CSHL.c ****                         #if (0u != (CapSense_CSD_IIR2_FILTER & CapSense_CSD_LINEAR_SLIDERS_POS_FILT
1311:.\Generated_Source\PSoC5/CapSense_CSD_CSHL.c ****                             if (0u != (posFiltersMask & CapSense_CSD_IIR2_FILTER)) 
1312:.\Generated_Source\PSoC5/CapSense_CSD_CSHL.c ****                             {
1313:.\Generated_Source\PSoC5/CapSense_CSD_CSHL.c ****                                 position = CapSense_CSD_IIR2Filter(position,
1314:.\Generated_Source\PSoC5/CapSense_CSD_CSHL.c ****                                                                     (uint16)CapSense_CSD_posFilters
1315:.\Generated_Source\PSoC5/CapSense_CSD_CSHL.c ****                                 CapSense_CSD_posFiltersData[posIndex] = (uint8) position;
1316:.\Generated_Source\PSoC5/CapSense_CSD_CSHL.c ****                             }
1317:.\Generated_Source\PSoC5/CapSense_CSD_CSHL.c ****                         #endif /* (0u != (CapSense_CSD_IIR2_FILTER & \
1318:.\Generated_Source\PSoC5/CapSense_CSD_CSHL.c ****                                *          CapSense_CSD_LINEAR_SLIDERS_POS_FILTERS_MASK))
1319:.\Generated_Source\PSoC5/CapSense_CSD_CSHL.c ****                                */
1320:.\Generated_Source\PSoC5/CapSense_CSD_CSHL.c **** 
1321:.\Generated_Source\PSoC5/CapSense_CSD_CSHL.c ****                         #if (0u != (CapSense_CSD_IIR4_FILTER & CapSense_CSD_LINEAR_SLIDERS_POS_FILT
1322:.\Generated_Source\PSoC5/CapSense_CSD_CSHL.c ****                             if (0u != (posFiltersMask & CapSense_CSD_IIR4_FILTER))
ARM GAS  C:\Users\mark6\AppData\Local\Temp\ccRowwUe.s 			page 44


1323:.\Generated_Source\PSoC5/CapSense_CSD_CSHL.c ****                             {
1324:.\Generated_Source\PSoC5/CapSense_CSD_CSHL.c ****                                 position = CapSense_CSD_IIR4Filter(position,
1325:.\Generated_Source\PSoC5/CapSense_CSD_CSHL.c ****                                                                     (uint16)CapSense_CSD_posFilters
1326:.\Generated_Source\PSoC5/CapSense_CSD_CSHL.c ****                                 CapSense_CSD_posFiltersData[posIndex] = (uint8) position;
1327:.\Generated_Source\PSoC5/CapSense_CSD_CSHL.c ****                             }                                
1328:.\Generated_Source\PSoC5/CapSense_CSD_CSHL.c ****                         #endif /* (0u != (CapSense_CSD_IIR4_FILTER & \
1329:.\Generated_Source\PSoC5/CapSense_CSD_CSHL.c ****                                *          CapSense_CSD_LINEAR_SLIDERS_POS_FILTERS_MASK))
1330:.\Generated_Source\PSoC5/CapSense_CSD_CSHL.c ****                                */
1331:.\Generated_Source\PSoC5/CapSense_CSD_CSHL.c **** 
1332:.\Generated_Source\PSoC5/CapSense_CSD_CSHL.c ****                         #if (0u != (CapSense_CSD_JITTER_FILTER & CapSense_CSD_LINEAR_SLIDERS_POS_FI
1333:.\Generated_Source\PSoC5/CapSense_CSD_CSHL.c ****                             if (0u != (posFiltersMask & CapSense_CSD_JITTER_FILTER))
1334:.\Generated_Source\PSoC5/CapSense_CSD_CSHL.c ****                             {
1335:.\Generated_Source\PSoC5/CapSense_CSD_CSHL.c ****                                 position = CapSense_CSD_JitterFilter(position,
1336:.\Generated_Source\PSoC5/CapSense_CSD_CSHL.c ****                                                                     (uint16)CapSense_CSD_posFilters
1337:.\Generated_Source\PSoC5/CapSense_CSD_CSHL.c ****                                 CapSense_CSD_posFiltersData[posIndex] = (uint8) position;
1338:.\Generated_Source\PSoC5/CapSense_CSD_CSHL.c ****                             }
1339:.\Generated_Source\PSoC5/CapSense_CSD_CSHL.c ****                         #endif /* (0u != (CapSense_CSD_JITTER_FILTER & \
1340:.\Generated_Source\PSoC5/CapSense_CSD_CSHL.c ****                                *           CapSense_CSD_LINEAR_SLIDERS_POS_FILTERS_MASK))
1341:.\Generated_Source\PSoC5/CapSense_CSD_CSHL.c ****                                */
1342:.\Generated_Source\PSoC5/CapSense_CSD_CSHL.c ****                     }
1343:.\Generated_Source\PSoC5/CapSense_CSD_CSHL.c ****                 }
1344:.\Generated_Source\PSoC5/CapSense_CSD_CSHL.c ****             #endif /* (0u != CapSense_CSD_LINEAR_SLIDERS_POS_FILTERS_MASK) */
1345:.\Generated_Source\PSoC5/CapSense_CSD_CSHL.c **** 
1346:.\Generated_Source\PSoC5/CapSense_CSD_CSHL.c ****         }
1347:.\Generated_Source\PSoC5/CapSense_CSD_CSHL.c ****         else
1348:.\Generated_Source\PSoC5/CapSense_CSD_CSHL.c ****         {
1349:.\Generated_Source\PSoC5/CapSense_CSD_CSHL.c ****             /* The maximum wasn't found */
1350:.\Generated_Source\PSoC5/CapSense_CSD_CSHL.c ****             position = 0xFFFFu;
1351:.\Generated_Source\PSoC5/CapSense_CSD_CSHL.c **** 
1352:.\Generated_Source\PSoC5/CapSense_CSD_CSHL.c ****             #if(0u != CapSense_CSD_LINEAR_SLIDERS_POS_FILTERS_MASK)
1353:.\Generated_Source\PSoC5/CapSense_CSD_CSHL.c ****                 /* Reset the filters */
1354:.\Generated_Source\PSoC5/CapSense_CSD_CSHL.c ****                 if(0u != (posFiltersMask & CapSense_CSD_ANY_POS_FILTER))
1355:.\Generated_Source\PSoC5/CapSense_CSD_CSHL.c ****                 {
1356:.\Generated_Source\PSoC5/CapSense_CSD_CSHL.c ****                     CapSense_CSD_posFiltersData[firstTimeIndex] = 0u;
1357:.\Generated_Source\PSoC5/CapSense_CSD_CSHL.c ****                 }
1358:.\Generated_Source\PSoC5/CapSense_CSD_CSHL.c ****             #endif /* (0u != CapSense_CSD_LINEAR_SLIDERS_POS_FILTERS_MASK) */
1359:.\Generated_Source\PSoC5/CapSense_CSD_CSHL.c ****         }
1360:.\Generated_Source\PSoC5/CapSense_CSD_CSHL.c **** 
1361:.\Generated_Source\PSoC5/CapSense_CSD_CSHL.c ****         
1362:.\Generated_Source\PSoC5/CapSense_CSD_CSHL.c ****         return (position);
1363:.\Generated_Source\PSoC5/CapSense_CSD_CSHL.c ****     }
1364:.\Generated_Source\PSoC5/CapSense_CSD_CSHL.c **** #endif /* (CapSense_CSD_TOTAL_LINEAR_SLIDERS_COUNT > 0u) */
1365:.\Generated_Source\PSoC5/CapSense_CSD_CSHL.c **** 
1366:.\Generated_Source\PSoC5/CapSense_CSD_CSHL.c **** 
1367:.\Generated_Source\PSoC5/CapSense_CSD_CSHL.c **** #if(CapSense_CSD_TOTAL_RADIAL_SLIDERS_COUNT > 0u)
1368:.\Generated_Source\PSoC5/CapSense_CSD_CSHL.c ****     /*******************************************************************************
1369:.\Generated_Source\PSoC5/CapSense_CSD_CSHL.c ****     * Function Name: CapSense_CSD_GetRadialCentroidPos
1370:.\Generated_Source\PSoC5/CapSense_CSD_CSHL.c ****     ********************************************************************************
1371:.\Generated_Source\PSoC5/CapSense_CSD_CSHL.c ****     *
1372:.\Generated_Source\PSoC5/CapSense_CSD_CSHL.c ****     * Summary:
1373:.\Generated_Source\PSoC5/CapSense_CSD_CSHL.c ****     *  Checks the CapSense_CSD_Signal[ ] array for a centroid within
1374:.\Generated_Source\PSoC5/CapSense_CSD_CSHL.c ****     *  slider specified range. The centroid position is calculated to the resolution
1375:.\Generated_Source\PSoC5/CapSense_CSD_CSHL.c ****     *  specified in the CapSense customizer. The position filters are applied to the
1376:.\Generated_Source\PSoC5/CapSense_CSD_CSHL.c ****     *  result if enabled.
1377:.\Generated_Source\PSoC5/CapSense_CSD_CSHL.c ****     *
1378:.\Generated_Source\PSoC5/CapSense_CSD_CSHL.c ****     * Parameters:
1379:.\Generated_Source\PSoC5/CapSense_CSD_CSHL.c ****     *  widget:  Widget number.
ARM GAS  C:\Users\mark6\AppData\Local\Temp\ccRowwUe.s 			page 45


1380:.\Generated_Source\PSoC5/CapSense_CSD_CSHL.c ****     *  For every radial slider widget there are defines in this format:
1381:.\Generated_Source\PSoC5/CapSense_CSD_CSHL.c ****     *  #define CapSense_CSD_RS_"widget_name"            5
1382:.\Generated_Source\PSoC5/CapSense_CSD_CSHL.c ****     * 
1383:.\Generated_Source\PSoC5/CapSense_CSD_CSHL.c ****     * Return:
1384:.\Generated_Source\PSoC5/CapSense_CSD_CSHL.c ****     *  Returns position value of the radial slider.
1385:.\Generated_Source\PSoC5/CapSense_CSD_CSHL.c ****     *
1386:.\Generated_Source\PSoC5/CapSense_CSD_CSHL.c ****     * Side Effects:
1387:.\Generated_Source\PSoC5/CapSense_CSD_CSHL.c ****     *  If any sensor within the slider widget is active, the function returns values
1388:.\Generated_Source\PSoC5/CapSense_CSD_CSHL.c ****     *  from zero to the API resolution value set in the CapSense customizer. If no
1389:.\Generated_Source\PSoC5/CapSense_CSD_CSHL.c ****     *  sensors are active, the function returns 0xFFFF.
1390:.\Generated_Source\PSoC5/CapSense_CSD_CSHL.c ****     *  There are no checks of widget type argument provided to this function.
1391:.\Generated_Source\PSoC5/CapSense_CSD_CSHL.c ****     *  The unproper widget type provided will cause unexpected position calculations.
1392:.\Generated_Source\PSoC5/CapSense_CSD_CSHL.c ****     *
1393:.\Generated_Source\PSoC5/CapSense_CSD_CSHL.c ****     * Note:
1394:.\Generated_Source\PSoC5/CapSense_CSD_CSHL.c ****     *  If noise counts on the slider segments are greater than the noise
1395:.\Generated_Source\PSoC5/CapSense_CSD_CSHL.c ****     *  threshold, this subroutine may generate a false centroid result. The noise
1396:.\Generated_Source\PSoC5/CapSense_CSD_CSHL.c ****     *  threshold should be set carefully (high enough above the noise level) so 
1397:.\Generated_Source\PSoC5/CapSense_CSD_CSHL.c ****     *  that noise will not generate a false centroid.
1398:.\Generated_Source\PSoC5/CapSense_CSD_CSHL.c ****     *
1399:.\Generated_Source\PSoC5/CapSense_CSD_CSHL.c ****     *
1400:.\Generated_Source\PSoC5/CapSense_CSD_CSHL.c ****     * Reentrant:
1401:.\Generated_Source\PSoC5/CapSense_CSD_CSHL.c ****     *  No.
1402:.\Generated_Source\PSoC5/CapSense_CSD_CSHL.c ****     *
1403:.\Generated_Source\PSoC5/CapSense_CSD_CSHL.c ****     *******************************************************************************/
1404:.\Generated_Source\PSoC5/CapSense_CSD_CSHL.c ****      uint16 CapSense_CSD_GetRadialCentroidPos(uint8 widget)
1405:.\Generated_Source\PSoC5/CapSense_CSD_CSHL.c **** 	                                       
1406:.\Generated_Source\PSoC5/CapSense_CSD_CSHL.c ****     {
1407:.\Generated_Source\PSoC5/CapSense_CSD_CSHL.c ****         #if (0u != CapSense_CSD_RADIAL_SLIDERS_POS_FILTERS_MASK)
1408:.\Generated_Source\PSoC5/CapSense_CSD_CSHL.c ****             uint8 posIndex;
1409:.\Generated_Source\PSoC5/CapSense_CSD_CSHL.c ****             uint8 firstTimeIndex = CapSense_CSD_posFiltersData[widget];
1410:.\Generated_Source\PSoC5/CapSense_CSD_CSHL.c ****             uint8 posFiltersMask = CapSense_CSD_posFiltersMask[widget]; 
1411:.\Generated_Source\PSoC5/CapSense_CSD_CSHL.c ****         #endif /* (0u != CapSense_CSD_RADIAL_SLIDERS_POS_FILTERS_MASK) */
1412:.\Generated_Source\PSoC5/CapSense_CSD_CSHL.c **** 
1413:.\Generated_Source\PSoC5/CapSense_CSD_CSHL.c ****         #if ((0u != (CapSense_CSD_MEDIAN_FILTER & CapSense_CSD_RADIAL_SLIDERS_POS_FILTERS_MASK)) ||
1414:.\Generated_Source\PSoC5/CapSense_CSD_CSHL.c ****              (0u != (CapSense_CSD_AVERAGING_FILTER & CapSense_CSD_RADIAL_SLIDERS_POS_FILTERS_MASK))
1415:.\Generated_Source\PSoC5/CapSense_CSD_CSHL.c ****             uint8 tempPos;
1416:.\Generated_Source\PSoC5/CapSense_CSD_CSHL.c ****         #endif /* ((0u != (CapSense_CSD_MEDIAN_FILTER & CapSense_CSD_RADIAL_SLIDERS_POS_FILTERS_MAS
1417:.\Generated_Source\PSoC5/CapSense_CSD_CSHL.c ****                *   (0u != (CapSense_CSD_AVERAGING_FILTER & CapSense_CSD_RADIAL_SLIDERS_POS_FILTERS_
1418:.\Generated_Source\PSoC5/CapSense_CSD_CSHL.c ****                */
1419:.\Generated_Source\PSoC5/CapSense_CSD_CSHL.c **** 
1420:.\Generated_Source\PSoC5/CapSense_CSD_CSHL.c ****         uint8 maximum;
1421:.\Generated_Source\PSoC5/CapSense_CSD_CSHL.c ****         uint16 position;
1422:.\Generated_Source\PSoC5/CapSense_CSD_CSHL.c ****         uint8 offset = CapSense_CSD_rawDataIndex[widget];
1423:.\Generated_Source\PSoC5/CapSense_CSD_CSHL.c ****         uint8 count = CapSense_CSD_numberOfSensors[widget];
1424:.\Generated_Source\PSoC5/CapSense_CSD_CSHL.c ****         
1425:.\Generated_Source\PSoC5/CapSense_CSD_CSHL.c ****         /* Find Maximum within centroid */        
1426:.\Generated_Source\PSoC5/CapSense_CSD_CSHL.c ****         #if (CapSense_CSD_IS_DIPLEX_SLIDER)
1427:.\Generated_Source\PSoC5/CapSense_CSD_CSHL.c ****             maximum = CapSense_CSD_FindMaximum(offset, count, CapSense_CSD_fingerThreshold[widget],
1428:.\Generated_Source\PSoC5/CapSense_CSD_CSHL.c ****         #else
1429:.\Generated_Source\PSoC5/CapSense_CSD_CSHL.c ****             maximum = CapSense_CSD_FindMaximum(offset, count, CapSense_CSD_fingerThreshold[widget])
1430:.\Generated_Source\PSoC5/CapSense_CSD_CSHL.c ****         #endif /* (CapSense_CSD_IS_DIPLEX_SLIDER) */
1431:.\Generated_Source\PSoC5/CapSense_CSD_CSHL.c ****         
1432:.\Generated_Source\PSoC5/CapSense_CSD_CSHL.c ****         if (maximum != 0xFFu)
1433:.\Generated_Source\PSoC5/CapSense_CSD_CSHL.c ****         {
1434:.\Generated_Source\PSoC5/CapSense_CSD_CSHL.c ****             /* Calculate centroid */
1435:.\Generated_Source\PSoC5/CapSense_CSD_CSHL.c ****             position = (uint16) CapSense_CSD_CalcCentroid(maximum, 
1436:.\Generated_Source\PSoC5/CapSense_CSD_CSHL.c ****                          offset, count, CapSense_CSD_centroidMult[widget], CapSense_CSD_noiseThresh
ARM GAS  C:\Users\mark6\AppData\Local\Temp\ccRowwUe.s 			page 46


1437:.\Generated_Source\PSoC5/CapSense_CSD_CSHL.c **** 
1438:.\Generated_Source\PSoC5/CapSense_CSD_CSHL.c ****             #if (0u != CapSense_CSD_RADIAL_SLIDERS_POS_FILTERS_MASK)
1439:.\Generated_Source\PSoC5/CapSense_CSD_CSHL.c ****                 /* Check if this Radial slider has enabled filters */
1440:.\Generated_Source\PSoC5/CapSense_CSD_CSHL.c ****                 if (0u != (posFiltersMask & CapSense_CSD_ANY_POS_FILTER))
1441:.\Generated_Source\PSoC5/CapSense_CSD_CSHL.c ****                 {
1442:.\Generated_Source\PSoC5/CapSense_CSD_CSHL.c ****                     /* Caluclate position to store filters data */
1443:.\Generated_Source\PSoC5/CapSense_CSD_CSHL.c ****                     posIndex  = firstTimeIndex + 1u;
1444:.\Generated_Source\PSoC5/CapSense_CSD_CSHL.c ****                     
1445:.\Generated_Source\PSoC5/CapSense_CSD_CSHL.c ****                     if (0u == CapSense_CSD_posFiltersData[firstTimeIndex])
1446:.\Generated_Source\PSoC5/CapSense_CSD_CSHL.c ****                     {
1447:.\Generated_Source\PSoC5/CapSense_CSD_CSHL.c ****                         /* Init filters */
1448:.\Generated_Source\PSoC5/CapSense_CSD_CSHL.c ****                         CapSense_CSD_posFiltersData[posIndex] = (uint8) position;
1449:.\Generated_Source\PSoC5/CapSense_CSD_CSHL.c ****                         #if ((0u != (CapSense_CSD_MEDIAN_FILTER & \
1450:.\Generated_Source\PSoC5/CapSense_CSD_CSHL.c ****                                      CapSense_CSD_RADIAL_SLIDERS_POS_FILTERS_MASK)) || \
1451:.\Generated_Source\PSoC5/CapSense_CSD_CSHL.c ****                              (0u != (CapSense_CSD_AVERAGING_FILTER & \
1452:.\Generated_Source\PSoC5/CapSense_CSD_CSHL.c ****                                      CapSense_CSD_RADIAL_SLIDERS_POS_FILTERS_MASK)))
1453:.\Generated_Source\PSoC5/CapSense_CSD_CSHL.c **** 
1454:.\Generated_Source\PSoC5/CapSense_CSD_CSHL.c ****                             if ( (0u != (posFiltersMask & CapSense_CSD_MEDIAN_FILTER))  || 
1455:.\Generated_Source\PSoC5/CapSense_CSD_CSHL.c ****                                  (0u != (posFiltersMask & CapSense_CSD_AVERAGING_FILTER)) )
1456:.\Generated_Source\PSoC5/CapSense_CSD_CSHL.c ****                             {
1457:.\Generated_Source\PSoC5/CapSense_CSD_CSHL.c ****                                 CapSense_CSD_posFiltersData[posIndex + 1u] = (uint8) position;
1458:.\Generated_Source\PSoC5/CapSense_CSD_CSHL.c ****                             }
1459:.\Generated_Source\PSoC5/CapSense_CSD_CSHL.c ****                         #endif /* ((0u != (CapSense_CSD_MEDIAN_FILTER & \
1460:.\Generated_Source\PSoC5/CapSense_CSD_CSHL.c ****                                *           CapSense_CSD_RADIAL_SLIDERS_POS_FILTERS_MASK)) || \
1461:.\Generated_Source\PSoC5/CapSense_CSD_CSHL.c ****                                *   (0u != (CapSense_CSD_AVERAGING_FILTER & \
1462:.\Generated_Source\PSoC5/CapSense_CSD_CSHL.c ****                                *           CapSense_CSD_RADIAL_SLIDERS_POS_FILTERS_MASK)))
1463:.\Generated_Source\PSoC5/CapSense_CSD_CSHL.c ****                                */
1464:.\Generated_Source\PSoC5/CapSense_CSD_CSHL.c ****                         
1465:.\Generated_Source\PSoC5/CapSense_CSD_CSHL.c ****                         CapSense_CSD_posFiltersData[firstTimeIndex] = 1u;
1466:.\Generated_Source\PSoC5/CapSense_CSD_CSHL.c ****                     }
1467:.\Generated_Source\PSoC5/CapSense_CSD_CSHL.c ****                     else
1468:.\Generated_Source\PSoC5/CapSense_CSD_CSHL.c ****                     {
1469:.\Generated_Source\PSoC5/CapSense_CSD_CSHL.c ****                         /* Do filtering */
1470:.\Generated_Source\PSoC5/CapSense_CSD_CSHL.c ****                         #if (0u != (CapSense_CSD_MEDIAN_FILTER & CapSense_CSD_RADIAL_SLIDERS_POS_FI
1471:.\Generated_Source\PSoC5/CapSense_CSD_CSHL.c ****                             if (0u != (posFiltersMask & CapSense_CSD_MEDIAN_FILTER))
1472:.\Generated_Source\PSoC5/CapSense_CSD_CSHL.c ****                             {
1473:.\Generated_Source\PSoC5/CapSense_CSD_CSHL.c ****                                 tempPos = (uint8) position;
1474:.\Generated_Source\PSoC5/CapSense_CSD_CSHL.c ****                                 position = CapSense_CSD_MedianFilter(position,
1475:.\Generated_Source\PSoC5/CapSense_CSD_CSHL.c ****                                                                         CapSense_CSD_posFiltersData
1476:.\Generated_Source\PSoC5/CapSense_CSD_CSHL.c ****                                                                         CapSense_CSD_posFiltersData
1477:.\Generated_Source\PSoC5/CapSense_CSD_CSHL.c ****                                 CapSense_CSD_posFiltersData[posIndex + 1u] = 
1478:.\Generated_Source\PSoC5/CapSense_CSD_CSHL.c ****                                                                               CapSense_CSD_posFilte
1479:.\Generated_Source\PSoC5/CapSense_CSD_CSHL.c ****                                 CapSense_CSD_posFiltersData[posIndex] = tempPos;
1480:.\Generated_Source\PSoC5/CapSense_CSD_CSHL.c ****                             }
1481:.\Generated_Source\PSoC5/CapSense_CSD_CSHL.c ****                         #endif /* (0u != (CapSense_CSD_MEDIAN_FILTER & 
1482:.\Generated_Source\PSoC5/CapSense_CSD_CSHL.c ****                                *          CapSense_CSD_RADIAL_SLIDERS_POS_FILTERS_MASK))
1483:.\Generated_Source\PSoC5/CapSense_CSD_CSHL.c ****                                */
1484:.\Generated_Source\PSoC5/CapSense_CSD_CSHL.c **** 
1485:.\Generated_Source\PSoC5/CapSense_CSD_CSHL.c ****                         #if (0u != (CapSense_CSD_AVERAGING_FILTER & \
1486:.\Generated_Source\PSoC5/CapSense_CSD_CSHL.c ****                                     CapSense_CSD_RADIAL_SLIDERS_POS_FILTERS_MASK))
1487:.\Generated_Source\PSoC5/CapSense_CSD_CSHL.c ****                             if (0u != (posFiltersMask & CapSense_CSD_AVERAGING_FILTER))
1488:.\Generated_Source\PSoC5/CapSense_CSD_CSHL.c ****                             {
1489:.\Generated_Source\PSoC5/CapSense_CSD_CSHL.c ****                                 tempPos = (uint8) position;
1490:.\Generated_Source\PSoC5/CapSense_CSD_CSHL.c ****                                 position = CapSense_CSD_AveragingFilter(position, 
1491:.\Generated_Source\PSoC5/CapSense_CSD_CSHL.c ****                                                                        CapSense_CSD_posFiltersData[
1492:.\Generated_Source\PSoC5/CapSense_CSD_CSHL.c ****                                                                        CapSense_CSD_posFiltersData[
1493:.\Generated_Source\PSoC5/CapSense_CSD_CSHL.c ****                                 CapSense_CSD_posFiltersData[posIndex+1u]= CapSense_CSD_posFiltersDa
ARM GAS  C:\Users\mark6\AppData\Local\Temp\ccRowwUe.s 			page 47


1494:.\Generated_Source\PSoC5/CapSense_CSD_CSHL.c ****                                 CapSense_CSD_posFiltersData[posIndex] = tempPos;
1495:.\Generated_Source\PSoC5/CapSense_CSD_CSHL.c ****                             }
1496:.\Generated_Source\PSoC5/CapSense_CSD_CSHL.c ****                         #endif /* (0u != (CapSense_CSD_AVERAGING_FILTER & \
1497:.\Generated_Source\PSoC5/CapSense_CSD_CSHL.c ****                                *          CapSense_CSD_RADIAL_SLIDERS_POS_FILTERS_MASK))
1498:.\Generated_Source\PSoC5/CapSense_CSD_CSHL.c ****                                */
1499:.\Generated_Source\PSoC5/CapSense_CSD_CSHL.c **** 
1500:.\Generated_Source\PSoC5/CapSense_CSD_CSHL.c ****                         #if (0u != (CapSense_CSD_IIR2_FILTER & CapSense_CSD_RADIAL_SLIDERS_POS_FILT
1501:.\Generated_Source\PSoC5/CapSense_CSD_CSHL.c ****                             if (0u != (posFiltersMask & CapSense_CSD_IIR2_FILTER))
1502:.\Generated_Source\PSoC5/CapSense_CSD_CSHL.c ****                             {
1503:.\Generated_Source\PSoC5/CapSense_CSD_CSHL.c ****                                 position = CapSense_CSD_IIR2Filter(position,
1504:.\Generated_Source\PSoC5/CapSense_CSD_CSHL.c ****                                                                     (uint16)CapSense_CSD_posFilters
1505:.\Generated_Source\PSoC5/CapSense_CSD_CSHL.c ****                                 CapSense_CSD_posFiltersData[posIndex] = (uint8) position;
1506:.\Generated_Source\PSoC5/CapSense_CSD_CSHL.c ****                             }
1507:.\Generated_Source\PSoC5/CapSense_CSD_CSHL.c ****                         #endif /* (0u != (CapSense_CSD_IIR2_FILTER & 
1508:.\Generated_Source\PSoC5/CapSense_CSD_CSHL.c ****                                *          CapSense_CSD_RADIAL_SLIDERS_POS_FILTERS_MASK))
1509:.\Generated_Source\PSoC5/CapSense_CSD_CSHL.c ****                                */
1510:.\Generated_Source\PSoC5/CapSense_CSD_CSHL.c **** 
1511:.\Generated_Source\PSoC5/CapSense_CSD_CSHL.c ****                         #if (0u != (CapSense_CSD_IIR4_FILTER & CapSense_CSD_RADIAL_SLIDERS_POS_FILT
1512:.\Generated_Source\PSoC5/CapSense_CSD_CSHL.c ****                             if (0u != (posFiltersMask & CapSense_CSD_IIR4_FILTER))
1513:.\Generated_Source\PSoC5/CapSense_CSD_CSHL.c ****                             {
1514:.\Generated_Source\PSoC5/CapSense_CSD_CSHL.c ****                                 position = CapSense_CSD_IIR4Filter(position,
1515:.\Generated_Source\PSoC5/CapSense_CSD_CSHL.c ****                                                                     (uint16)CapSense_CSD_posFilters
1516:.\Generated_Source\PSoC5/CapSense_CSD_CSHL.c ****                                 CapSense_CSD_posFiltersData[posIndex] = (uint8) position;
1517:.\Generated_Source\PSoC5/CapSense_CSD_CSHL.c ****                             }
1518:.\Generated_Source\PSoC5/CapSense_CSD_CSHL.c ****                         #endif /* (0u != (CapSense_CSD_IIR4_FILTER & 
1519:.\Generated_Source\PSoC5/CapSense_CSD_CSHL.c ****                                *          CapSense_CSD_RADIAL_SLIDERS_POS_FILTERS_MASK))
1520:.\Generated_Source\PSoC5/CapSense_CSD_CSHL.c ****                                */
1521:.\Generated_Source\PSoC5/CapSense_CSD_CSHL.c **** 
1522:.\Generated_Source\PSoC5/CapSense_CSD_CSHL.c ****                         #if (0u != (CapSense_CSD_JITTER_FILTER & CapSense_CSD_RADIAL_SLIDERS_POS_FI
1523:.\Generated_Source\PSoC5/CapSense_CSD_CSHL.c ****                             if (0u != (posFiltersMask & CapSense_CSD_JITTER_FILTER))
1524:.\Generated_Source\PSoC5/CapSense_CSD_CSHL.c ****                             {
1525:.\Generated_Source\PSoC5/CapSense_CSD_CSHL.c ****                                 position = CapSense_CSD_JitterFilter(position, 
1526:.\Generated_Source\PSoC5/CapSense_CSD_CSHL.c ****                                                                          CapSense_CSD_posFiltersDat
1527:.\Generated_Source\PSoC5/CapSense_CSD_CSHL.c ****                                 CapSense_CSD_posFiltersData[posIndex] = (uint8) position;
1528:.\Generated_Source\PSoC5/CapSense_CSD_CSHL.c ****                             }
1529:.\Generated_Source\PSoC5/CapSense_CSD_CSHL.c ****                         #endif /* (0u != (CapSense_CSD_JITTER_FILTER &
1530:.\Generated_Source\PSoC5/CapSense_CSD_CSHL.c ****                                *           CapSense_CSD_RADIAL_SLIDERS_POS_FILTERS_MASK))
1531:.\Generated_Source\PSoC5/CapSense_CSD_CSHL.c ****                                */
1532:.\Generated_Source\PSoC5/CapSense_CSD_CSHL.c ****                     }
1533:.\Generated_Source\PSoC5/CapSense_CSD_CSHL.c ****                 }
1534:.\Generated_Source\PSoC5/CapSense_CSD_CSHL.c ****             #endif /* (0u != CapSense_CSD_RADIAL_SLIDERS_POS_FILTERS_MASK) */
1535:.\Generated_Source\PSoC5/CapSense_CSD_CSHL.c **** 
1536:.\Generated_Source\PSoC5/CapSense_CSD_CSHL.c ****         }
1537:.\Generated_Source\PSoC5/CapSense_CSD_CSHL.c ****         else
1538:.\Generated_Source\PSoC5/CapSense_CSD_CSHL.c ****         {
1539:.\Generated_Source\PSoC5/CapSense_CSD_CSHL.c ****             /* The maximum didn't find */
1540:.\Generated_Source\PSoC5/CapSense_CSD_CSHL.c ****             position = 0xFFFFu;
1541:.\Generated_Source\PSoC5/CapSense_CSD_CSHL.c **** 
1542:.\Generated_Source\PSoC5/CapSense_CSD_CSHL.c ****             #if (0u != CapSense_CSD_RADIAL_SLIDERS_POS_FILTERS_MASK)
1543:.\Generated_Source\PSoC5/CapSense_CSD_CSHL.c ****                 /* Reset the filters */
1544:.\Generated_Source\PSoC5/CapSense_CSD_CSHL.c ****                 if((posFiltersMask & CapSense_CSD_ANY_POS_FILTER) != 0u)
1545:.\Generated_Source\PSoC5/CapSense_CSD_CSHL.c ****                 {
1546:.\Generated_Source\PSoC5/CapSense_CSD_CSHL.c ****                     CapSense_CSD_posFiltersData[firstTimeIndex] = 0u;
1547:.\Generated_Source\PSoC5/CapSense_CSD_CSHL.c ****                 }
1548:.\Generated_Source\PSoC5/CapSense_CSD_CSHL.c ****             #endif /* (0u != CapSense_CSD_RADIAL_SLIDERS_POS_FILTERS_MASK) */
1549:.\Generated_Source\PSoC5/CapSense_CSD_CSHL.c ****         }
1550:.\Generated_Source\PSoC5/CapSense_CSD_CSHL.c ****         
ARM GAS  C:\Users\mark6\AppData\Local\Temp\ccRowwUe.s 			page 48


1551:.\Generated_Source\PSoC5/CapSense_CSD_CSHL.c ****         return (position);
1552:.\Generated_Source\PSoC5/CapSense_CSD_CSHL.c ****     }
1553:.\Generated_Source\PSoC5/CapSense_CSD_CSHL.c **** #endif
1554:.\Generated_Source\PSoC5/CapSense_CSD_CSHL.c **** 
1555:.\Generated_Source\PSoC5/CapSense_CSD_CSHL.c **** 
1556:.\Generated_Source\PSoC5/CapSense_CSD_CSHL.c **** #if(CapSense_CSD_TOTAL_TOUCH_PADS_COUNT > 0u)
1557:.\Generated_Source\PSoC5/CapSense_CSD_CSHL.c ****     /*******************************************************************************
1558:.\Generated_Source\PSoC5/CapSense_CSD_CSHL.c ****     * Function Name: CapSense_CSD_GetTouchCentroidPos
1559:.\Generated_Source\PSoC5/CapSense_CSD_CSHL.c ****     ********************************************************************************
1560:.\Generated_Source\PSoC5/CapSense_CSD_CSHL.c ****     *
1561:.\Generated_Source\PSoC5/CapSense_CSD_CSHL.c ****     * Summary:
1562:.\Generated_Source\PSoC5/CapSense_CSD_CSHL.c ****     *  If a finger is present on touch pad, this function calculates the X and Y
1563:.\Generated_Source\PSoC5/CapSense_CSD_CSHL.c ****     *  position of the finger by calculating the centroids within touch pad specified
1564:.\Generated_Source\PSoC5/CapSense_CSD_CSHL.c ****     *  range. The X and Y positions are calculated to the API resolutions set in the
1565:.\Generated_Source\PSoC5/CapSense_CSD_CSHL.c ****     *  CapSense customizer. Returns a 1 if a finger is on the touchpad.
1566:.\Generated_Source\PSoC5/CapSense_CSD_CSHL.c ****     *  The position filter is applied to the result if enabled.
1567:.\Generated_Source\PSoC5/CapSense_CSD_CSHL.c ****     *  This function is available only if a touch pad is defined by the CapSense
1568:.\Generated_Source\PSoC5/CapSense_CSD_CSHL.c ****     *  customizer.
1569:.\Generated_Source\PSoC5/CapSense_CSD_CSHL.c ****     *
1570:.\Generated_Source\PSoC5/CapSense_CSD_CSHL.c ****     * Parameters:
1571:.\Generated_Source\PSoC5/CapSense_CSD_CSHL.c ****     *  widget:  Widget number. 
1572:.\Generated_Source\PSoC5/CapSense_CSD_CSHL.c ****     *  For every touchpad widget there are defines in this format:
1573:.\Generated_Source\PSoC5/CapSense_CSD_CSHL.c ****     *  #define CapSense_CSD_TP_"widget_name"            5
1574:.\Generated_Source\PSoC5/CapSense_CSD_CSHL.c ****     *
1575:.\Generated_Source\PSoC5/CapSense_CSD_CSHL.c ****     *  pos:     Pointer to the array of two uint16 elements, where result
1576:.\Generated_Source\PSoC5/CapSense_CSD_CSHL.c ****     *  result of calculation of X and Y position are stored.
1577:.\Generated_Source\PSoC5/CapSense_CSD_CSHL.c ****     *  pos[0u]  - position of X
1578:.\Generated_Source\PSoC5/CapSense_CSD_CSHL.c ****     *  pos[1u]  - position of Y
1579:.\Generated_Source\PSoC5/CapSense_CSD_CSHL.c ****     *
1580:.\Generated_Source\PSoC5/CapSense_CSD_CSHL.c ****     * Return:
1581:.\Generated_Source\PSoC5/CapSense_CSD_CSHL.c ****     *  Returns a 1 if a finger is on the touch pad, 0 - if not.
1582:.\Generated_Source\PSoC5/CapSense_CSD_CSHL.c ****     *
1583:.\Generated_Source\PSoC5/CapSense_CSD_CSHL.c ****     * Side Effects:
1584:.\Generated_Source\PSoC5/CapSense_CSD_CSHL.c ****     *   There are no checks of widget type argument provided to this function.
1585:.\Generated_Source\PSoC5/CapSense_CSD_CSHL.c ****     *   The unproper widget type provided will cause unexpected position
1586:.\Generated_Source\PSoC5/CapSense_CSD_CSHL.c ****     *   calculations.
1587:.\Generated_Source\PSoC5/CapSense_CSD_CSHL.c ****     *
1588:.\Generated_Source\PSoC5/CapSense_CSD_CSHL.c ****     * Reentrant:
1589:.\Generated_Source\PSoC5/CapSense_CSD_CSHL.c ****     *  No.
1590:.\Generated_Source\PSoC5/CapSense_CSD_CSHL.c ****     *
1591:.\Generated_Source\PSoC5/CapSense_CSD_CSHL.c ****     *******************************************************************************/
1592:.\Generated_Source\PSoC5/CapSense_CSD_CSHL.c ****     uint8 CapSense_CSD_GetTouchCentroidPos(uint8 widget, uint16* pos)
1593:.\Generated_Source\PSoC5/CapSense_CSD_CSHL.c **** 	                                    
1594:.\Generated_Source\PSoC5/CapSense_CSD_CSHL.c ****     {
1595:.\Generated_Source\PSoC5/CapSense_CSD_CSHL.c ****         #if (0u != CapSense_CSD_TOUCH_PADS_POS_FILTERS_MASK)
1596:.\Generated_Source\PSoC5/CapSense_CSD_CSHL.c ****             uint8 posXIndex;
1597:.\Generated_Source\PSoC5/CapSense_CSD_CSHL.c ****             uint8 posYIndex;
1598:.\Generated_Source\PSoC5/CapSense_CSD_CSHL.c ****             uint8 firstTimeIndex = CapSense_CSD_posFiltersData[widget];
1599:.\Generated_Source\PSoC5/CapSense_CSD_CSHL.c ****             uint8 posFiltersMask = CapSense_CSD_posFiltersMask[widget];
1600:.\Generated_Source\PSoC5/CapSense_CSD_CSHL.c ****         #endif /* (0u != CapSense_CSD_TOUCH_PADS_POS_FILTERS_MASK) */
1601:.\Generated_Source\PSoC5/CapSense_CSD_CSHL.c **** 
1602:.\Generated_Source\PSoC5/CapSense_CSD_CSHL.c ****         #if ((0u != (CapSense_CSD_MEDIAN_FILTER & CapSense_CSD_TOUCH_PADS_POS_FILTERS_MASK)) || \
1603:.\Generated_Source\PSoC5/CapSense_CSD_CSHL.c ****              (0u != (CapSense_CSD_AVERAGING_FILTER & CapSense_CSD_TOUCH_PADS_POS_FILTERS_MASK)))
1604:.\Generated_Source\PSoC5/CapSense_CSD_CSHL.c ****             uint16 tempPos;
1605:.\Generated_Source\PSoC5/CapSense_CSD_CSHL.c ****         #endif /* ((0u != (CapSense_CSD_MEDIAN_FILTER & CapSense_CSD_TOUCH_PADS_POS_FILTERS_MASK)) 
1606:.\Generated_Source\PSoC5/CapSense_CSD_CSHL.c ****                *   (0u != (CapSense_CSD_AVERAGING_FILTER & CapSense_CSD_TOUCH_PADS_POS_FILTERS_MASK
1607:.\Generated_Source\PSoC5/CapSense_CSD_CSHL.c ****                */
ARM GAS  C:\Users\mark6\AppData\Local\Temp\ccRowwUe.s 			page 49


1608:.\Generated_Source\PSoC5/CapSense_CSD_CSHL.c **** 
1609:.\Generated_Source\PSoC5/CapSense_CSD_CSHL.c ****         uint8 maxX;
1610:.\Generated_Source\PSoC5/CapSense_CSD_CSHL.c ****         uint8 maxY;
1611:.\Generated_Source\PSoC5/CapSense_CSD_CSHL.c ****         uint8 posX;
1612:.\Generated_Source\PSoC5/CapSense_CSD_CSHL.c ****         uint8 posY;
1613:.\Generated_Source\PSoC5/CapSense_CSD_CSHL.c ****         uint8 touch = 0u;
1614:.\Generated_Source\PSoC5/CapSense_CSD_CSHL.c ****         uint8 offset = CapSense_CSD_rawDataIndex[widget];
1615:.\Generated_Source\PSoC5/CapSense_CSD_CSHL.c ****         uint8 count = CapSense_CSD_numberOfSensors[widget];
1616:.\Generated_Source\PSoC5/CapSense_CSD_CSHL.c ****         
1617:.\Generated_Source\PSoC5/CapSense_CSD_CSHL.c ****         /* Find Maximum within X centroid */
1618:.\Generated_Source\PSoC5/CapSense_CSD_CSHL.c ****         #if (CapSense_CSD_IS_DIPLEX_SLIDER)
1619:.\Generated_Source\PSoC5/CapSense_CSD_CSHL.c ****             maxX = CapSense_CSD_FindMaximum(offset, count, CapSense_CSD_fingerThreshold[widget], 0u
1620:.\Generated_Source\PSoC5/CapSense_CSD_CSHL.c ****         #else
1621:.\Generated_Source\PSoC5/CapSense_CSD_CSHL.c ****             maxX = CapSense_CSD_FindMaximum(offset, count, CapSense_CSD_fingerThreshold[widget]);
1622:.\Generated_Source\PSoC5/CapSense_CSD_CSHL.c ****         #endif /* (CapSense_CSD_IS_DIPLEX_SLIDER) */
1623:.\Generated_Source\PSoC5/CapSense_CSD_CSHL.c **** 
1624:.\Generated_Source\PSoC5/CapSense_CSD_CSHL.c ****         if (maxX != 0xFFu)
1625:.\Generated_Source\PSoC5/CapSense_CSD_CSHL.c ****         {
1626:.\Generated_Source\PSoC5/CapSense_CSD_CSHL.c ****             offset = CapSense_CSD_rawDataIndex[widget + 1u];
1627:.\Generated_Source\PSoC5/CapSense_CSD_CSHL.c ****             count = CapSense_CSD_numberOfSensors[widget + 1u];
1628:.\Generated_Source\PSoC5/CapSense_CSD_CSHL.c **** 
1629:.\Generated_Source\PSoC5/CapSense_CSD_CSHL.c ****             /* Find Maximum within Y centroid */
1630:.\Generated_Source\PSoC5/CapSense_CSD_CSHL.c ****             #if (CapSense_CSD_IS_DIPLEX_SLIDER)
1631:.\Generated_Source\PSoC5/CapSense_CSD_CSHL.c ****                 maxY = CapSense_CSD_FindMaximum(offset, count, CapSense_CSD_fingerThreshold[widget 
1632:.\Generated_Source\PSoC5/CapSense_CSD_CSHL.c ****             #else
1633:.\Generated_Source\PSoC5/CapSense_CSD_CSHL.c ****                 maxY = CapSense_CSD_FindMaximum(offset, count, CapSense_CSD_fingerThreshold[widget 
1634:.\Generated_Source\PSoC5/CapSense_CSD_CSHL.c ****             #endif /* (CapSense_CSD_IS_DIPLEX_SLIDER) */
1635:.\Generated_Source\PSoC5/CapSense_CSD_CSHL.c **** 
1636:.\Generated_Source\PSoC5/CapSense_CSD_CSHL.c ****             if (maxY != 0xFFu)
1637:.\Generated_Source\PSoC5/CapSense_CSD_CSHL.c ****             {
1638:.\Generated_Source\PSoC5/CapSense_CSD_CSHL.c ****                 /* X and Y maximums are found = true touch */
1639:.\Generated_Source\PSoC5/CapSense_CSD_CSHL.c ****                 touch = 1u;
1640:.\Generated_Source\PSoC5/CapSense_CSD_CSHL.c ****                 
1641:.\Generated_Source\PSoC5/CapSense_CSD_CSHL.c ****                 /* Calculate Y centroid */
1642:.\Generated_Source\PSoC5/CapSense_CSD_CSHL.c ****                 posY = CapSense_CSD_CalcCentroid(maxY, offset, count, 
1643:.\Generated_Source\PSoC5/CapSense_CSD_CSHL.c ****                             CapSense_CSD_centroidMult[widget + 1u], CapSense_CSD_noiseThreshold[wid
1644:.\Generated_Source\PSoC5/CapSense_CSD_CSHL.c ****                 
1645:.\Generated_Source\PSoC5/CapSense_CSD_CSHL.c ****                 /* Calculate X centroid */
1646:.\Generated_Source\PSoC5/CapSense_CSD_CSHL.c ****                 offset = CapSense_CSD_rawDataIndex[widget];
1647:.\Generated_Source\PSoC5/CapSense_CSD_CSHL.c ****                 count = CapSense_CSD_numberOfSensors[widget];
1648:.\Generated_Source\PSoC5/CapSense_CSD_CSHL.c ****                 
1649:.\Generated_Source\PSoC5/CapSense_CSD_CSHL.c ****                 posX = CapSense_CSD_CalcCentroid(maxX, offset, count, 
1650:.\Generated_Source\PSoC5/CapSense_CSD_CSHL.c ****                             CapSense_CSD_centroidMult[widget],CapSense_CSD_noiseThreshold[widget]);
1651:.\Generated_Source\PSoC5/CapSense_CSD_CSHL.c ****     
1652:.\Generated_Source\PSoC5/CapSense_CSD_CSHL.c ****                 #if (0u != CapSense_CSD_TOUCH_PADS_POS_FILTERS_MASK)
1653:.\Generated_Source\PSoC5/CapSense_CSD_CSHL.c ****                     /* Check if this TP has enabled filters */
1654:.\Generated_Source\PSoC5/CapSense_CSD_CSHL.c ****                     if (0u != (posFiltersMask & CapSense_CSD_ANY_POS_FILTER))
1655:.\Generated_Source\PSoC5/CapSense_CSD_CSHL.c ****                     {
1656:.\Generated_Source\PSoC5/CapSense_CSD_CSHL.c ****                         /* Caluclate position to store filters data */
1657:.\Generated_Source\PSoC5/CapSense_CSD_CSHL.c ****                         posXIndex  = firstTimeIndex + 1u;
1658:.\Generated_Source\PSoC5/CapSense_CSD_CSHL.c ****                         posYIndex  = CapSense_CSD_posFiltersData[widget + 1u];
1659:.\Generated_Source\PSoC5/CapSense_CSD_CSHL.c ****                         
1660:.\Generated_Source\PSoC5/CapSense_CSD_CSHL.c ****                         if (0u == CapSense_CSD_posFiltersData[firstTimeIndex])
1661:.\Generated_Source\PSoC5/CapSense_CSD_CSHL.c ****                         {
1662:.\Generated_Source\PSoC5/CapSense_CSD_CSHL.c ****                             /* Init filters */
1663:.\Generated_Source\PSoC5/CapSense_CSD_CSHL.c ****                             CapSense_CSD_posFiltersData[posXIndex] = posX;
1664:.\Generated_Source\PSoC5/CapSense_CSD_CSHL.c ****                             CapSense_CSD_posFiltersData[posYIndex] = posY;
ARM GAS  C:\Users\mark6\AppData\Local\Temp\ccRowwUe.s 			page 50


1665:.\Generated_Source\PSoC5/CapSense_CSD_CSHL.c **** 
1666:.\Generated_Source\PSoC5/CapSense_CSD_CSHL.c ****                             #if((0u != (CapSense_CSD_MEDIAN_FILTER & \
1667:.\Generated_Source\PSoC5/CapSense_CSD_CSHL.c ****                                         CapSense_CSD_TOUCH_PADS_POS_FILTERS_MASK))|| \
1668:.\Generated_Source\PSoC5/CapSense_CSD_CSHL.c ****                                 (0u != (CapSense_CSD_AVERAGING_FILTER & \
1669:.\Generated_Source\PSoC5/CapSense_CSD_CSHL.c ****                                         CapSense_CSD_TOUCH_PADS_POS_FILTERS_MASK)))
1670:.\Generated_Source\PSoC5/CapSense_CSD_CSHL.c **** 
1671:.\Generated_Source\PSoC5/CapSense_CSD_CSHL.c ****                                 if ( (0u != (posFiltersMask & CapSense_CSD_MEDIAN_FILTER)) || 
1672:.\Generated_Source\PSoC5/CapSense_CSD_CSHL.c ****                                      (0u != (posFiltersMask & CapSense_CSD_AVERAGING_FILTER)) )
1673:.\Generated_Source\PSoC5/CapSense_CSD_CSHL.c ****                                 {
1674:.\Generated_Source\PSoC5/CapSense_CSD_CSHL.c ****                                     CapSense_CSD_posFiltersData[posXIndex + 1u] = posX;
1675:.\Generated_Source\PSoC5/CapSense_CSD_CSHL.c ****                                     CapSense_CSD_posFiltersData[posYIndex + 1u] = posY;
1676:.\Generated_Source\PSoC5/CapSense_CSD_CSHL.c ****                                 }
1677:.\Generated_Source\PSoC5/CapSense_CSD_CSHL.c ****                             #endif /* ((0u != (CapSense_CSD_MEDIAN_FILTER & \
1678:.\Generated_Source\PSoC5/CapSense_CSD_CSHL.c ****                                    *           CapSense_CSD_TOUCH_PADS_POS_FILTERS_MASK)) || \
1679:.\Generated_Source\PSoC5/CapSense_CSD_CSHL.c ****                                    *    (0u != (CapSense_CSD_AVERAGING_FILTER & \
1680:.\Generated_Source\PSoC5/CapSense_CSD_CSHL.c ****                                    *            CapSense_CSD_TOUCH_PADS_POS_FILTERS_MASK)))
1681:.\Generated_Source\PSoC5/CapSense_CSD_CSHL.c ****                                    */
1682:.\Generated_Source\PSoC5/CapSense_CSD_CSHL.c ****                             
1683:.\Generated_Source\PSoC5/CapSense_CSD_CSHL.c ****                             CapSense_CSD_posFiltersData[firstTimeIndex] = 1u;
1684:.\Generated_Source\PSoC5/CapSense_CSD_CSHL.c ****                         }
1685:.\Generated_Source\PSoC5/CapSense_CSD_CSHL.c ****                         else
1686:.\Generated_Source\PSoC5/CapSense_CSD_CSHL.c ****                         {
1687:.\Generated_Source\PSoC5/CapSense_CSD_CSHL.c ****                             /* Do filtering */
1688:.\Generated_Source\PSoC5/CapSense_CSD_CSHL.c ****                             #if (0u != (CapSense_CSD_MEDIAN_FILTER & CapSense_CSD_TOUCH_PADS_POS_FI
1689:.\Generated_Source\PSoC5/CapSense_CSD_CSHL.c ****                                 if (0u != (posFiltersMask & CapSense_CSD_MEDIAN_FILTER))
1690:.\Generated_Source\PSoC5/CapSense_CSD_CSHL.c ****                                 {
1691:.\Generated_Source\PSoC5/CapSense_CSD_CSHL.c ****                                     tempPos = posX;
1692:.\Generated_Source\PSoC5/CapSense_CSD_CSHL.c ****                                     posX = (uint8) CapSense_CSD_MedianFilter(posX,
1693:.\Generated_Source\PSoC5/CapSense_CSD_CSHL.c ****                                                                       CapSense_CSD_posFiltersData[p
1694:.\Generated_Source\PSoC5/CapSense_CSD_CSHL.c ****                                                                       CapSense_CSD_posFiltersData[p
1695:.\Generated_Source\PSoC5/CapSense_CSD_CSHL.c ****                                     CapSense_CSD_posFiltersData[posXIndex + 1u] = 
1696:.\Generated_Source\PSoC5/CapSense_CSD_CSHL.c ****                                                                              CapSense_CSD_posFilter
1697:.\Generated_Source\PSoC5/CapSense_CSD_CSHL.c ****                                     CapSense_CSD_posFiltersData[posXIndex] = tempPos;
1698:.\Generated_Source\PSoC5/CapSense_CSD_CSHL.c ****                                     
1699:.\Generated_Source\PSoC5/CapSense_CSD_CSHL.c ****                                     tempPos = posY;
1700:.\Generated_Source\PSoC5/CapSense_CSD_CSHL.c ****                                     posY = (uint8) CapSense_CSD_MedianFilter(posY,
1701:.\Generated_Source\PSoC5/CapSense_CSD_CSHL.c ****                                                                        CapSense_CSD_posFiltersData[
1702:.\Generated_Source\PSoC5/CapSense_CSD_CSHL.c ****                                                                        CapSense_CSD_posFiltersData[
1703:.\Generated_Source\PSoC5/CapSense_CSD_CSHL.c ****                                     CapSense_CSD_posFiltersData[posYIndex + 1u] = 
1704:.\Generated_Source\PSoC5/CapSense_CSD_CSHL.c ****                                                                              CapSense_CSD_posFilter
1705:.\Generated_Source\PSoC5/CapSense_CSD_CSHL.c ****                                     CapSense_CSD_posFiltersData[posYIndex] = tempPos;
1706:.\Generated_Source\PSoC5/CapSense_CSD_CSHL.c ****                                 }
1707:.\Generated_Source\PSoC5/CapSense_CSD_CSHL.c ****                                 
1708:.\Generated_Source\PSoC5/CapSense_CSD_CSHL.c ****                             #endif /* (0u != (CapSense_CSD_MEDIAN_FILTER & \
1709:.\Generated_Source\PSoC5/CapSense_CSD_CSHL.c ****                                    *          CapSense_CSD_TOUCH_PADS_POS_FILTERS_MASK))
1710:.\Generated_Source\PSoC5/CapSense_CSD_CSHL.c ****                                    */
1711:.\Generated_Source\PSoC5/CapSense_CSD_CSHL.c **** 
1712:.\Generated_Source\PSoC5/CapSense_CSD_CSHL.c ****                             #if(0u !=(CapSense_CSD_AVERAGING_FILTER & CapSense_CSD_TOUCH_PADS_POS_F
1713:.\Generated_Source\PSoC5/CapSense_CSD_CSHL.c ****                                 if (0u != (posFiltersMask & CapSense_CSD_AVERAGING_FILTER))
1714:.\Generated_Source\PSoC5/CapSense_CSD_CSHL.c ****                                 {
1715:.\Generated_Source\PSoC5/CapSense_CSD_CSHL.c ****                                     tempPos = posX;
1716:.\Generated_Source\PSoC5/CapSense_CSD_CSHL.c ****                                     posX = (uint8) CapSense_CSD_AveragingFilter(posX,
1717:.\Generated_Source\PSoC5/CapSense_CSD_CSHL.c ****                                                                        CapSense_CSD_posFiltersData[
1718:.\Generated_Source\PSoC5/CapSense_CSD_CSHL.c ****                                                                        CapSense_CSD_posFiltersData[
1719:.\Generated_Source\PSoC5/CapSense_CSD_CSHL.c ****                                     CapSense_CSD_posFiltersData[posXIndex + 1u] = 
1720:.\Generated_Source\PSoC5/CapSense_CSD_CSHL.c ****                                                                              CapSense_CSD_posFilter
1721:.\Generated_Source\PSoC5/CapSense_CSD_CSHL.c ****                                     CapSense_CSD_posFiltersData[posXIndex] = tempPos;
ARM GAS  C:\Users\mark6\AppData\Local\Temp\ccRowwUe.s 			page 51


1722:.\Generated_Source\PSoC5/CapSense_CSD_CSHL.c ****                                     
1723:.\Generated_Source\PSoC5/CapSense_CSD_CSHL.c ****                                     tempPos = posY;
1724:.\Generated_Source\PSoC5/CapSense_CSD_CSHL.c ****                                     posY = (uint8) CapSense_CSD_AveragingFilter(posY, 
1725:.\Generated_Source\PSoC5/CapSense_CSD_CSHL.c ****                                                                       CapSense_CSD_posFiltersData[p
1726:.\Generated_Source\PSoC5/CapSense_CSD_CSHL.c ****                                                                       CapSense_CSD_posFiltersData[p
1727:.\Generated_Source\PSoC5/CapSense_CSD_CSHL.c ****                                     CapSense_CSD_posFiltersData[posYIndex + 1u] = 
1728:.\Generated_Source\PSoC5/CapSense_CSD_CSHL.c ****                                                                             CapSense_CSD_posFilters
1729:.\Generated_Source\PSoC5/CapSense_CSD_CSHL.c ****                                     CapSense_CSD_posFiltersData[posYIndex] = tempPos;
1730:.\Generated_Source\PSoC5/CapSense_CSD_CSHL.c ****                                 }
1731:.\Generated_Source\PSoC5/CapSense_CSD_CSHL.c **** 
1732:.\Generated_Source\PSoC5/CapSense_CSD_CSHL.c ****                             #endif /* (0u != (CapSense_CSD_AVERAGING_FILTER & \
1733:.\Generated_Source\PSoC5/CapSense_CSD_CSHL.c ****                                    *           CapSense_CSD_TOUCH_PADS_POS_FILTERS_MASK))
1734:.\Generated_Source\PSoC5/CapSense_CSD_CSHL.c ****                                    */
1735:.\Generated_Source\PSoC5/CapSense_CSD_CSHL.c **** 
1736:.\Generated_Source\PSoC5/CapSense_CSD_CSHL.c ****                             #if (0u != (CapSense_CSD_IIR2_FILTER & CapSense_CSD_TOUCH_PADS_POS_FILT
1737:.\Generated_Source\PSoC5/CapSense_CSD_CSHL.c ****                                 if (0u != (posFiltersMask & CapSense_CSD_IIR2_FILTER))
1738:.\Generated_Source\PSoC5/CapSense_CSD_CSHL.c ****                                 {
1739:.\Generated_Source\PSoC5/CapSense_CSD_CSHL.c ****                                     posX = (uint8) CapSense_CSD_IIR2Filter(posX, 
1740:.\Generated_Source\PSoC5/CapSense_CSD_CSHL.c ****                                                                            CapSense_CSD_posFiltersD
1741:.\Generated_Source\PSoC5/CapSense_CSD_CSHL.c ****                                     CapSense_CSD_posFiltersData[posXIndex] = posX;
1742:.\Generated_Source\PSoC5/CapSense_CSD_CSHL.c ****                                     
1743:.\Generated_Source\PSoC5/CapSense_CSD_CSHL.c ****                                     posY = (uint8) CapSense_CSD_IIR2Filter(posY, 
1744:.\Generated_Source\PSoC5/CapSense_CSD_CSHL.c ****                                                                             CapSense_CSD_posFilters
1745:.\Generated_Source\PSoC5/CapSense_CSD_CSHL.c ****                                     CapSense_CSD_posFiltersData[posYIndex] = posY;
1746:.\Generated_Source\PSoC5/CapSense_CSD_CSHL.c ****                                 }
1747:.\Generated_Source\PSoC5/CapSense_CSD_CSHL.c ****                                 
1748:.\Generated_Source\PSoC5/CapSense_CSD_CSHL.c ****                             #endif /* (0u != (CapSense_CSD_IIR2_FILTER & \
1749:.\Generated_Source\PSoC5/CapSense_CSD_CSHL.c ****                                    *          CapSense_CSD_TOUCH_PADS_POS_FILTERS_MASK))
1750:.\Generated_Source\PSoC5/CapSense_CSD_CSHL.c ****                                    */
1751:.\Generated_Source\PSoC5/CapSense_CSD_CSHL.c **** 
1752:.\Generated_Source\PSoC5/CapSense_CSD_CSHL.c ****                             #if (0u != (CapSense_CSD_IIR4_FILTER & CapSense_CSD_TOUCH_PADS_POS_FILT
1753:.\Generated_Source\PSoC5/CapSense_CSD_CSHL.c ****                                 if (0u != (posFiltersMask & CapSense_CSD_IIR4_FILTER))
1754:.\Generated_Source\PSoC5/CapSense_CSD_CSHL.c ****                                 {
1755:.\Generated_Source\PSoC5/CapSense_CSD_CSHL.c ****                                     posX = (uint8) CapSense_CSD_IIR4Filter((uint16)posX,
1756:.\Generated_Source\PSoC5/CapSense_CSD_CSHL.c ****                                                                     (uint16)CapSense_CSD_posFilters
1757:.\Generated_Source\PSoC5/CapSense_CSD_CSHL.c ****                                     CapSense_CSD_posFiltersData[posXIndex] = posX;
1758:.\Generated_Source\PSoC5/CapSense_CSD_CSHL.c **** 
1759:.\Generated_Source\PSoC5/CapSense_CSD_CSHL.c ****                                     posY = (uint8) CapSense_CSD_IIR4Filter((uint16)posY,
1760:.\Generated_Source\PSoC5/CapSense_CSD_CSHL.c ****                                                                     (uint16)CapSense_CSD_posFilters
1761:.\Generated_Source\PSoC5/CapSense_CSD_CSHL.c ****                                     CapSense_CSD_posFiltersData[posYIndex] = posY;
1762:.\Generated_Source\PSoC5/CapSense_CSD_CSHL.c ****                                 }
1763:.\Generated_Source\PSoC5/CapSense_CSD_CSHL.c ****                                 
1764:.\Generated_Source\PSoC5/CapSense_CSD_CSHL.c ****                             #endif /* (0u != (CapSense_CSD_IIR4_FILTER & \
1765:.\Generated_Source\PSoC5/CapSense_CSD_CSHL.c ****                                    *           CapSense_CSD_TOUCH_PADS_POS_FILTERS_MASK))
1766:.\Generated_Source\PSoC5/CapSense_CSD_CSHL.c ****                                    */
1767:.\Generated_Source\PSoC5/CapSense_CSD_CSHL.c **** 
1768:.\Generated_Source\PSoC5/CapSense_CSD_CSHL.c ****                             #if (0u != (CapSense_CSD_JITTER_FILTER & CapSense_CSD_TOUCH_PADS_POS_FI
1769:.\Generated_Source\PSoC5/CapSense_CSD_CSHL.c ****                                 if (0u != (posFiltersMask & CapSense_CSD_JITTER_FILTER))
1770:.\Generated_Source\PSoC5/CapSense_CSD_CSHL.c ****                                     {
1771:.\Generated_Source\PSoC5/CapSense_CSD_CSHL.c ****                                         posX = (uint8) CapSense_CSD_JitterFilter(posX, 
1772:.\Generated_Source\PSoC5/CapSense_CSD_CSHL.c ****                                                                             CapSense_CSD_posFilters
1773:.\Generated_Source\PSoC5/CapSense_CSD_CSHL.c ****                                         CapSense_CSD_posFiltersData[posXIndex] = posX;
1774:.\Generated_Source\PSoC5/CapSense_CSD_CSHL.c ****                                         
1775:.\Generated_Source\PSoC5/CapSense_CSD_CSHL.c ****                                         posY = (uint8) CapSense_CSD_JitterFilter(posY, 
1776:.\Generated_Source\PSoC5/CapSense_CSD_CSHL.c ****                                                                             CapSense_CSD_posFilters
1777:.\Generated_Source\PSoC5/CapSense_CSD_CSHL.c ****                                         CapSense_CSD_posFiltersData[posYIndex] = posY;
1778:.\Generated_Source\PSoC5/CapSense_CSD_CSHL.c ****                                     }
ARM GAS  C:\Users\mark6\AppData\Local\Temp\ccRowwUe.s 			page 52


1779:.\Generated_Source\PSoC5/CapSense_CSD_CSHL.c ****                             #endif /* (0u != (CapSense_CSD_JITTER_FILTER & \
1780:.\Generated_Source\PSoC5/CapSense_CSD_CSHL.c ****                                    *           CapSense_CSD_TOUCH_PADS_POS_FILTERS_MASK))
1781:.\Generated_Source\PSoC5/CapSense_CSD_CSHL.c ****                                    */
1782:.\Generated_Source\PSoC5/CapSense_CSD_CSHL.c ****                         }
1783:.\Generated_Source\PSoC5/CapSense_CSD_CSHL.c ****                     }
1784:.\Generated_Source\PSoC5/CapSense_CSD_CSHL.c ****                 #endif /* (0u != CapSense_CSD_TOUCH_PADS_POS_FILTERS_MASK) */
1785:.\Generated_Source\PSoC5/CapSense_CSD_CSHL.c **** 
1786:.\Generated_Source\PSoC5/CapSense_CSD_CSHL.c ****                 /* Save positions */
1787:.\Generated_Source\PSoC5/CapSense_CSD_CSHL.c ****                 pos[0u] = posX;
1788:.\Generated_Source\PSoC5/CapSense_CSD_CSHL.c ****                 pos[1u] = posY;
1789:.\Generated_Source\PSoC5/CapSense_CSD_CSHL.c ****             }
1790:.\Generated_Source\PSoC5/CapSense_CSD_CSHL.c ****         }
1791:.\Generated_Source\PSoC5/CapSense_CSD_CSHL.c **** 
1792:.\Generated_Source\PSoC5/CapSense_CSD_CSHL.c ****         #if (0u != CapSense_CSD_TOUCH_PADS_POS_FILTERS_MASK)
1793:.\Generated_Source\PSoC5/CapSense_CSD_CSHL.c ****             if(touch == 0u)
1794:.\Generated_Source\PSoC5/CapSense_CSD_CSHL.c ****             {
1795:.\Generated_Source\PSoC5/CapSense_CSD_CSHL.c ****                 /* Reset the filters */
1796:.\Generated_Source\PSoC5/CapSense_CSD_CSHL.c ****                 if ((posFiltersMask & CapSense_CSD_ANY_POS_FILTER) != 0u)
1797:.\Generated_Source\PSoC5/CapSense_CSD_CSHL.c ****                 {
1798:.\Generated_Source\PSoC5/CapSense_CSD_CSHL.c ****                     CapSense_CSD_posFiltersData[firstTimeIndex] = 0u;
1799:.\Generated_Source\PSoC5/CapSense_CSD_CSHL.c ****                 }
1800:.\Generated_Source\PSoC5/CapSense_CSD_CSHL.c ****             }
1801:.\Generated_Source\PSoC5/CapSense_CSD_CSHL.c ****         #endif /* (0u != CapSense_CSD_TOUCH_PADS_POS_FILTERS_MASK) */
1802:.\Generated_Source\PSoC5/CapSense_CSD_CSHL.c ****         
1803:.\Generated_Source\PSoC5/CapSense_CSD_CSHL.c ****         return (touch);
1804:.\Generated_Source\PSoC5/CapSense_CSD_CSHL.c ****     }
1805:.\Generated_Source\PSoC5/CapSense_CSD_CSHL.c **** #endif /* (CapSense_CSD_TOTAL_TOUCH_PADS_COUNT > 0u) */
1806:.\Generated_Source\PSoC5/CapSense_CSD_CSHL.c **** 
1807:.\Generated_Source\PSoC5/CapSense_CSD_CSHL.c **** 
1808:.\Generated_Source\PSoC5/CapSense_CSD_CSHL.c **** #if ( (CapSense_CSD_RAW_FILTER_MASK & CapSense_CSD_MEDIAN_FILTER) | \
1809:.\Generated_Source\PSoC5/CapSense_CSD_CSHL.c ****       (CapSense_CSD_POS_FILTERS_MASK & CapSense_CSD_MEDIAN_FILTER) )
1810:.\Generated_Source\PSoC5/CapSense_CSD_CSHL.c ****     /*******************************************************************************
1811:.\Generated_Source\PSoC5/CapSense_CSD_CSHL.c ****     * Function Name: CapSense_CSD_MedianFilter
1812:.\Generated_Source\PSoC5/CapSense_CSD_CSHL.c ****     ********************************************************************************
1813:.\Generated_Source\PSoC5/CapSense_CSD_CSHL.c ****     *
1814:.\Generated_Source\PSoC5/CapSense_CSD_CSHL.c ****     * Summary:
1815:.\Generated_Source\PSoC5/CapSense_CSD_CSHL.c ****     *  Median filter function. 
1816:.\Generated_Source\PSoC5/CapSense_CSD_CSHL.c ****     *  The median filter looks at the three most recent samples and reports the 
1817:.\Generated_Source\PSoC5/CapSense_CSD_CSHL.c ****     *  median value.
1818:.\Generated_Source\PSoC5/CapSense_CSD_CSHL.c ****     *
1819:.\Generated_Source\PSoC5/CapSense_CSD_CSHL.c ****     * Parameters:
1820:.\Generated_Source\PSoC5/CapSense_CSD_CSHL.c ****     *  x1:  Current value.
1821:.\Generated_Source\PSoC5/CapSense_CSD_CSHL.c ****     *  x2:  Previous value.
1822:.\Generated_Source\PSoC5/CapSense_CSD_CSHL.c ****     *  x3:  Before previous value.
1823:.\Generated_Source\PSoC5/CapSense_CSD_CSHL.c ****     *
1824:.\Generated_Source\PSoC5/CapSense_CSD_CSHL.c ****     * Return:
1825:.\Generated_Source\PSoC5/CapSense_CSD_CSHL.c ****     *  Returns filtered value.
1826:.\Generated_Source\PSoC5/CapSense_CSD_CSHL.c ****     *
1827:.\Generated_Source\PSoC5/CapSense_CSD_CSHL.c ****     *******************************************************************************/
1828:.\Generated_Source\PSoC5/CapSense_CSD_CSHL.c ****     uint16 CapSense_CSD_MedianFilter(uint16 x1, uint16 x2, uint16 x3)
1829:.\Generated_Source\PSoC5/CapSense_CSD_CSHL.c ****                                          
1830:.\Generated_Source\PSoC5/CapSense_CSD_CSHL.c ****     {
1831:.\Generated_Source\PSoC5/CapSense_CSD_CSHL.c ****         uint16 tmp;
1832:.\Generated_Source\PSoC5/CapSense_CSD_CSHL.c ****         
1833:.\Generated_Source\PSoC5/CapSense_CSD_CSHL.c ****         if (x1 > x2)
1834:.\Generated_Source\PSoC5/CapSense_CSD_CSHL.c ****         {
1835:.\Generated_Source\PSoC5/CapSense_CSD_CSHL.c ****             tmp = x2;
ARM GAS  C:\Users\mark6\AppData\Local\Temp\ccRowwUe.s 			page 53


1836:.\Generated_Source\PSoC5/CapSense_CSD_CSHL.c ****             x2 = x1;
1837:.\Generated_Source\PSoC5/CapSense_CSD_CSHL.c ****             x1 = tmp;
1838:.\Generated_Source\PSoC5/CapSense_CSD_CSHL.c ****         }
1839:.\Generated_Source\PSoC5/CapSense_CSD_CSHL.c ****         
1840:.\Generated_Source\PSoC5/CapSense_CSD_CSHL.c ****         if (x2 > x3)
1841:.\Generated_Source\PSoC5/CapSense_CSD_CSHL.c ****         {
1842:.\Generated_Source\PSoC5/CapSense_CSD_CSHL.c ****             x2 = x3;
1843:.\Generated_Source\PSoC5/CapSense_CSD_CSHL.c ****         }
1844:.\Generated_Source\PSoC5/CapSense_CSD_CSHL.c ****         
1845:.\Generated_Source\PSoC5/CapSense_CSD_CSHL.c ****         return ((x1 > x2) ? x1 : x2);
1846:.\Generated_Source\PSoC5/CapSense_CSD_CSHL.c ****     }
1847:.\Generated_Source\PSoC5/CapSense_CSD_CSHL.c **** #endif /* ( (CapSense_CSD_RAW_FILTER_MASK & CapSense_CSD_MEDIAN_FILTER) | \
1848:.\Generated_Source\PSoC5/CapSense_CSD_CSHL.c ****        *    (CapSense_CSD_POS_FILTERS_MASK & CapSense_CSD_MEDIAN_FILTER) )
1849:.\Generated_Source\PSoC5/CapSense_CSD_CSHL.c ****        */
1850:.\Generated_Source\PSoC5/CapSense_CSD_CSHL.c **** 
1851:.\Generated_Source\PSoC5/CapSense_CSD_CSHL.c **** 
1852:.\Generated_Source\PSoC5/CapSense_CSD_CSHL.c **** #if ( (CapSense_CSD_RAW_FILTER_MASK & CapSense_CSD_AVERAGING_FILTER) | \
1853:.\Generated_Source\PSoC5/CapSense_CSD_CSHL.c ****       (CapSense_CSD_POS_FILTERS_MASK & CapSense_CSD_AVERAGING_FILTER) )
1854:.\Generated_Source\PSoC5/CapSense_CSD_CSHL.c ****     /*******************************************************************************
1855:.\Generated_Source\PSoC5/CapSense_CSD_CSHL.c ****     * Function Name: CapSense_CSD_AveragingFilter
1856:.\Generated_Source\PSoC5/CapSense_CSD_CSHL.c ****     ********************************************************************************
1857:.\Generated_Source\PSoC5/CapSense_CSD_CSHL.c ****     *
1858:.\Generated_Source\PSoC5/CapSense_CSD_CSHL.c ****     * Summary:
1859:.\Generated_Source\PSoC5/CapSense_CSD_CSHL.c ****     *  Averaging filter function.
1860:.\Generated_Source\PSoC5/CapSense_CSD_CSHL.c ****     *  The averaging filter looks at the three most recent samples of position and
1861:.\Generated_Source\PSoC5/CapSense_CSD_CSHL.c ****     *  reports the averaging value.
1862:.\Generated_Source\PSoC5/CapSense_CSD_CSHL.c ****     *
1863:.\Generated_Source\PSoC5/CapSense_CSD_CSHL.c ****     * Parameters:
1864:.\Generated_Source\PSoC5/CapSense_CSD_CSHL.c ****     *  x1:  Current value.
1865:.\Generated_Source\PSoC5/CapSense_CSD_CSHL.c ****     *  x2:  Previous value.
1866:.\Generated_Source\PSoC5/CapSense_CSD_CSHL.c ****     *  x3:  Before previous value.
1867:.\Generated_Source\PSoC5/CapSense_CSD_CSHL.c ****     *
1868:.\Generated_Source\PSoC5/CapSense_CSD_CSHL.c ****     * Return:
1869:.\Generated_Source\PSoC5/CapSense_CSD_CSHL.c ****     *  Returns filtered value.
1870:.\Generated_Source\PSoC5/CapSense_CSD_CSHL.c ****     *
1871:.\Generated_Source\PSoC5/CapSense_CSD_CSHL.c ****     *******************************************************************************/
1872:.\Generated_Source\PSoC5/CapSense_CSD_CSHL.c ****     uint16 CapSense_CSD_AveragingFilter(uint16 x1, uint16 x2, uint16 x3)
1873:.\Generated_Source\PSoC5/CapSense_CSD_CSHL.c ****                                             
1874:.\Generated_Source\PSoC5/CapSense_CSD_CSHL.c ****     {
1875:.\Generated_Source\PSoC5/CapSense_CSD_CSHL.c ****         uint32 tmp = ((uint32)x1 + (uint32)x2 + (uint32)x3) / 3u;
1876:.\Generated_Source\PSoC5/CapSense_CSD_CSHL.c ****         
1877:.\Generated_Source\PSoC5/CapSense_CSD_CSHL.c ****         return ((uint16) tmp);
1878:.\Generated_Source\PSoC5/CapSense_CSD_CSHL.c ****     }
1879:.\Generated_Source\PSoC5/CapSense_CSD_CSHL.c **** #endif /* ( (CapSense_CSD_RAW_FILTER_MASK & CapSense_CSD_AVERAGING_FILTER) | \
1880:.\Generated_Source\PSoC5/CapSense_CSD_CSHL.c ****        *    (CapSense_CSD_POS_FILTERS_MASK & CapSense_CSD_AVERAGING_FILTER) )
1881:.\Generated_Source\PSoC5/CapSense_CSD_CSHL.c ****        */
1882:.\Generated_Source\PSoC5/CapSense_CSD_CSHL.c **** 
1883:.\Generated_Source\PSoC5/CapSense_CSD_CSHL.c **** 
1884:.\Generated_Source\PSoC5/CapSense_CSD_CSHL.c **** #if ( (CapSense_CSD_RAW_FILTER_MASK & CapSense_CSD_IIR2_FILTER) | \
1885:.\Generated_Source\PSoC5/CapSense_CSD_CSHL.c ****       (CapSense_CSD_POS_FILTERS_MASK & CapSense_CSD_IIR2_FILTER) )
1886:.\Generated_Source\PSoC5/CapSense_CSD_CSHL.c ****     /*******************************************************************************
1887:.\Generated_Source\PSoC5/CapSense_CSD_CSHL.c ****     * Function Name: CapSense_CSD_IIR2Filter
1888:.\Generated_Source\PSoC5/CapSense_CSD_CSHL.c ****     ********************************************************************************
1889:.\Generated_Source\PSoC5/CapSense_CSD_CSHL.c ****     *
1890:.\Generated_Source\PSoC5/CapSense_CSD_CSHL.c ****     * Summary:
1891:.\Generated_Source\PSoC5/CapSense_CSD_CSHL.c ****     *  IIR1/2 filter function. IIR1/2 = 1/2current + 1/2previous.
1892:.\Generated_Source\PSoC5/CapSense_CSD_CSHL.c ****     *
ARM GAS  C:\Users\mark6\AppData\Local\Temp\ccRowwUe.s 			page 54


1893:.\Generated_Source\PSoC5/CapSense_CSD_CSHL.c ****     * Parameters:
1894:.\Generated_Source\PSoC5/CapSense_CSD_CSHL.c ****     *  x1:  Current value.
1895:.\Generated_Source\PSoC5/CapSense_CSD_CSHL.c ****     *  x2:  Previous value.
1896:.\Generated_Source\PSoC5/CapSense_CSD_CSHL.c ****     *
1897:.\Generated_Source\PSoC5/CapSense_CSD_CSHL.c ****     * Return:
1898:.\Generated_Source\PSoC5/CapSense_CSD_CSHL.c ****     *  Returns filtered value.
1899:.\Generated_Source\PSoC5/CapSense_CSD_CSHL.c ****     *
1900:.\Generated_Source\PSoC5/CapSense_CSD_CSHL.c ****     *******************************************************************************/
1901:.\Generated_Source\PSoC5/CapSense_CSD_CSHL.c ****     uint16 CapSense_CSD_IIR2Filter(uint16 x1, uint16 x2)
1902:.\Generated_Source\PSoC5/CapSense_CSD_CSHL.c ****                                        
1903:.\Generated_Source\PSoC5/CapSense_CSD_CSHL.c ****     {
1904:.\Generated_Source\PSoC5/CapSense_CSD_CSHL.c ****         uint32 tmp;
1905:.\Generated_Source\PSoC5/CapSense_CSD_CSHL.c ****         
1906:.\Generated_Source\PSoC5/CapSense_CSD_CSHL.c ****         /* IIR = 1/2 Current Value+ 1/2 Previous Value */
1907:.\Generated_Source\PSoC5/CapSense_CSD_CSHL.c ****         tmp = (uint32)x1 + (uint32)x2;
1908:.\Generated_Source\PSoC5/CapSense_CSD_CSHL.c ****         tmp >>= 1u;
1909:.\Generated_Source\PSoC5/CapSense_CSD_CSHL.c ****     
1910:.\Generated_Source\PSoC5/CapSense_CSD_CSHL.c ****         return ((uint16) tmp);
1911:.\Generated_Source\PSoC5/CapSense_CSD_CSHL.c ****     }
1912:.\Generated_Source\PSoC5/CapSense_CSD_CSHL.c **** #endif /* ( (CapSense_CSD_RAW_FILTER_MASK & CapSense_CSD_IIR2_FILTER) | \
1913:.\Generated_Source\PSoC5/CapSense_CSD_CSHL.c ****        *    (CapSense_CSD_POS_FILTERS_MASK & CapSense_CSD_IIR2_FILTER) )
1914:.\Generated_Source\PSoC5/CapSense_CSD_CSHL.c ****        */
1915:.\Generated_Source\PSoC5/CapSense_CSD_CSHL.c **** 
1916:.\Generated_Source\PSoC5/CapSense_CSD_CSHL.c **** 
1917:.\Generated_Source\PSoC5/CapSense_CSD_CSHL.c **** #if ( (CapSense_CSD_RAW_FILTER_MASK & CapSense_CSD_IIR4_FILTER) | \
1918:.\Generated_Source\PSoC5/CapSense_CSD_CSHL.c ****       (CapSense_CSD_POS_FILTERS_MASK & CapSense_CSD_IIR4_FILTER) )
1919:.\Generated_Source\PSoC5/CapSense_CSD_CSHL.c ****     /*******************************************************************************
1920:.\Generated_Source\PSoC5/CapSense_CSD_CSHL.c ****     * Function Name: CapSense_CSD_IIR4Filter
1921:.\Generated_Source\PSoC5/CapSense_CSD_CSHL.c ****     ********************************************************************************
1922:.\Generated_Source\PSoC5/CapSense_CSD_CSHL.c ****     *
1923:.\Generated_Source\PSoC5/CapSense_CSD_CSHL.c ****     * Summary:
1924:.\Generated_Source\PSoC5/CapSense_CSD_CSHL.c ****     *  IIR1/4 filter function. IIR1/4 = 1/4current + 3/4previous.
1925:.\Generated_Source\PSoC5/CapSense_CSD_CSHL.c ****     *
1926:.\Generated_Source\PSoC5/CapSense_CSD_CSHL.c ****     * Parameters:
1927:.\Generated_Source\PSoC5/CapSense_CSD_CSHL.c ****     *  x1:  Current value.
1928:.\Generated_Source\PSoC5/CapSense_CSD_CSHL.c ****     *  x2:  Previous value.
1929:.\Generated_Source\PSoC5/CapSense_CSD_CSHL.c ****     *
1930:.\Generated_Source\PSoC5/CapSense_CSD_CSHL.c ****     * Return:
1931:.\Generated_Source\PSoC5/CapSense_CSD_CSHL.c ****     *  Returns filtered value.
1932:.\Generated_Source\PSoC5/CapSense_CSD_CSHL.c ****     *
1933:.\Generated_Source\PSoC5/CapSense_CSD_CSHL.c ****     *******************************************************************************/
1934:.\Generated_Source\PSoC5/CapSense_CSD_CSHL.c ****     uint16 CapSense_CSD_IIR4Filter(uint16 x1, uint16 x2)
1935:.\Generated_Source\PSoC5/CapSense_CSD_CSHL.c ****                                        
1936:.\Generated_Source\PSoC5/CapSense_CSD_CSHL.c ****     {
 1118              		.loc 1 1936 0
 1119              		.cfi_startproc
 1120              		@ args = 0, pretend = 0, frame = 16
 1121              		@ frame_needed = 1, uses_anonymous_args = 0
 1122              		@ link register save eliminated.
 1123 0000 80B4     		push	{r7}
 1124              		.cfi_def_cfa_offset 4
 1125              		.cfi_offset 7, -4
 1126 0002 85B0     		sub	sp, sp, #20
 1127              		.cfi_def_cfa_offset 24
 1128 0004 00AF     		add	r7, sp, #0
 1129              		.cfi_def_cfa_register 7
 1130 0006 0346     		mov	r3, r0
ARM GAS  C:\Users\mark6\AppData\Local\Temp\ccRowwUe.s 			page 55


 1131 0008 0A46     		mov	r2, r1
 1132 000a FB80     		strh	r3, [r7, #6]	@ movhi
 1133 000c 1346     		mov	r3, r2	@ movhi
 1134 000e BB80     		strh	r3, [r7, #4]	@ movhi
1937:.\Generated_Source\PSoC5/CapSense_CSD_CSHL.c ****         uint32 tmp;
1938:.\Generated_Source\PSoC5/CapSense_CSD_CSHL.c ****         
1939:.\Generated_Source\PSoC5/CapSense_CSD_CSHL.c ****         /* IIR = 1/4 Current Value + 3/4 Previous Value */
1940:.\Generated_Source\PSoC5/CapSense_CSD_CSHL.c ****         tmp = (uint32)x1 + (uint32)x2;
 1135              		.loc 1 1940 0
 1136 0010 FA88     		ldrh	r2, [r7, #6]
 1137 0012 BB88     		ldrh	r3, [r7, #4]
 1138 0014 1344     		add	r3, r3, r2
 1139 0016 FB60     		str	r3, [r7, #12]
1941:.\Generated_Source\PSoC5/CapSense_CSD_CSHL.c ****         tmp += ((uint32)x2 << 1u);
 1140              		.loc 1 1941 0
 1141 0018 BB88     		ldrh	r3, [r7, #4]
 1142 001a 5B00     		lsls	r3, r3, #1
 1143 001c FA68     		ldr	r2, [r7, #12]
 1144 001e 1344     		add	r3, r3, r2
 1145 0020 FB60     		str	r3, [r7, #12]
1942:.\Generated_Source\PSoC5/CapSense_CSD_CSHL.c ****         tmp >>= 2u;
 1146              		.loc 1 1942 0
 1147 0022 FB68     		ldr	r3, [r7, #12]
 1148 0024 9B08     		lsrs	r3, r3, #2
 1149 0026 FB60     		str	r3, [r7, #12]
1943:.\Generated_Source\PSoC5/CapSense_CSD_CSHL.c ****         
1944:.\Generated_Source\PSoC5/CapSense_CSD_CSHL.c ****         return ((uint16) tmp);
 1150              		.loc 1 1944 0
 1151 0028 FB68     		ldr	r3, [r7, #12]
 1152 002a 9BB2     		uxth	r3, r3
1945:.\Generated_Source\PSoC5/CapSense_CSD_CSHL.c ****     }
 1153              		.loc 1 1945 0
 1154 002c 1846     		mov	r0, r3
 1155 002e 1437     		adds	r7, r7, #20
 1156              		.cfi_def_cfa_offset 4
 1157 0030 BD46     		mov	sp, r7
 1158              		.cfi_def_cfa_register 13
 1159              		@ sp needed
 1160 0032 5DF8047B 		ldr	r7, [sp], #4
 1161              		.cfi_restore 7
 1162              		.cfi_def_cfa_offset 0
 1163 0036 7047     		bx	lr
 1164              		.cfi_endproc
 1165              	.LFE11:
 1166              		.size	CapSense_CSD_IIR4Filter, .-CapSense_CSD_IIR4Filter
 1167              		.text
 1168              	.Letext0:
 1169              		.file 2 ".\\Generated_Source\\PSoC5\\cytypes.h"
 1170              		.file 3 ".\\Generated_Source\\PSoC5\\CapSense_CSD.h"
 1171              		.file 4 ".\\Generated_Source\\PSoC5\\CapSense_CSD_CSHL.h"