ARM GAS  C:\Users\mark6\AppData\Local\Temp\ccKjS7ii.s 			page 1


   1              		.syntax unified
   2              		.cpu cortex-m3
   3              		.fpu softvfp
   4              		.eabi_attribute 20, 1
   5              		.eabi_attribute 21, 1
   6              		.eabi_attribute 23, 3
   7              		.eabi_attribute 24, 1
   8              		.eabi_attribute 25, 1
   9              		.eabi_attribute 26, 1
  10              		.eabi_attribute 30, 6
  11              		.eabi_attribute 34, 1
  12              		.eabi_attribute 18, 4
  13              		.thumb
  14              		.file	"GUI_X.c"
  15              		.text
  16              	.Ltext0:
  17              		.cfi_sections	.debug_frame
  18              		.comm	OS_TimeMS,4,4
  19              		.section	.text.GUI_X_GetTime,"ax",%progbits
  20              		.align	2
  21              		.global	GUI_X_GetTime
  22              		.thumb
  23              		.thumb_func
  24              		.type	GUI_X_GetTime, %function
  25              	GUI_X_GetTime:
  26              	.LFB63:
  27              		.file 1 ".\\GUI_X.c"
   1:.\GUI_X.c     **** /*********************************************************************
   2:.\GUI_X.c     **** *                SEGGER Microcontroller GmbH & Co. KG                *
   3:.\GUI_X.c     **** *        Solutions for real time microcontroller applications        *
   4:.\GUI_X.c     **** **********************************************************************
   5:.\GUI_X.c     **** *                                                                    *
   6:.\GUI_X.c     **** *        (c) 1996 - 2017  SEGGER Microcontroller GmbH & Co. KG       *
   7:.\GUI_X.c     **** *                                                                    *
   8:.\GUI_X.c     **** *        Internet: www.segger.com    Support:  support@segger.com    *
   9:.\GUI_X.c     **** *                                                                    *
  10:.\GUI_X.c     **** **********************************************************************
  11:.\GUI_X.c     **** 
  12:.\GUI_X.c     **** ** emWin V5.46 - Graphical user interface for embedded applications **
  13:.\GUI_X.c     **** All  Intellectual Property rights  in the Software belongs to  SEGGER.
  14:.\GUI_X.c     **** emWin is protected by  international copyright laws.  Knowledge of the
  15:.\GUI_X.c     **** source code may not be used to write a similar product.  This file may
  16:.\GUI_X.c     **** only be used in accordance with the following terms:
  17:.\GUI_X.c     **** 
  18:.\GUI_X.c     **** The software  has been licensed to  Cypress Semiconductor Corporation,
  19:.\GUI_X.c     **** whose registered  office is situated  at 198 Champion Ct. San Jose, CA 
  20:.\GUI_X.c     **** 95134 USA  solely for the  purposes of creating  libraries for Cypress
  21:.\GUI_X.c     **** PSoC3 and  PSoC5 processor-based devices,  sublicensed and distributed
  22:.\GUI_X.c     **** under  the  terms  and  conditions  of  the  Cypress  End User License
  23:.\GUI_X.c     **** Agreement.
  24:.\GUI_X.c     **** Full source code is available at: www.segger.com
  25:.\GUI_X.c     **** 
  26:.\GUI_X.c     **** We appreciate your understanding and fairness.
  27:.\GUI_X.c     **** ----------------------------------------------------------------------
  28:.\GUI_X.c     **** Licensing information
  29:.\GUI_X.c     **** Licensor:                 SEGGER Microcontroller Systems LLC
  30:.\GUI_X.c     **** Licensed to:              Cypress Semiconductor Corp, 198 Champion Ct., San Jose, CA 95134, USA
ARM GAS  C:\Users\mark6\AppData\Local\Temp\ccKjS7ii.s 			page 2


  31:.\GUI_X.c     **** Licensed SEGGER software: emWin
  32:.\GUI_X.c     **** License number:           GUI-00319
  33:.\GUI_X.c     **** License model:            Services and License Agreement, signed June 10th, 2009
  34:.\GUI_X.c     **** Licensed platform:        Any Cypress platform (Initial targets are: PSoC3, PSoC5)
  35:.\GUI_X.c     **** ----------------------------------------------------------------------
  36:.\GUI_X.c     **** Support and Update Agreement (SUA)
  37:.\GUI_X.c     **** SUA period:               2009-06-12 - 2022-07-27
  38:.\GUI_X.c     **** Contact to extend SUA:    sales@segger.com
  39:.\GUI_X.c     **** ----------------------------------------------------------------------
  40:.\GUI_X.c     **** File        : GUI_X.C
  41:.\GUI_X.c     **** Purpose     : Config / System dependent externals for GUI
  42:.\GUI_X.c     **** ---------------------------END-OF-HEADER------------------------------
  43:.\GUI_X.c     **** */
  44:.\GUI_X.c     **** 
  45:.\GUI_X.c     **** #include "GUI.h"
  46:.\GUI_X.c     **** 
  47:.\GUI_X.c     **** #include "project.h"
  48:.\GUI_X.c     **** 
  49:.\GUI_X.c     **** /*********************************************************************
  50:.\GUI_X.c     **** *
  51:.\GUI_X.c     **** *       Function Prototypes
  52:.\GUI_X.c     **** */
  53:.\GUI_X.c     **** void GUI_X_Systick_Init(void);
  54:.\GUI_X.c     **** 
  55:.\GUI_X.c     **** /*********************************************************************
  56:.\GUI_X.c     **** *
  57:.\GUI_X.c     **** *       Global data
  58:.\GUI_X.c     **** */
  59:.\GUI_X.c     **** volatile GUI_TIMER_TIME OS_TimeMS;
  60:.\GUI_X.c     **** 
  61:.\GUI_X.c     **** /*********************************************************************
  62:.\GUI_X.c     **** *
  63:.\GUI_X.c     **** *      Timing:
  64:.\GUI_X.c     **** *                 GUI_X_GetTime()
  65:.\GUI_X.c     **** *                 GUI_X_Delay(int)
  66:.\GUI_X.c     **** *
  67:.\GUI_X.c     **** *   Some timing dependent routines require a GetTime
  68:.\GUI_X.c     **** *   and delay function. Default time unit (tick), normally is
  69:.\GUI_X.c     **** *   1 ms.
  70:.\GUI_X.c     **** */
  71:.\GUI_X.c     **** 
  72:.\GUI_X.c     **** GUI_TIMER_TIME GUI_X_GetTime(void) { 
  28              		.loc 1 72 0
  29              		.cfi_startproc
  30              		@ args = 0, pretend = 0, frame = 0
  31              		@ frame_needed = 1, uses_anonymous_args = 0
  32              		@ link register save eliminated.
  33 0000 80B4     		push	{r7}
  34              		.cfi_def_cfa_offset 4
  35              		.cfi_offset 7, -4
  36 0002 00AF     		add	r7, sp, #0
  37              		.cfi_def_cfa_register 7
  73:.\GUI_X.c     ****   return OS_TimeMS; 
  38              		.loc 1 73 0
  39 0004 034B     		ldr	r3, .L3
  40 0006 1B68     		ldr	r3, [r3]
  74:.\GUI_X.c     **** }
ARM GAS  C:\Users\mark6\AppData\Local\Temp\ccKjS7ii.s 			page 3


  41              		.loc 1 74 0
  42 0008 1846     		mov	r0, r3
  43 000a BD46     		mov	sp, r7
  44              		.cfi_def_cfa_register 13
  45              		@ sp needed
  46 000c 5DF8047B 		ldr	r7, [sp], #4
  47              		.cfi_restore 7
  48              		.cfi_def_cfa_offset 0
  49 0010 7047     		bx	lr
  50              	.L4:
  51 0012 00BF     		.align	2
  52              	.L3:
  53 0014 00000000 		.word	OS_TimeMS
  54              		.cfi_endproc
  55              	.LFE63:
  56              		.size	GUI_X_GetTime, .-GUI_X_GetTime
  57              		.section	.text.GUI_X_Delay,"ax",%progbits
  58              		.align	2
  59              		.global	GUI_X_Delay
  60              		.thumb
  61              		.thumb_func
  62              		.type	GUI_X_Delay, %function
  63              	GUI_X_Delay:
  64              	.LFB64:
  75:.\GUI_X.c     **** 
  76:.\GUI_X.c     **** void GUI_X_Delay(int ms) { 
  65              		.loc 1 76 0
  66              		.cfi_startproc
  67              		@ args = 0, pretend = 0, frame = 16
  68              		@ frame_needed = 1, uses_anonymous_args = 0
  69              		@ link register save eliminated.
  70 0000 80B4     		push	{r7}
  71              		.cfi_def_cfa_offset 4
  72              		.cfi_offset 7, -4
  73 0002 85B0     		sub	sp, sp, #20
  74              		.cfi_def_cfa_offset 24
  75 0004 00AF     		add	r7, sp, #0
  76              		.cfi_def_cfa_register 7
  77 0006 7860     		str	r0, [r7, #4]
  77:.\GUI_X.c     ****   int tEnd = OS_TimeMS + ms;
  78              		.loc 1 77 0
  79 0008 084B     		ldr	r3, .L7
  80 000a 1A68     		ldr	r2, [r3]
  81 000c 7B68     		ldr	r3, [r7, #4]
  82 000e 1344     		add	r3, r3, r2
  83 0010 FB60     		str	r3, [r7, #12]
  78:.\GUI_X.c     ****   while ((tEnd - OS_TimeMS) > 0);
  84              		.loc 1 78 0
  85 0012 00BF     		nop
  86              	.L6:
  87              		.loc 1 78 0 is_stmt 0 discriminator 1
  88 0014 054B     		ldr	r3, .L7
  89 0016 1B68     		ldr	r3, [r3]
  90 0018 FA68     		ldr	r2, [r7, #12]
  91 001a D31A     		subs	r3, r2, r3
  92 001c 002B     		cmp	r3, #0
  93 001e F9DC     		bgt	.L6
ARM GAS  C:\Users\mark6\AppData\Local\Temp\ccKjS7ii.s 			page 4


  79:.\GUI_X.c     **** }
  94              		.loc 1 79 0 is_stmt 1
  95 0020 1437     		adds	r7, r7, #20
  96              		.cfi_def_cfa_offset 4
  97 0022 BD46     		mov	sp, r7
  98              		.cfi_def_cfa_register 13
  99              		@ sp needed
 100 0024 5DF8047B 		ldr	r7, [sp], #4
 101              		.cfi_restore 7
 102              		.cfi_def_cfa_offset 0
 103 0028 7047     		bx	lr
 104              	.L8:
 105 002a 00BF     		.align	2
 106              	.L7:
 107 002c 00000000 		.word	OS_TimeMS
 108              		.cfi_endproc
 109              	.LFE64:
 110              		.size	GUI_X_Delay, .-GUI_X_Delay
 111              		.section	.text.GUI_X_Init,"ax",%progbits
 112              		.align	2
 113              		.global	GUI_X_Init
 114              		.thumb
 115              		.thumb_func
 116              		.type	GUI_X_Init, %function
 117              	GUI_X_Init:
 118              	.LFB65:
  80:.\GUI_X.c     **** 
  81:.\GUI_X.c     **** /*********************************************************************
  82:.\GUI_X.c     **** *
  83:.\GUI_X.c     **** *       GUI_X_Init()
  84:.\GUI_X.c     **** *
  85:.\GUI_X.c     **** * Note:
  86:.\GUI_X.c     **** *     GUI_X_Init() is called from GUI_Init is a possibility to init
  87:.\GUI_X.c     **** *     some hardware which needs to be up and running before the GUI.
  88:.\GUI_X.c     **** */
  89:.\GUI_X.c     **** void GUI_X_Init(void) {
 119              		.loc 1 89 0
 120              		.cfi_startproc
 121              		@ args = 0, pretend = 0, frame = 0
 122              		@ frame_needed = 1, uses_anonymous_args = 0
 123 0000 80B5     		push	{r7, lr}
 124              		.cfi_def_cfa_offset 8
 125              		.cfi_offset 7, -8
 126              		.cfi_offset 14, -4
 127 0002 00AF     		add	r7, sp, #0
 128              		.cfi_def_cfa_register 7
  90:.\GUI_X.c     ****   GUI_X_Systick_Init();
 129              		.loc 1 90 0
 130 0004 FFF7FEFF 		bl	GUI_X_Systick_Init
  91:.\GUI_X.c     **** }
 131              		.loc 1 91 0
 132 0008 80BD     		pop	{r7, pc}
 133              		.cfi_endproc
 134              	.LFE65:
 135              		.size	GUI_X_Init, .-GUI_X_Init
 136 000a 00BF     		.section	.text.GUI_X_ExecIdle,"ax",%progbits
 137              		.align	2
ARM GAS  C:\Users\mark6\AppData\Local\Temp\ccKjS7ii.s 			page 5


 138              		.global	GUI_X_ExecIdle
 139              		.thumb
 140              		.thumb_func
 141              		.type	GUI_X_ExecIdle, %function
 142              	GUI_X_ExecIdle:
 143              	.LFB66:
  92:.\GUI_X.c     **** 
  93:.\GUI_X.c     **** 
  94:.\GUI_X.c     **** /*********************************************************************
  95:.\GUI_X.c     **** *
  96:.\GUI_X.c     **** *       GUI_X_ExecIdle
  97:.\GUI_X.c     **** *
  98:.\GUI_X.c     **** * Note:
  99:.\GUI_X.c     **** *  Called if WM is in idle state
 100:.\GUI_X.c     **** */
 101:.\GUI_X.c     **** void GUI_X_ExecIdle(void) {}
 144              		.loc 1 101 0
 145              		.cfi_startproc
 146              		@ args = 0, pretend = 0, frame = 0
 147              		@ frame_needed = 1, uses_anonymous_args = 0
 148              		@ link register save eliminated.
 149 0000 80B4     		push	{r7}
 150              		.cfi_def_cfa_offset 4
 151              		.cfi_offset 7, -4
 152 0002 00AF     		add	r7, sp, #0
 153              		.cfi_def_cfa_register 7
 154              		.loc 1 101 0
 155 0004 BD46     		mov	sp, r7
 156              		.cfi_def_cfa_register 13
 157              		@ sp needed
 158 0006 5DF8047B 		ldr	r7, [sp], #4
 159              		.cfi_restore 7
 160              		.cfi_def_cfa_offset 0
 161 000a 7047     		bx	lr
 162              		.cfi_endproc
 163              	.LFE66:
 164              		.size	GUI_X_ExecIdle, .-GUI_X_ExecIdle
 165              		.section	.text.GUI_X_Log,"ax",%progbits
 166              		.align	2
 167              		.global	GUI_X_Log
 168              		.thumb
 169              		.thumb_func
 170              		.type	GUI_X_Log, %function
 171              	GUI_X_Log:
 172              	.LFB67:
 102:.\GUI_X.c     **** 
 103:.\GUI_X.c     **** /*********************************************************************
 104:.\GUI_X.c     **** *
 105:.\GUI_X.c     **** *      Logging: OS dependent
 106:.\GUI_X.c     **** 
 107:.\GUI_X.c     **** Note:
 108:.\GUI_X.c     ****   Logging is used in higher debug levels only. The typical target
 109:.\GUI_X.c     ****   build does not use logging and does therefor not require any of
 110:.\GUI_X.c     ****   the logging routines below. For a release build without logging
 111:.\GUI_X.c     ****   the routines below may be eliminated to save some space.
 112:.\GUI_X.c     ****   (If the linker is not function aware and eliminates unreferenced
 113:.\GUI_X.c     ****   functions automatically)
ARM GAS  C:\Users\mark6\AppData\Local\Temp\ccKjS7ii.s 			page 6


 114:.\GUI_X.c     **** 
 115:.\GUI_X.c     **** */
 116:.\GUI_X.c     **** 
 117:.\GUI_X.c     **** void GUI_X_Log     (const char *s) { GUI_USE_PARA(s); }
 173              		.loc 1 117 0
 174              		.cfi_startproc
 175              		@ args = 0, pretend = 0, frame = 8
 176              		@ frame_needed = 1, uses_anonymous_args = 0
 177              		@ link register save eliminated.
 178 0000 80B4     		push	{r7}
 179              		.cfi_def_cfa_offset 4
 180              		.cfi_offset 7, -4
 181 0002 83B0     		sub	sp, sp, #12
 182              		.cfi_def_cfa_offset 16
 183 0004 00AF     		add	r7, sp, #0
 184              		.cfi_def_cfa_register 7
 185 0006 7860     		str	r0, [r7, #4]
 186              		.loc 1 117 0
 187 0008 0C37     		adds	r7, r7, #12
 188              		.cfi_def_cfa_offset 4
 189 000a BD46     		mov	sp, r7
 190              		.cfi_def_cfa_register 13
 191              		@ sp needed
 192 000c 5DF8047B 		ldr	r7, [sp], #4
 193              		.cfi_restore 7
 194              		.cfi_def_cfa_offset 0
 195 0010 7047     		bx	lr
 196              		.cfi_endproc
 197              	.LFE67:
 198              		.size	GUI_X_Log, .-GUI_X_Log
 199 0012 00BF     		.section	.text.GUI_X_Warn,"ax",%progbits
 200              		.align	2
 201              		.global	GUI_X_Warn
 202              		.thumb
 203              		.thumb_func
 204              		.type	GUI_X_Warn, %function
 205              	GUI_X_Warn:
 206              	.LFB68:
 118:.\GUI_X.c     **** void GUI_X_Warn    (const char *s) { GUI_USE_PARA(s); }
 207              		.loc 1 118 0
 208              		.cfi_startproc
 209              		@ args = 0, pretend = 0, frame = 8
 210              		@ frame_needed = 1, uses_anonymous_args = 0
 211              		@ link register save eliminated.
 212 0000 80B4     		push	{r7}
 213              		.cfi_def_cfa_offset 4
 214              		.cfi_offset 7, -4
 215 0002 83B0     		sub	sp, sp, #12
 216              		.cfi_def_cfa_offset 16
 217 0004 00AF     		add	r7, sp, #0
 218              		.cfi_def_cfa_register 7
 219 0006 7860     		str	r0, [r7, #4]
 220              		.loc 1 118 0
 221 0008 0C37     		adds	r7, r7, #12
 222              		.cfi_def_cfa_offset 4
 223 000a BD46     		mov	sp, r7
 224              		.cfi_def_cfa_register 13
ARM GAS  C:\Users\mark6\AppData\Local\Temp\ccKjS7ii.s 			page 7


 225              		@ sp needed
 226 000c 5DF8047B 		ldr	r7, [sp], #4
 227              		.cfi_restore 7
 228              		.cfi_def_cfa_offset 0
 229 0010 7047     		bx	lr
 230              		.cfi_endproc
 231              	.LFE68:
 232              		.size	GUI_X_Warn, .-GUI_X_Warn
 233 0012 00BF     		.section	.text.GUI_X_ErrorOut,"ax",%progbits
 234              		.align	2
 235              		.global	GUI_X_ErrorOut
 236              		.thumb
 237              		.thumb_func
 238              		.type	GUI_X_ErrorOut, %function
 239              	GUI_X_ErrorOut:
 240              	.LFB69:
 119:.\GUI_X.c     **** void GUI_X_ErrorOut(const char *s) { GUI_USE_PARA(s); }
 241              		.loc 1 119 0
 242              		.cfi_startproc
 243              		@ args = 0, pretend = 0, frame = 8
 244              		@ frame_needed = 1, uses_anonymous_args = 0
 245              		@ link register save eliminated.
 246 0000 80B4     		push	{r7}
 247              		.cfi_def_cfa_offset 4
 248              		.cfi_offset 7, -4
 249 0002 83B0     		sub	sp, sp, #12
 250              		.cfi_def_cfa_offset 16
 251 0004 00AF     		add	r7, sp, #0
 252              		.cfi_def_cfa_register 7
 253 0006 7860     		str	r0, [r7, #4]
 254              		.loc 1 119 0
 255 0008 0C37     		adds	r7, r7, #12
 256              		.cfi_def_cfa_offset 4
 257 000a BD46     		mov	sp, r7
 258              		.cfi_def_cfa_register 13
 259              		@ sp needed
 260 000c 5DF8047B 		ldr	r7, [sp], #4
 261              		.cfi_restore 7
 262              		.cfi_def_cfa_offset 0
 263 0010 7047     		bx	lr
 264              		.cfi_endproc
 265              	.LFE69:
 266              		.size	GUI_X_ErrorOut, .-GUI_X_ErrorOut
 267 0012 00BF     		.section	.text.GUI_X_Systick_Intr,"ax",%progbits
 268              		.align	2
 269              		.global	GUI_X_Systick_Intr
 270              		.thumb
 271              		.thumb_func
 272              		.type	GUI_X_Systick_Intr, %function
 273              	GUI_X_Systick_Intr:
 274              	.LFB70:
 120:.\GUI_X.c     **** 
 121:.\GUI_X.c     **** /*********************************************************************
 122:.\GUI_X.c     **** *
 123:.\GUI_X.c     **** *         Setup Systick for timing
 124:.\GUI_X.c     **** *
 125:.\GUI_X.c     **** */
ARM GAS  C:\Users\mark6\AppData\Local\Temp\ccKjS7ii.s 			page 8


 126:.\GUI_X.c     **** /*********************************************************************
 127:.\GUI_X.c     **** *
 128:.\GUI_X.c     **** *       GUI_X_Systick_Intr
 129:.\GUI_X.c     **** *
 130:.\GUI_X.c     **** * Purpose:
 131:.\GUI_X.c     **** *   Interrupt Service Routine for Systick.
 132:.\GUI_X.c     **** */
 133:.\GUI_X.c     **** void GUI_X_Systick_Intr(void){    
 275              		.loc 1 133 0
 276              		.cfi_startproc
 277              		@ args = 0, pretend = 0, frame = 0
 278              		@ frame_needed = 1, uses_anonymous_args = 0
 279              		@ link register save eliminated.
 280 0000 80B4     		push	{r7}
 281              		.cfi_def_cfa_offset 4
 282              		.cfi_offset 7, -4
 283 0002 00AF     		add	r7, sp, #0
 284              		.cfi_def_cfa_register 7
 134:.\GUI_X.c     ****   OS_TimeMS++;
 285              		.loc 1 134 0
 286 0004 044B     		ldr	r3, .L15
 287 0006 1B68     		ldr	r3, [r3]
 288 0008 0133     		adds	r3, r3, #1
 289 000a 034A     		ldr	r2, .L15
 290 000c 1360     		str	r3, [r2]
 135:.\GUI_X.c     **** }
 291              		.loc 1 135 0
 292 000e BD46     		mov	sp, r7
 293              		.cfi_def_cfa_register 13
 294              		@ sp needed
 295 0010 5DF8047B 		ldr	r7, [sp], #4
 296              		.cfi_restore 7
 297              		.cfi_def_cfa_offset 0
 298 0014 7047     		bx	lr
 299              	.L16:
 300 0016 00BF     		.align	2
 301              	.L15:
 302 0018 00000000 		.word	OS_TimeMS
 303              		.cfi_endproc
 304              	.LFE70:
 305              		.size	GUI_X_Systick_Intr, .-GUI_X_Systick_Intr
 306              		.section	.text.GUI_X_Systick_Init,"ax",%progbits
 307              		.align	2
 308              		.global	GUI_X_Systick_Init
 309              		.thumb
 310              		.thumb_func
 311              		.type	GUI_X_Systick_Init, %function
 312              	GUI_X_Systick_Init:
 313              	.LFB71:
 136:.\GUI_X.c     **** 
 137:.\GUI_X.c     **** /*********************************************************************
 138:.\GUI_X.c     **** *
 139:.\GUI_X.c     **** *       GUI_X_Systick_Init()
 140:.\GUI_X.c     **** *
 141:.\GUI_X.c     **** * Purpose:
 142:.\GUI_X.c     **** *   Sets up the Systick interrupt and enable it.
 143:.\GUI_X.c     **** */
ARM GAS  C:\Users\mark6\AppData\Local\Temp\ccKjS7ii.s 			page 9


 144:.\GUI_X.c     **** void GUI_X_Systick_Init(void){  
 314              		.loc 1 144 0
 315              		.cfi_startproc
 316              		@ args = 0, pretend = 0, frame = 8
 317              		@ frame_needed = 1, uses_anonymous_args = 0
 318 0000 80B5     		push	{r7, lr}
 319              		.cfi_def_cfa_offset 8
 320              		.cfi_offset 7, -8
 321              		.cfi_offset 14, -4
 322 0002 82B0     		sub	sp, sp, #8
 323              		.cfi_def_cfa_offset 16
 324 0004 00AF     		add	r7, sp, #0
 325              		.cfi_def_cfa_register 7
 145:.\GUI_X.c     ****   uint32_t i; 
 146:.\GUI_X.c     ****   CySysTickStart();
 326              		.loc 1 146 0
 327 0006 FFF7FEFF 		bl	CySysTickStart
 147:.\GUI_X.c     ****   //
 148:.\GUI_X.c     ****   // Find unused callback slot.
 149:.\GUI_X.c     ****   //
 150:.\GUI_X.c     ****     for (i = 0u; i < CY_SYS_SYST_NUM_OF_CALLBACKS; i++)
 328              		.loc 1 150 0
 329 000a 0023     		movs	r3, #0
 330 000c 7B60     		str	r3, [r7, #4]
 331 000e 0DE0     		b	.L18
 332              	.L21:
 151:.\GUI_X.c     ****     {
 152:.\GUI_X.c     ****         if (CySysTickGetCallback(i) == NULL)
 333              		.loc 1 152 0
 334 0010 7868     		ldr	r0, [r7, #4]
 335 0012 FFF7FEFF 		bl	CySysTickGetCallback
 336 0016 0346     		mov	r3, r0
 337 0018 002B     		cmp	r3, #0
 338 001a 04D1     		bne	.L19
 153:.\GUI_X.c     ****         {
 154:.\GUI_X.c     ****             CySysTickSetCallback(i, GUI_X_Systick_Intr);
 339              		.loc 1 154 0
 340 001c 7868     		ldr	r0, [r7, #4]
 341 001e 0949     		ldr	r1, .L23
 342 0020 FFF7FEFF 		bl	CySysTickSetCallback
 155:.\GUI_X.c     ****             break;
 343              		.loc 1 155 0
 344 0024 05E0     		b	.L20
 345              	.L19:
 150:.\GUI_X.c     ****     {
 346              		.loc 1 150 0 discriminator 2
 347 0026 7B68     		ldr	r3, [r7, #4]
 348 0028 0133     		adds	r3, r3, #1
 349 002a 7B60     		str	r3, [r7, #4]
 350              	.L18:
 150:.\GUI_X.c     ****     {
 351              		.loc 1 150 0 is_stmt 0 discriminator 1
 352 002c 7B68     		ldr	r3, [r7, #4]
 353 002e 042B     		cmp	r3, #4
 354 0030 EED9     		bls	.L21
 355              	.L20:
 156:.\GUI_X.c     ****         }
ARM GAS  C:\Users\mark6\AppData\Local\Temp\ccKjS7ii.s 			page 10


 157:.\GUI_X.c     ****     }
 158:.\GUI_X.c     ****     
 159:.\GUI_X.c     ****     CYASSERT(i < CY_SYS_SYST_NUM_OF_CALLBACKS);
 356              		.loc 1 159 0 is_stmt 1
 357 0032 7B68     		ldr	r3, [r7, #4]
 358 0034 042B     		cmp	r3, #4
 359 0036 02D9     		bls	.L17
 360              		.loc 1 159 0 is_stmt 0 discriminator 1
 361 0038 0020     		movs	r0, #0
 362 003a FFF7FEFF 		bl	CyHalt
 363              	.L17:
 160:.\GUI_X.c     **** }
 364              		.loc 1 160 0 is_stmt 1
 365 003e 0837     		adds	r7, r7, #8
 366              		.cfi_def_cfa_offset 8
 367 0040 BD46     		mov	sp, r7
 368              		.cfi_def_cfa_register 13
 369              		@ sp needed
 370 0042 80BD     		pop	{r7, pc}
 371              	.L24:
 372              		.align	2
 373              	.L23:
 374 0044 00000000 		.word	GUI_X_Systick_Intr
 375              		.cfi_endproc
 376              	.LFE71:
 377              		.size	GUI_X_Systick_Init, .-GUI_X_Systick_Init
 378              		.text
 379              	.Letext0:
 380              		.file 2 "c:\\program files (x86)\\cypress\\psoc creator\\3.3\\psoc creator\\import\\gnu\\arm\\4.9.
 381              		.file 3 "c:\\program files (x86)\\cypress\\psoc creator\\3.3\\psoc creator\\import\\gnu\\arm\\4.9.
 382              		.file 4 "Generated_Source\\PSoC5/cytypes.h"
 383              		.file 5 "Generated_Source\\PSoC5/core_cm3.h"