ARM GAS  C:\Users\mark6\AppData\Local\Temp\ccnKNNvg.s 			page 1


   1              		.syntax unified
   2              		.cpu cortex-m3
   3              		.fpu softvfp
   4              		.eabi_attribute 20, 1
   5              		.eabi_attribute 21, 1
   6              		.eabi_attribute 23, 3
   7              		.eabi_attribute 24, 1
   8              		.eabi_attribute 25, 1
   9              		.eabi_attribute 26, 1
  10              		.eabi_attribute 30, 6
  11              		.eabi_attribute 34, 1
  12              		.eabi_attribute 18, 4
  13              		.thumb
  14              		.file	"main.c"
  15              		.text
  16              	.Ltext0:
  17              		.cfi_sections	.debug_frame
  18              		.comm	SCREEN_X,4,4
  19              		.comm	SCREEN_Y,4,4
  20              		.comm	print,100,4
  21              		.global	x
  22              		.bss
  23              		.type	x, %object
  24              		.size	x, 1
  25              	x:
  26 0000 00       		.space	1
  27              		.global	x0
  28              		.type	x0, %object
  29              		.size	x0, 1
  30              	x0:
  31 0001 00       		.space	1
  32              		.global	x1
  33              		.type	x1, %object
  34              		.size	x1, 1
  35              	x1:
  36 0002 00       		.space	1
  37              		.global	y
  38              		.type	y, %object
  39              		.size	y, 1
  40              	y:
  41 0003 00       		.space	1
  42              		.comm	command,20,4
  43              		.global	command_index
  44              		.type	command_index, %object
  45              		.size	command_index, 1
  46              	command_index:
  47 0004 00       		.space	1
  48              		.section	.text.RX_INT,"ax",%progbits
  49              		.align	2
  50              		.global	RX_INT
  51              		.thumb
  52              		.thumb_func
  53              		.type	RX_INT, %function
  54              	RX_INT:
  55              	.LFB63:
  56              		.file 1 ".\\main.c"
   1:.\main.c      **** /* ========================================
ARM GAS  C:\Users\mark6\AppData\Local\Temp\ccnKNNvg.s 			page 2


   2:.\main.c      ****  *
   3:.\main.c      ****  * Copyright MIT 6.115, 2013
   4:.\main.c      ****  * All Rights Reserved
   5:.\main.c      ****  * UNPUBLISHED, LICENSED SOFTWARE.
   6:.\main.c      ****  *
   7:.\main.c      ****  * CONFIDENTIAL AND PROPRIETARY INFORMATION
   8:.\main.c      ****  * WHICH IS THE PROPERTY OF MIT 6.115.
   9:.\main.c      ****  *
  10:.\main.c      ****  * This file is necessary for your project to build.
  11:.\main.c      ****  * Please do not delete it.
  12:.\main.c      ****  *
  13:.\main.c      ****  * ========================================
  14:.\main.c      **** */
  15:.\main.c      **** 
  16:.\main.c      **** #include <device.h>
  17:.\main.c      **** #include <stdio.h>
  18:.\main.c      **** #include "GUI.h"
  19:.\main.c      **** #include "tft.h"
  20:.\main.c      **** 
  21:.\main.c      **** void MainTask(void);
  22:.\main.c      **** inline void counter(int* i, int max, int digits);
  23:.\main.c      **** // Screen size for TFT 35628MP from MPJA, 240x320
  24:.\main.c      **** int SCREEN_X; // 240
  25:.\main.c      **** int SCREEN_Y; // 320
  26:.\main.c      **** char print[100];
  27:.\main.c      **** 
  28:.\main.c      **** uint8 x = 0;
  29:.\main.c      **** uint8 x0 = 0;
  30:.\main.c      **** uint8 x1 = 0;
  31:.\main.c      **** uint8 y = 0;
  32:.\main.c      **** 
  33:.\main.c      **** uint8 get_x();
  34:.\main.c      **** void inc_x();
  35:.\main.c      **** void dec_x();
  36:.\main.c      **** void reset_x();
  37:.\main.c      **** void lcd_backspace();
  38:.\main.c      **** void send_backspace();
  39:.\main.c      **** 
  40:.\main.c      **** #define COMMAND_SIZE 20
  41:.\main.c      **** char command[COMMAND_SIZE];
  42:.\main.c      **** uint8 command_index = 0;
  43:.\main.c      **** 
  44:.\main.c      **** 
  45:.\main.c      **** 
  46:.\main.c      **** CY_ISR(RX_INT)
  47:.\main.c      **** {
  57              		.loc 1 47 0
  58              		.cfi_startproc
  59              		@ args = 0, pretend = 0, frame = 8
  60              		@ frame_needed = 1, uses_anonymous_args = 0
  61 0000 80B5     		push	{r7, lr}
  62              		.cfi_def_cfa_offset 8
  63              		.cfi_offset 7, -8
  64              		.cfi_offset 14, -4
  65 0002 82B0     		sub	sp, sp, #8
  66              		.cfi_def_cfa_offset 16
  67 0004 00AF     		add	r7, sp, #0
ARM GAS  C:\Users\mark6\AppData\Local\Temp\ccnKNNvg.s 			page 3


  68              		.cfi_def_cfa_register 7
  48:.\main.c      ****     x = get_x();
  69              		.loc 1 48 0
  70 0006 FFF7FEFF 		bl	get_x
  71 000a 0346     		mov	r3, r0
  72 000c 1A46     		mov	r2, r3
  73 000e 164B     		ldr	r3, .L6
  74 0010 1A70     		strb	r2, [r3]
  49:.\main.c      ****     char sent = UART_ReadRxData();
  75              		.loc 1 49 0
  76 0012 FFF7FEFF 		bl	UART_ReadRxData
  77 0016 0346     		mov	r3, r0
  78 0018 FB71     		strb	r3, [r7, #7]
  50:.\main.c      ****     if (sent == 0x08 || sent == 0x7F) {
  79              		.loc 1 50 0
  80 001a FB79     		ldrb	r3, [r7, #7]	@ zero_extendqisi2
  81 001c 082B     		cmp	r3, #8
  82 001e 02D0     		beq	.L2
  83              		.loc 1 50 0 is_stmt 0 discriminator 1
  84 0020 FB79     		ldrb	r3, [r7, #7]	@ zero_extendqisi2
  85 0022 7F2B     		cmp	r3, #127
  86 0024 02D1     		bne	.L3
  87              	.L2:
  51:.\main.c      ****         // backspace
  52:.\main.c      ****         lcd_backspace();
  88              		.loc 1 52 0 is_stmt 1
  89 0026 FFF7FEFF 		bl	lcd_backspace
  90 002a 16E0     		b	.L4
  91              	.L3:
  53:.\main.c      ****     } else if (sent == 0x0C) {
  92              		.loc 1 53 0
  93 002c FB79     		ldrb	r3, [r7, #7]	@ zero_extendqisi2
  94 002e 0C2B     		cmp	r3, #12
  95 0030 05D1     		bne	.L5
  54:.\main.c      ****         // If clearing in putty, clear the lcd
  55:.\main.c      ****         LCD_1_ClearDisplay();
  96              		.loc 1 55 0
  97 0032 0120     		movs	r0, #1
  98 0034 FFF7FEFF 		bl	LCD_1_WriteControl
  56:.\main.c      ****         reset_x();
  99              		.loc 1 56 0
 100 0038 FFF7FEFF 		bl	reset_x
 101 003c 0DE0     		b	.L4
 102              	.L5:
  57:.\main.c      ****     } 
  58:.\main.c      ****     else {
  59:.\main.c      ****         LCD_1_Position(y, x);
 103              		.loc 1 59 0
 104 003e 0B4B     		ldr	r3, .L6+4
 105 0040 1A78     		ldrb	r2, [r3]	@ zero_extendqisi2
 106 0042 094B     		ldr	r3, .L6
 107 0044 1B78     		ldrb	r3, [r3]	@ zero_extendqisi2
 108 0046 1046     		mov	r0, r2
 109 0048 1946     		mov	r1, r3
 110 004a FFF7FEFF 		bl	LCD_1_Position
  60:.\main.c      ****         LCD_1_PutChar(sent);     // RX ISR
 111              		.loc 1 60 0
ARM GAS  C:\Users\mark6\AppData\Local\Temp\ccnKNNvg.s 			page 4


 112 004e FB79     		ldrb	r3, [r7, #7]	@ zero_extendqisi2
 113 0050 1846     		mov	r0, r3
 114 0052 FFF7FEFF 		bl	LCD_1_PutChar
  61:.\main.c      ****         inc_x();
 115              		.loc 1 61 0
 116 0056 FFF7FEFF 		bl	inc_x
 117              	.L4:
  62:.\main.c      ****     } 
  63:.\main.c      ****     
  64:.\main.c      ****     
  65:.\main.c      ****     UART_WriteTxData(sent);
 118              		.loc 1 65 0
 119 005a FB79     		ldrb	r3, [r7, #7]	@ zero_extendqisi2
 120 005c 1846     		mov	r0, r3
 121 005e FFF7FEFF 		bl	UART_WriteTxData
  66:.\main.c      **** }
 122              		.loc 1 66 0
 123 0062 0837     		adds	r7, r7, #8
 124              		.cfi_def_cfa_offset 8
 125 0064 BD46     		mov	sp, r7
 126              		.cfi_def_cfa_register 13
 127              		@ sp needed
 128 0066 80BD     		pop	{r7, pc}
 129              	.L7:
 130              		.align	2
 131              	.L6:
 132 0068 00000000 		.word	x
 133 006c 00000000 		.word	y
 134              		.cfi_endproc
 135              	.LFE63:
 136              		.size	RX_INT, .-RX_INT
 137              		.section	.text.main,"ax",%progbits
 138              		.align	2
 139              		.global	main
 140              		.thumb
 141              		.thumb_func
 142              		.type	main, %function
 143              	main:
 144              	.LFB64:
  67:.\main.c      **** 
  68:.\main.c      **** void main()
  69:.\main.c      **** {	
 145              		.loc 1 69 0
 146              		.cfi_startproc
 147              		@ args = 0, pretend = 0, frame = 16
 148              		@ frame_needed = 1, uses_anonymous_args = 0
 149 0000 80B5     		push	{r7, lr}
 150              		.cfi_def_cfa_offset 8
 151              		.cfi_offset 7, -8
 152              		.cfi_offset 14, -4
 153 0002 84B0     		sub	sp, sp, #16
 154              		.cfi_def_cfa_offset 24
 155 0004 00AF     		add	r7, sp, #0
 156              		.cfi_def_cfa_register 7
  70:.\main.c      **** 
  71:.\main.c      ****     
  72:.\main.c      ****     
ARM GAS  C:\Users\mark6\AppData\Local\Temp\ccnKNNvg.s 			page 5


  73:.\main.c      **** 	LCD_1_Start();					    // initialize lcd
 157              		.loc 1 73 0
 158 0006 FFF7FEFF 		bl	LCD_1_Start
  74:.\main.c      **** 	LCD_1_ClearDisplay();
 159              		.loc 1 74 0
 160 000a 0120     		movs	r0, #1
 161 000c FFF7FEFF 		bl	LCD_1_WriteControl
  75:.\main.c      ****     
  76:.\main.c      ****     CyGlobalIntEnable;
 162              		.loc 1 76 0
 163              	@ 76 ".\main.c" 1
 164 0010 62B6     		CPSIE   i
 165              	@ 0 "" 2
  77:.\main.c      ****     rx_int_StartEx(RX_INT);             // start RX interrupt (look for CY_ISR with RX_INT address)
 166              		.loc 1 77 0
 167              		.thumb
 168 0012 1648     		ldr	r0, .L11
 169 0014 FFF7FEFF 		bl	rx_int_StartEx
  78:.\main.c      ****                                         // for code that writes received bytes to LCD_1.
  79:.\main.c      ****     
  80:.\main.c      ****     UART_Start();                       // initialize UART
 170              		.loc 1 80 0
 171 0018 FFF7FEFF 		bl	UART_Start
  81:.\main.c      ****     UART_ClearRxBuffer();
 172              		.loc 1 81 0
 173 001c FFF7FEFF 		bl	UART_ClearRxBuffer
  82:.\main.c      ****     SPIM_1_Start();                         // initialize SPIM component     
 174              		.loc 1 82 0
 175 0020 FFF7FEFF 		bl	SPIM_1_Start
  83:.\main.c      **** 
  84:.\main.c      ****     CapSense_Start();
 176              		.loc 1 84 0
 177 0024 FFF7FEFF 		bl	CapSense_Start
  85:.\main.c      ****     CapSense_InitializeAllBaselines();
 178              		.loc 1 85 0
 179 0028 FFF7FEFF 		bl	CapSense_InitializeAllBaselines
  86:.\main.c      ****     CapSense_ScanEnabledWidgets();
 180              		.loc 1 86 0
 181 002c FFF7FEFF 		bl	CapSense_ScanEnabledWidgets
  87:.\main.c      ****     uint8 button0 = 0;
 182              		.loc 1 87 0
 183 0030 0023     		movs	r3, #0
 184 0032 FB73     		strb	r3, [r7, #15]
  88:.\main.c      ****     uint8 oldbutton0 = 0;
 185              		.loc 1 88 0
 186 0034 0023     		movs	r3, #0
 187 0036 BB73     		strb	r3, [r7, #14]
  89:.\main.c      ****     uint8 button1 = 0;
 188              		.loc 1 89 0
 189 0038 0023     		movs	r3, #0
 190 003a 7B73     		strb	r3, [r7, #13]
  90:.\main.c      ****     uint8 oldbutton1 = 0;
 191              		.loc 1 90 0
 192 003c 0023     		movs	r3, #0
 193 003e 3B73     		strb	r3, [r7, #12]
  91:.\main.c      ****     LED_1_Write(1);
 194              		.loc 1 91 0
ARM GAS  C:\Users\mark6\AppData\Local\Temp\ccnKNNvg.s 			page 6


 195 0040 0120     		movs	r0, #1
 196 0042 FFF7FEFF 		bl	LED_1_Write
  92:.\main.c      ****     
  93:.\main.c      ****     MainTask();                             // all of the emWin exmples use MainTask() as the entry
 197              		.loc 1 93 0
 198 0046 FFF7FEFF 		bl	MainTask
  94:.\main.c      ****     int i = 0;
 199              		.loc 1 94 0
 200 004a 0023     		movs	r3, #0
 201 004c 7B60     		str	r3, [r7, #4]
  95:.\main.c      ****     int *iptr = &i;
 202              		.loc 1 95 0
 203 004e 3B1D     		adds	r3, r7, #4
 204 0050 BB60     		str	r3, [r7, #8]
 205              	.L10:
  96:.\main.c      ****     
  97:.\main.c      ****     for(;;)
  98:.\main.c      ****     
  99:.\main.c      **** 
 100:.\main.c      ****         
 101:.\main.c      ****         if (! CapSense_IsBusy() )
 206              		.loc 1 101 0
 207 0052 FFF7FEFF 		bl	CapSense_IsBusy
 208 0056 0346     		mov	r3, r0
 209 0058 002B     		cmp	r3, #0
 210 005a 05D1     		bne	.L9
 102:.\main.c      ****             counter(iptr, 9999, 4);
 211              		.loc 1 102 0
 212 005c B868     		ldr	r0, [r7, #8]
 213 005e 42F20F71 		movw	r1, #9999
 214 0062 0422     		movs	r2, #4
 215 0064 FFF7FEFF 		bl	counter
 216              	.L9:
 103:.\main.c      **** 		    {
 217              		.loc 1 103 0
 218 0068 F3E7     		b	.L10
 219              	.L12:
 220 006a 00BF     		.align	2
 221              	.L11:
 222 006c 00000000 		.word	RX_INT
 223              		.cfi_endproc
 224              	.LFE64:
 225              		.size	main, .-main
 226              		.section	.rodata
 227              		.align	2
 228              	.LC0:
 229 0000 48656C6C 		.ascii	"Hello world!\000"
 229      6F20776F 
 229      726C6421 
 229      00
 230 000d 000000   		.section	.text.MainTask,"ax",%progbits
 231              		.align	2
 232              		.global	MainTask
 233              		.thumb
 234              		.thumb_func
 235              		.type	MainTask, %function
 236              	MainTask:
ARM GAS  C:\Users\mark6\AppData\Local\Temp\ccnKNNvg.s 			page 7


 237              	.LFB65:
 104:.\main.c      ****                 button0 = CapSense_CheckIsWidgetActive(CapSense_BUTTON0__BTN);
 105:.\main.c      ****                 button1 = CapSense_CheckIsWidgetActive(CapSense_BUTTON1__BTN);
 106:.\main.c      **** 
 107:.\main.c      ****                 if (button0 && button1) 
 108:.\main.c      ****                 {
 109:.\main.c      ****                     // pressing both buttons clears the display
 110:.\main.c      ****                     LCD_1_ClearDisplay();
 111:.\main.c      ****                     reset_x();
 112:.\main.c      ****                     UART_WriteTxData(0x0C);
 113:.\main.c      ****                 }
 114:.\main.c      **** 			    else if (button0 && button0 != oldbutton0) 
 115:.\main.c      ****                 {
 116:.\main.c      ****                     // button 0, (5_5) switches which row you're writing on
 117:.\main.c      ****                     y ^= 1;
 118:.\main.c      ****                     LED_2_Write(LED_1_Read());
 119:.\main.c      ****                     LED_1_Write(!LED_1_Read());
 120:.\main.c      ****                         
 121:.\main.c      ****                 }
 122:.\main.c      ****                 else if (button1 && button1 != oldbutton1)
 123:.\main.c      ****                 {
 124:.\main.c      ****                     // button 1, (5_6) is a backspace
 125:.\main.c      ****                     lcd_backspace();
 126:.\main.c      ****                     send_backspace();
 127:.\main.c      ****                 }
 128:.\main.c      ****                 /* Update all baselines */
 129:.\main.c      ****                 CapSense_UpdateEnabledBaselines();
 130:.\main.c      ****                 
 131:.\main.c      ****            		/* Start scanning all enabled sensors */
 132:.\main.c      ****             	CapSense_ScanEnabledWidgets();
 133:.\main.c      ****                 oldbutton0 = button0;
 134:.\main.c      ****                 oldbutton1 = button1;
 135:.\main.c      **** 		    }
 136:.\main.c      ****     
 137:.\main.c      ****    
 138:.\main.c      **** }
 139:.\main.c      **** 
 140:.\main.c      **** 
 141:.\main.c      **** void MainTask()
 142:.\main.c      **** {
 238              		.loc 1 142 0
 239              		.cfi_startproc
 240              		@ args = 0, pretend = 0, frame = 0
 241              		@ frame_needed = 1, uses_anonymous_args = 0
 242 0000 80B5     		push	{r7, lr}
 243              		.cfi_def_cfa_offset 8
 244              		.cfi_offset 7, -8
 245              		.cfi_offset 14, -4
 246 0002 00AF     		add	r7, sp, #0
 247              		.cfi_def_cfa_register 7
 143:.\main.c      ****     GUI_Init();                             // initilize graphics library
 248              		.loc 1 143 0
 249 0004 FFF7FEFF 		bl	GUI_Init
 144:.\main.c      ****     GUI_Clear();
 250              		.loc 1 144 0
 251 0008 FFF7FEFF 		bl	GUI_Clear
 145:.\main.c      ****     SCREEN_X = GUI_GetScreenSizeX();
ARM GAS  C:\Users\mark6\AppData\Local\Temp\ccnKNNvg.s 			page 8


 252              		.loc 1 145 0
 253 000c FFF7FEFF 		bl	GUI_GetScreenSizeX
 254 0010 0246     		mov	r2, r0
 255 0012 074B     		ldr	r3, .L14
 256 0014 1A60     		str	r2, [r3]
 146:.\main.c      ****     SCREEN_Y = GUI_GetScreenSizeY();
 257              		.loc 1 146 0
 258 0016 FFF7FEFF 		bl	GUI_GetScreenSizeY
 259 001a 0246     		mov	r2, r0
 260 001c 054B     		ldr	r3, .L14+4
 261 001e 1A60     		str	r2, [r3]
 147:.\main.c      ****     GUI_SetFont(&GUI_Font8x16);
 262              		.loc 1 147 0
 263 0020 0548     		ldr	r0, .L14+8
 264 0022 FFF7FEFF 		bl	GUI_SetFont
 148:.\main.c      ****     GUI_DispString("Hello world!");
 265              		.loc 1 148 0
 266 0026 0548     		ldr	r0, .L14+12
 267 0028 FFF7FEFF 		bl	GUI_DispString
 149:.\main.c      **** }
 268              		.loc 1 149 0
 269 002c 80BD     		pop	{r7, pc}
 270              	.L15:
 271 002e 00BF     		.align	2
 272              	.L14:
 273 0030 00000000 		.word	SCREEN_X
 274 0034 00000000 		.word	SCREEN_Y
 275 0038 00000000 		.word	GUI_Font8x16
 276 003c 00000000 		.word	.LC0
 277              		.cfi_endproc
 278              	.LFE65:
 279              		.size	MainTask, .-MainTask
 280              		.section	.text.counter,"ax",%progbits
 281              		.align	2
 282              		.global	counter
 283              		.thumb
 284              		.thumb_func
 285              		.type	counter, %function
 286              	counter:
 287              	.LFB66:
 150:.\main.c      **** 
 151:.\main.c      **** inline void counter(int* iptr, int max, int digits) {
 288              		.loc 1 151 0
 289              		.cfi_startproc
 290              		@ args = 0, pretend = 0, frame = 16
 291              		@ frame_needed = 1, uses_anonymous_args = 0
 292 0000 90B5     		push	{r4, r7, lr}
 293              		.cfi_def_cfa_offset 12
 294              		.cfi_offset 4, -12
 295              		.cfi_offset 7, -8
 296              		.cfi_offset 14, -4
 297 0002 85B0     		sub	sp, sp, #20
 298              		.cfi_def_cfa_offset 32
 299 0004 00AF     		add	r7, sp, #0
 300              		.cfi_def_cfa_register 7
 301 0006 F860     		str	r0, [r7, #12]
 302 0008 B960     		str	r1, [r7, #8]
ARM GAS  C:\Users\mark6\AppData\Local\Temp\ccnKNNvg.s 			page 9


 303 000a 7A60     		str	r2, [r7, #4]
 152:.\main.c      ****     GUI_DispDecAt( (*iptr)++, 20,20,digits);
 304              		.loc 1 152 0
 305 000c FB68     		ldr	r3, [r7, #12]
 306 000e 1B68     		ldr	r3, [r3]
 307 0010 591C     		adds	r1, r3, #1
 308 0012 FA68     		ldr	r2, [r7, #12]
 309 0014 1160     		str	r1, [r2]
 310 0016 7A68     		ldr	r2, [r7, #4]
 311 0018 D4B2     		uxtb	r4, r2
 312 001a 1846     		mov	r0, r3
 313 001c 1421     		movs	r1, #20
 314 001e 1422     		movs	r2, #20
 315 0020 2346     		mov	r3, r4
 316 0022 FFF7FEFF 		bl	GUI_DispDecAt
 153:.\main.c      ****             if (*iptr > max) {
 317              		.loc 1 153 0
 318 0026 FB68     		ldr	r3, [r7, #12]
 319 0028 1A68     		ldr	r2, [r3]
 320 002a BB68     		ldr	r3, [r7, #8]
 321 002c 9A42     		cmp	r2, r3
 322 002e 02DD     		ble	.L16
 154:.\main.c      ****             *iptr = 0;
 323              		.loc 1 154 0
 324 0030 FB68     		ldr	r3, [r7, #12]
 325 0032 0022     		movs	r2, #0
 326 0034 1A60     		str	r2, [r3]
 327              	.L16:
 155:.\main.c      ****          }
 156:.\main.c      **** }
 328              		.loc 1 156 0
 329 0036 1437     		adds	r7, r7, #20
 330              		.cfi_def_cfa_offset 12
 331 0038 BD46     		mov	sp, r7
 332              		.cfi_def_cfa_register 13
 333              		@ sp needed
 334 003a 90BD     		pop	{r4, r7, pc}
 335              		.cfi_endproc
 336              	.LFE66:
 337              		.size	counter, .-counter
 338              		.section	.text.get_x,"ax",%progbits
 339              		.align	2
 340              		.global	get_x
 341              		.thumb
 342              		.thumb_func
 343              		.type	get_x, %function
 344              	get_x:
 345              	.LFB67:
 157:.\main.c      **** 
 158:.\main.c      **** uint8 get_x() {
 346              		.loc 1 158 0
 347              		.cfi_startproc
 348              		@ args = 0, pretend = 0, frame = 0
 349              		@ frame_needed = 1, uses_anonymous_args = 0
 350              		@ link register save eliminated.
 351 0000 80B4     		push	{r7}
 352              		.cfi_def_cfa_offset 4
ARM GAS  C:\Users\mark6\AppData\Local\Temp\ccnKNNvg.s 			page 10


 353              		.cfi_offset 7, -4
 354 0002 00AF     		add	r7, sp, #0
 355              		.cfi_def_cfa_register 7
 159:.\main.c      ****     if (y == 0) {
 356              		.loc 1 159 0
 357 0004 064B     		ldr	r3, .L21
 358 0006 1B78     		ldrb	r3, [r3]	@ zero_extendqisi2
 359 0008 002B     		cmp	r3, #0
 360 000a 02D1     		bne	.L19
 160:.\main.c      ****         return x0;
 361              		.loc 1 160 0
 362 000c 054B     		ldr	r3, .L21+4
 363 000e 1B78     		ldrb	r3, [r3]	@ zero_extendqisi2
 364 0010 01E0     		b	.L20
 365              	.L19:
 161:.\main.c      ****     } else {
 162:.\main.c      ****         return x1;
 366              		.loc 1 162 0
 367 0012 054B     		ldr	r3, .L21+8
 368 0014 1B78     		ldrb	r3, [r3]	@ zero_extendqisi2
 369              	.L20:
 163:.\main.c      ****     }
 164:.\main.c      **** }
 370              		.loc 1 164 0
 371 0016 1846     		mov	r0, r3
 372 0018 BD46     		mov	sp, r7
 373              		.cfi_def_cfa_register 13
 374              		@ sp needed
 375 001a 5DF8047B 		ldr	r7, [sp], #4
 376              		.cfi_restore 7
 377              		.cfi_def_cfa_offset 0
 378 001e 7047     		bx	lr
 379              	.L22:
 380              		.align	2
 381              	.L21:
 382 0020 00000000 		.word	y
 383 0024 00000000 		.word	x0
 384 0028 00000000 		.word	x1
 385              		.cfi_endproc
 386              	.LFE67:
 387              		.size	get_x, .-get_x
 388              		.section	.text.inc_x,"ax",%progbits
 389              		.align	2
 390              		.global	inc_x
 391              		.thumb
 392              		.thumb_func
 393              		.type	inc_x, %function
 394              	inc_x:
 395              	.LFB68:
 165:.\main.c      **** 
 166:.\main.c      **** void inc_x() {
 396              		.loc 1 166 0
 397              		.cfi_startproc
 398              		@ args = 0, pretend = 0, frame = 0
 399              		@ frame_needed = 1, uses_anonymous_args = 0
 400              		@ link register save eliminated.
 401 0000 80B4     		push	{r7}
ARM GAS  C:\Users\mark6\AppData\Local\Temp\ccnKNNvg.s 			page 11


 402              		.cfi_def_cfa_offset 4
 403              		.cfi_offset 7, -4
 404 0002 00AF     		add	r7, sp, #0
 405              		.cfi_def_cfa_register 7
 167:.\main.c      ****     if (y == 0) {
 406              		.loc 1 167 0
 407 0004 174B     		ldr	r3, .L26
 408 0006 1B78     		ldrb	r3, [r3]	@ zero_extendqisi2
 409 0008 002B     		cmp	r3, #0
 410 000a 13D1     		bne	.L24
 168:.\main.c      ****         x0++;
 411              		.loc 1 168 0
 412 000c 164B     		ldr	r3, .L26+4
 413 000e 1B78     		ldrb	r3, [r3]	@ zero_extendqisi2
 414 0010 0133     		adds	r3, r3, #1
 415 0012 DAB2     		uxtb	r2, r3
 416 0014 144B     		ldr	r3, .L26+4
 417 0016 1A70     		strb	r2, [r3]
 169:.\main.c      ****         x0 %= 15; // keep within bounds
 418              		.loc 1 169 0
 419 0018 134B     		ldr	r3, .L26+4
 420 001a 1A78     		ldrb	r2, [r3]	@ zero_extendqisi2
 421 001c 134B     		ldr	r3, .L26+8
 422 001e A3FB0213 		umull	r1, r3, r3, r2
 423 0022 D908     		lsrs	r1, r3, #3
 424 0024 0B46     		mov	r3, r1
 425 0026 1B01     		lsls	r3, r3, #4
 426 0028 5B1A     		subs	r3, r3, r1
 427 002a D31A     		subs	r3, r2, r3
 428 002c DAB2     		uxtb	r2, r3
 429 002e 0E4B     		ldr	r3, .L26+4
 430 0030 1A70     		strb	r2, [r3]
 431 0032 12E0     		b	.L23
 432              	.L24:
 170:.\main.c      ****     } else {
 171:.\main.c      ****         x1++;
 433              		.loc 1 171 0
 434 0034 0E4B     		ldr	r3, .L26+12
 435 0036 1B78     		ldrb	r3, [r3]	@ zero_extendqisi2
 436 0038 0133     		adds	r3, r3, #1
 437 003a DAB2     		uxtb	r2, r3
 438 003c 0C4B     		ldr	r3, .L26+12
 439 003e 1A70     		strb	r2, [r3]
 172:.\main.c      ****         x1 %= 15;
 440              		.loc 1 172 0
 441 0040 0B4B     		ldr	r3, .L26+12
 442 0042 1A78     		ldrb	r2, [r3]	@ zero_extendqisi2
 443 0044 094B     		ldr	r3, .L26+8
 444 0046 A3FB0213 		umull	r1, r3, r3, r2
 445 004a D908     		lsrs	r1, r3, #3
 446 004c 0B46     		mov	r3, r1
 447 004e 1B01     		lsls	r3, r3, #4
 448 0050 5B1A     		subs	r3, r3, r1
 449 0052 D31A     		subs	r3, r2, r3
 450 0054 DAB2     		uxtb	r2, r3
 451 0056 064B     		ldr	r3, .L26+12
 452 0058 1A70     		strb	r2, [r3]
ARM GAS  C:\Users\mark6\AppData\Local\Temp\ccnKNNvg.s 			page 12


 453              	.L23:
 173:.\main.c      ****     }
 174:.\main.c      **** }
 454              		.loc 1 174 0
 455 005a BD46     		mov	sp, r7
 456              		.cfi_def_cfa_register 13
 457              		@ sp needed
 458 005c 5DF8047B 		ldr	r7, [sp], #4
 459              		.cfi_restore 7
 460              		.cfi_def_cfa_offset 0
 461 0060 7047     		bx	lr
 462              	.L27:
 463 0062 00BF     		.align	2
 464              	.L26:
 465 0064 00000000 		.word	y
 466 0068 00000000 		.word	x0
 467 006c 89888888 		.word	-2004318071
 468 0070 00000000 		.word	x1
 469              		.cfi_endproc
 470              	.LFE68:
 471              		.size	inc_x, .-inc_x
 472              		.section	.text.dec_x,"ax",%progbits
 473              		.align	2
 474              		.global	dec_x
 475              		.thumb
 476              		.thumb_func
 477              		.type	dec_x, %function
 478              	dec_x:
 479              	.LFB69:
 175:.\main.c      **** 
 176:.\main.c      **** void dec_x() {
 480              		.loc 1 176 0
 481              		.cfi_startproc
 482              		@ args = 0, pretend = 0, frame = 0
 483              		@ frame_needed = 1, uses_anonymous_args = 0
 484              		@ link register save eliminated.
 485 0000 80B4     		push	{r7}
 486              		.cfi_def_cfa_offset 4
 487              		.cfi_offset 7, -4
 488 0002 00AF     		add	r7, sp, #0
 489              		.cfi_def_cfa_register 7
 177:.\main.c      ****     if (y == 0 && x0 > 0) {
 490              		.loc 1 177 0
 491 0004 1C4B     		ldr	r3, .L33
 492 0006 1B78     		ldrb	r3, [r3]	@ zero_extendqisi2
 493 0008 002B     		cmp	r3, #0
 494 000a 0AD1     		bne	.L29
 495              		.loc 1 177 0 is_stmt 0 discriminator 1
 496 000c 1B4B     		ldr	r3, .L33+4
 497 000e 1B78     		ldrb	r3, [r3]	@ zero_extendqisi2
 498 0010 002B     		cmp	r3, #0
 499 0012 06D0     		beq	.L29
 178:.\main.c      ****         x0--;
 500              		.loc 1 178 0 is_stmt 1
 501 0014 194B     		ldr	r3, .L33+4
 502 0016 1B78     		ldrb	r3, [r3]	@ zero_extendqisi2
 503 0018 013B     		subs	r3, r3, #1
ARM GAS  C:\Users\mark6\AppData\Local\Temp\ccnKNNvg.s 			page 13


 504 001a DAB2     		uxtb	r2, r3
 505 001c 174B     		ldr	r3, .L33+4
 506 001e 1A70     		strb	r2, [r3]
 507 0020 25E0     		b	.L28
 508              	.L29:
 179:.\main.c      ****     } else if (y == 0 && x0 == 0) {
 509              		.loc 1 179 0
 510 0022 154B     		ldr	r3, .L33
 511 0024 1B78     		ldrb	r3, [r3]	@ zero_extendqisi2
 512 0026 002B     		cmp	r3, #0
 513 0028 07D1     		bne	.L31
 514              		.loc 1 179 0 is_stmt 0 discriminator 1
 515 002a 144B     		ldr	r3, .L33+4
 516 002c 1B78     		ldrb	r3, [r3]	@ zero_extendqisi2
 517 002e 002B     		cmp	r3, #0
 518 0030 03D1     		bne	.L31
 180:.\main.c      ****         x0 = 14;
 519              		.loc 1 180 0 is_stmt 1
 520 0032 124B     		ldr	r3, .L33+4
 521 0034 0E22     		movs	r2, #14
 522 0036 1A70     		strb	r2, [r3]
 523 0038 19E0     		b	.L28
 524              	.L31:
 181:.\main.c      ****     } else if (y == 1 && x1 > 0) {
 525              		.loc 1 181 0
 526 003a 0F4B     		ldr	r3, .L33
 527 003c 1B78     		ldrb	r3, [r3]	@ zero_extendqisi2
 528 003e 012B     		cmp	r3, #1
 529 0040 0AD1     		bne	.L32
 530              		.loc 1 181 0 is_stmt 0 discriminator 1
 531 0042 0F4B     		ldr	r3, .L33+8
 532 0044 1B78     		ldrb	r3, [r3]	@ zero_extendqisi2
 533 0046 002B     		cmp	r3, #0
 534 0048 06D0     		beq	.L32
 182:.\main.c      ****         x1--;
 535              		.loc 1 182 0 is_stmt 1
 536 004a 0D4B     		ldr	r3, .L33+8
 537 004c 1B78     		ldrb	r3, [r3]	@ zero_extendqisi2
 538 004e 013B     		subs	r3, r3, #1
 539 0050 DAB2     		uxtb	r2, r3
 540 0052 0B4B     		ldr	r3, .L33+8
 541 0054 1A70     		strb	r2, [r3]
 542 0056 0AE0     		b	.L28
 543              	.L32:
 183:.\main.c      ****     } else if (y == 1 && x1 == 0) {
 544              		.loc 1 183 0
 545 0058 074B     		ldr	r3, .L33
 546 005a 1B78     		ldrb	r3, [r3]	@ zero_extendqisi2
 547 005c 012B     		cmp	r3, #1
 548 005e 06D1     		bne	.L28
 549              		.loc 1 183 0 is_stmt 0 discriminator 1
 550 0060 074B     		ldr	r3, .L33+8
 551 0062 1B78     		ldrb	r3, [r3]	@ zero_extendqisi2
 552 0064 002B     		cmp	r3, #0
 553 0066 02D1     		bne	.L28
 184:.\main.c      ****         x1 = 14;   
 554              		.loc 1 184 0 is_stmt 1
ARM GAS  C:\Users\mark6\AppData\Local\Temp\ccnKNNvg.s 			page 14


 555 0068 054B     		ldr	r3, .L33+8
 556 006a 0E22     		movs	r2, #14
 557 006c 1A70     		strb	r2, [r3]
 558              	.L28:
 185:.\main.c      ****     }
 186:.\main.c      **** }
 559              		.loc 1 186 0
 560 006e BD46     		mov	sp, r7
 561              		.cfi_def_cfa_register 13
 562              		@ sp needed
 563 0070 5DF8047B 		ldr	r7, [sp], #4
 564              		.cfi_restore 7
 565              		.cfi_def_cfa_offset 0
 566 0074 7047     		bx	lr
 567              	.L34:
 568 0076 00BF     		.align	2
 569              	.L33:
 570 0078 00000000 		.word	y
 571 007c 00000000 		.word	x0
 572 0080 00000000 		.word	x1
 573              		.cfi_endproc
 574              	.LFE69:
 575              		.size	dec_x, .-dec_x
 576              		.section	.text.reset_x,"ax",%progbits
 577              		.align	2
 578              		.global	reset_x
 579              		.thumb
 580              		.thumb_func
 581              		.type	reset_x, %function
 582              	reset_x:
 583              	.LFB70:
 187:.\main.c      **** 
 188:.\main.c      **** void reset_x() {
 584              		.loc 1 188 0
 585              		.cfi_startproc
 586              		@ args = 0, pretend = 0, frame = 0
 587              		@ frame_needed = 1, uses_anonymous_args = 0
 588              		@ link register save eliminated.
 589 0000 80B4     		push	{r7}
 590              		.cfi_def_cfa_offset 4
 591              		.cfi_offset 7, -4
 592 0002 00AF     		add	r7, sp, #0
 593              		.cfi_def_cfa_register 7
 189:.\main.c      ****     x0 = 0;
 594              		.loc 1 189 0
 595 0004 064B     		ldr	r3, .L36
 596 0006 0022     		movs	r2, #0
 597 0008 1A70     		strb	r2, [r3]
 190:.\main.c      ****     x1 = 0;
 598              		.loc 1 190 0
 599 000a 064B     		ldr	r3, .L36+4
 600 000c 0022     		movs	r2, #0
 601 000e 1A70     		strb	r2, [r3]
 191:.\main.c      ****     x = 0;
 602              		.loc 1 191 0
 603 0010 054B     		ldr	r3, .L36+8
 604 0012 0022     		movs	r2, #0
ARM GAS  C:\Users\mark6\AppData\Local\Temp\ccnKNNvg.s 			page 15


 605 0014 1A70     		strb	r2, [r3]
 192:.\main.c      **** }
 606              		.loc 1 192 0
 607 0016 BD46     		mov	sp, r7
 608              		.cfi_def_cfa_register 13
 609              		@ sp needed
 610 0018 5DF8047B 		ldr	r7, [sp], #4
 611              		.cfi_restore 7
 612              		.cfi_def_cfa_offset 0
 613 001c 7047     		bx	lr
 614              	.L37:
 615 001e 00BF     		.align	2
 616              	.L36:
 617 0020 00000000 		.word	x0
 618 0024 00000000 		.word	x1
 619 0028 00000000 		.word	x
 620              		.cfi_endproc
 621              	.LFE70:
 622              		.size	reset_x, .-reset_x
 623              		.section	.text.lcd_backspace,"ax",%progbits
 624              		.align	2
 625              		.global	lcd_backspace
 626              		.thumb
 627              		.thumb_func
 628              		.type	lcd_backspace, %function
 629              	lcd_backspace:
 630              	.LFB71:
 193:.\main.c      **** 
 194:.\main.c      **** void lcd_backspace() {
 631              		.loc 1 194 0
 632              		.cfi_startproc
 633              		@ args = 0, pretend = 0, frame = 0
 634              		@ frame_needed = 1, uses_anonymous_args = 0
 635 0000 80B5     		push	{r7, lr}
 636              		.cfi_def_cfa_offset 8
 637              		.cfi_offset 7, -8
 638              		.cfi_offset 14, -4
 639 0002 00AF     		add	r7, sp, #0
 640              		.cfi_def_cfa_register 7
 195:.\main.c      ****     // clears the prior space on the LCD_1
 196:.\main.c      ****     dec_x();
 641              		.loc 1 196 0
 642 0004 FFF7FEFF 		bl	dec_x
 197:.\main.c      ****     x = get_x();
 643              		.loc 1 197 0
 644 0008 FFF7FEFF 		bl	get_x
 645 000c 0346     		mov	r3, r0
 646 000e 1A46     		mov	r2, r3
 647 0010 0A4B     		ldr	r3, .L39
 648 0012 1A70     		strb	r2, [r3]
 198:.\main.c      ****     LCD_1_Position(y, x);
 649              		.loc 1 198 0
 650 0014 0A4B     		ldr	r3, .L39+4
 651 0016 1A78     		ldrb	r2, [r3]	@ zero_extendqisi2
 652 0018 084B     		ldr	r3, .L39
 653 001a 1B78     		ldrb	r3, [r3]	@ zero_extendqisi2
 654 001c 1046     		mov	r0, r2
ARM GAS  C:\Users\mark6\AppData\Local\Temp\ccnKNNvg.s 			page 16


 655 001e 1946     		mov	r1, r3
 656 0020 FFF7FEFF 		bl	LCD_1_Position
 199:.\main.c      ****     LCD_1_PutChar(' ');
 657              		.loc 1 199 0
 658 0024 2020     		movs	r0, #32
 659 0026 FFF7FEFF 		bl	LCD_1_PutChar
 200:.\main.c      ****     LCD_1_Position(y, x);
 660              		.loc 1 200 0
 661 002a 054B     		ldr	r3, .L39+4
 662 002c 1A78     		ldrb	r2, [r3]	@ zero_extendqisi2
 663 002e 034B     		ldr	r3, .L39
 664 0030 1B78     		ldrb	r3, [r3]	@ zero_extendqisi2
 665 0032 1046     		mov	r0, r2
 666 0034 1946     		mov	r1, r3
 667 0036 FFF7FEFF 		bl	LCD_1_Position
 201:.\main.c      **** }
 668              		.loc 1 201 0
 669 003a 80BD     		pop	{r7, pc}
 670              	.L40:
 671              		.align	2
 672              	.L39:
 673 003c 00000000 		.word	x
 674 0040 00000000 		.word	y
 675              		.cfi_endproc
 676              	.LFE71:
 677              		.size	lcd_backspace, .-lcd_backspace
 678              		.section	.text.send_backspace,"ax",%progbits
 679              		.align	2
 680              		.global	send_backspace
 681              		.thumb
 682              		.thumb_func
 683              		.type	send_backspace, %function
 684              	send_backspace:
 685              	.LFB72:
 202:.\main.c      **** void send_backspace() {
 686              		.loc 1 202 0
 687              		.cfi_startproc
 688              		@ args = 0, pretend = 0, frame = 0
 689              		@ frame_needed = 1, uses_anonymous_args = 0
 690 0000 80B5     		push	{r7, lr}
 691              		.cfi_def_cfa_offset 8
 692              		.cfi_offset 7, -8
 693              		.cfi_offset 14, -4
 694 0002 00AF     		add	r7, sp, #0
 695              		.cfi_def_cfa_register 7
 203:.\main.c      ****     // sends the ASCII backspace character, space to delete
 204:.\main.c      ****     //   then another backspace
 205:.\main.c      ****     UART_WriteTxData(0x08);
 696              		.loc 1 205 0
 697 0004 0820     		movs	r0, #8
 698 0006 FFF7FEFF 		bl	UART_WriteTxData
 206:.\main.c      ****     UART_WriteTxData(0x20);
 699              		.loc 1 206 0
 700 000a 2020     		movs	r0, #32
 701 000c FFF7FEFF 		bl	UART_WriteTxData
 207:.\main.c      ****     UART_WriteTxData(0x08);   
 702              		.loc 1 207 0
ARM GAS  C:\Users\mark6\AppData\Local\Temp\ccnKNNvg.s 			page 17


 703 0010 0820     		movs	r0, #8
 704 0012 FFF7FEFF 		bl	UART_WriteTxData
 208:.\main.c      **** }
 705              		.loc 1 208 0
 706 0016 80BD     		pop	{r7, pc}
 707              		.cfi_endproc
 708              	.LFE72:
 709              		.size	send_backspace, .-send_backspace
 710              		.text
 711              	.Letext0:
 712              		.file 2 "c:\\program files (x86)\\cypress\\psoc creator\\3.3\\psoc creator\\import\\gnu\\arm\\4.9.
 713              		.file 3 "c:\\program files (x86)\\cypress\\psoc creator\\3.3\\psoc creator\\import\\gnu\\arm\\4.9.
 714              		.file 4 "Generated_Source\\PSoC5/cytypes.h"
 715              		.file 5 "..\\..\\..\\emWinGraphics_v5_46\\Code\\Include\\PSoC4_5/GUI_Type.h"
 716              		.file 6 "Generated_Source\\PSoC5/core_cm3.h"
 717              		.file 7 "..\\..\\..\\emWinGraphics_v5_46\\Code\\Include\\PSoC4_5/GUI.h"